GAS LISTING /tmp/ccau0dhu.s 			page 1


   1              		.file	"main.cpp"
   2              		.option pic
   3              		.option norelax
   4              		.text
   5              	.Ltext0:
   6              		.align	2
   7              		.globl	_Z7workerAPv
   9              	_Z7workerAPv:
  10              	.LFB21:
  11              		.file 1 "src/main.cpp"
   1:src/main.cpp  **** #include "../lib/hw.h"
   2:src/main.cpp  **** #include "../h/memoryAllocator.hpp"
   3:src/main.cpp  **** #include "../h/riscv.hpp"
   4:src/main.cpp  **** #include "../h/tcb.hpp"
   5:src/main.cpp  **** 
   6:src/main.cpp  **** void workerA(void *) {
  12              		.loc 1 6 22
  13              		.cfi_startproc
  14 0000 130101FE 		addi	sp,sp,-32
  15              		.cfi_def_cfa_offset 32
  16 0004 233C1100 		sd	ra,24(sp)
  17 0008 23388100 		sd	s0,16(sp)
  18 000c 23349100 		sd	s1,8(sp)
  19              		.cfi_offset 1, -8
  20              		.cfi_offset 8, -16
  21              		.cfi_offset 9, -24
  22 0010 13040102 		addi	s0,sp,32
  23              		.cfi_def_cfa 8, 0
   7:src/main.cpp  ****     for (int i = 0; i < 3; i++) {
  24              		.loc 1 7 5
  25              	.LVL0:
  26              	.LBB4:
  27              		.loc 1 7 14 is_stmt 0
  28 0014 93040000 		li	s1,0
  29 0018 6F00C001 		j	.L3
  30              	.LVL1:
  31              	.L5:
   8:src/main.cpp  ****         putc('A');
  32              		.loc 1 8 9 is_stmt 1 discriminator 2
  33              		.loc 1 8 13 is_stmt 0 discriminator 2
  34 001c 13051004 		li	a0,65
  35 0020 97000000 		call	_Z4putcc@plt
  35      E7800000 
  36              	.LVL2:
   9:src/main.cpp  ****         thread_dispatch();
  37              		.loc 1 9 9 is_stmt 1 discriminator 2
  38              		.loc 1 9 24 is_stmt 0 discriminator 2
  39 0028 97000000 		call	_Z15thread_dispatchv@plt
  39      E7800000 
  40              	.LVL3:
   7:src/main.cpp  ****     for (int i = 0; i < 3; i++) {
  41              		.loc 1 7 5 is_stmt 1 discriminator 2
  42 0030 9B841400 		addiw	s1,s1,1
  43              	.LVL4:
  44              	.L3:
   7:src/main.cpp  ****     for (int i = 0; i < 3; i++) {
  45              		.loc 1 7 23 discriminator 3
GAS LISTING /tmp/ccau0dhu.s 			page 2


  46 0034 93072000 		li	a5,2
  47 0038 E3D297FE 		ble	s1,a5,.L5
  48              	.LBE4:
  10:src/main.cpp  ****     }
  11:src/main.cpp  **** }
  49              		.loc 1 11 1 is_stmt 0
  50 003c 83308101 		ld	ra,24(sp)
  51              		.cfi_restore 1
  52 0040 03340101 		ld	s0,16(sp)
  53              		.cfi_restore 8
  54              		.cfi_def_cfa 2, 32
  55 0044 83348100 		ld	s1,8(sp)
  56              		.cfi_restore 9
  57              	.LVL5:
  58 0048 13010102 		addi	sp,sp,32
  59              		.cfi_def_cfa_offset 0
  60 004c 67800000 		jr	ra
  61              		.cfi_endproc
  62              	.LFE21:
  64              		.align	2
  65              		.globl	_Z7workerBPv
  67              	_Z7workerBPv:
  68              	.LFB22:
  12:src/main.cpp  **** 
  13:src/main.cpp  **** void workerB(void*) {
  69              		.loc 1 13 21 is_stmt 1
  70              		.cfi_startproc
  71 0050 130101FE 		addi	sp,sp,-32
  72              		.cfi_def_cfa_offset 32
  73 0054 233C1100 		sd	ra,24(sp)
  74 0058 23388100 		sd	s0,16(sp)
  75 005c 23349100 		sd	s1,8(sp)
  76              		.cfi_offset 1, -8
  77              		.cfi_offset 8, -16
  78              		.cfi_offset 9, -24
  79 0060 13040102 		addi	s0,sp,32
  80              		.cfi_def_cfa 8, 0
  14:src/main.cpp  ****     for (int i = 0; i < 7; i++){
  81              		.loc 1 14 5
  82              	.LVL6:
  83              	.LBB5:
  84              		.loc 1 14 14 is_stmt 0
  85 0064 93040000 		li	s1,0
  86 0068 6F00C001 		j	.L8
  87              	.LVL7:
  88              	.L10:
  15:src/main.cpp  ****         putc('B');
  89              		.loc 1 15 9 is_stmt 1 discriminator 2
  90              		.loc 1 15 13 is_stmt 0 discriminator 2
  91 006c 13052004 		li	a0,66
  92 0070 97000000 		call	_Z4putcc@plt
  92      E7800000 
  93              	.LVL8:
  16:src/main.cpp  ****         thread_dispatch();
  94              		.loc 1 16 9 is_stmt 1 discriminator 2
  95              		.loc 1 16 24 is_stmt 0 discriminator 2
  96 0078 97000000 		call	_Z15thread_dispatchv@plt
GAS LISTING /tmp/ccau0dhu.s 			page 3


  96      E7800000 
  97              	.LVL9:
  14:src/main.cpp  ****     for (int i = 0; i < 7; i++){
  98              		.loc 1 14 5 is_stmt 1 discriminator 2
  99 0080 9B841400 		addiw	s1,s1,1
 100              	.LVL10:
 101              	.L8:
  14:src/main.cpp  ****     for (int i = 0; i < 7; i++){
 102              		.loc 1 14 23 discriminator 3
 103 0084 93076000 		li	a5,6
 104 0088 E3D297FE 		ble	s1,a5,.L10
 105              	.LBE5:
  17:src/main.cpp  ****     }
  18:src/main.cpp  **** }
 106              		.loc 1 18 1 is_stmt 0
 107 008c 83308101 		ld	ra,24(sp)
 108              		.cfi_restore 1
 109 0090 03340101 		ld	s0,16(sp)
 110              		.cfi_restore 8
 111              		.cfi_def_cfa 2, 32
 112 0094 83348100 		ld	s1,8(sp)
 113              		.cfi_restore 9
 114              	.LVL11:
 115 0098 13010102 		addi	sp,sp,32
 116              		.cfi_def_cfa_offset 0
 117 009c 67800000 		jr	ra
 118              		.cfi_endproc
 119              	.LFE22:
 121              		.align	2
 122              		.globl	_Z7workerCPv
 124              	_Z7workerCPv:
 125              	.LFB23:
  19:src/main.cpp  **** 
  20:src/main.cpp  **** void workerC(void*) {
 126              		.loc 1 20 21 is_stmt 1
 127              		.cfi_startproc
 128 00a0 130101FE 		addi	sp,sp,-32
 129              		.cfi_def_cfa_offset 32
 130 00a4 233C1100 		sd	ra,24(sp)
 131 00a8 23388100 		sd	s0,16(sp)
 132 00ac 23349100 		sd	s1,8(sp)
 133              		.cfi_offset 1, -8
 134              		.cfi_offset 8, -16
 135              		.cfi_offset 9, -24
 136 00b0 13040102 		addi	s0,sp,32
 137              		.cfi_def_cfa 8, 0
  21:src/main.cpp  ****     for (int i = 0; i < 5; i++){
 138              		.loc 1 21 5
 139              	.LVL12:
 140              	.LBB6:
 141              		.loc 1 21 14 is_stmt 0
 142 00b4 93040000 		li	s1,0
 143              	.LVL13:
 144              	.L13:
 145              		.loc 1 21 23 is_stmt 1 discriminator 3
 146 00b8 93074000 		li	a5,4
 147 00bc 63C09702 		bgt	s1,a5,.L11
GAS LISTING /tmp/ccau0dhu.s 			page 4


  22:src/main.cpp  ****         putc('C');
 148              		.loc 1 22 9 discriminator 2
 149              		.loc 1 22 13 is_stmt 0 discriminator 2
 150 00c0 13053004 		li	a0,67
 151 00c4 97000000 		call	_Z4putcc@plt
 151      E7800000 
 152              	.LVL14:
  23:src/main.cpp  ****         thread_dispatch();
 153              		.loc 1 23 9 is_stmt 1 discriminator 2
 154              		.loc 1 23 24 is_stmt 0 discriminator 2
 155 00cc 97000000 		call	_Z15thread_dispatchv@plt
 155      E7800000 
 156              	.LVL15:
  21:src/main.cpp  ****     for (int i = 0; i < 5; i++){
 157              		.loc 1 21 5 is_stmt 1 discriminator 2
 158 00d4 9B841400 		addiw	s1,s1,1
 159              	.LVL16:
 160 00d8 6FF01FFE 		j	.L13
 161              	.LVL17:
 162              	.L11:
 163              	.LBE6:
  24:src/main.cpp  ****     }
  25:src/main.cpp  **** }
 164              		.loc 1 25 1 is_stmt 0
 165 00dc 83308101 		ld	ra,24(sp)
 166              		.cfi_restore 1
 167 00e0 03340101 		ld	s0,16(sp)
 168              		.cfi_restore 8
 169              		.cfi_def_cfa 2, 32
 170 00e4 83348100 		ld	s1,8(sp)
 171              		.cfi_restore 9
 172              	.LVL18:
 173 00e8 13010102 		addi	sp,sp,32
 174              		.cfi_def_cfa_offset 0
 175 00ec 67800000 		jr	ra
 176              		.cfi_endproc
 177              	.LFE23:
 179              		.align	2
 180              		.globl	main
 182              	main:
 183              	.LFB24:
  26:src/main.cpp  **** 
  27:src/main.cpp  **** thread_t threads[5];
  28:src/main.cpp  **** 
  29:src/main.cpp  **** int main(){
 184              		.loc 1 29 11 is_stmt 1
 185              		.cfi_startproc
 186 00f0 130101FE 		addi	sp,sp,-32
 187              		.cfi_def_cfa_offset 32
 188 00f4 233C1100 		sd	ra,24(sp)
 189 00f8 23388100 		sd	s0,16(sp)
 190 00fc 23349100 		sd	s1,8(sp)
 191              		.cfi_offset 1, -8
 192              		.cfi_offset 8, -16
 193              		.cfi_offset 9, -24
 194 0100 13040102 		addi	s0,sp,32
 195              		.cfi_def_cfa 8, 0
GAS LISTING /tmp/ccau0dhu.s 			page 5


  30:src/main.cpp  **** 
  31:src/main.cpp  ****     Riscv::writeStvec((uint64)&Riscv::supervisorTrap);
 196              		.loc 1 31 5
 197              		.loc 1 31 22 is_stmt 0
 198 0104 97070000 		la	a5,_ZN5Riscv14supervisorTrapEv
 198      83B70700 
 199              	.LVL19:
 200              	.LBB7:
 201              	.LBB8:
 202              		.file 2 "src/../h/riscv.hpp"
   1:src/../h/riscv.hpp **** 
   2:src/../h/riscv.hpp **** #ifndef PROJECT_BASE_V1_1_RISCV_HPP
   3:src/../h/riscv.hpp **** #define PROJECT_BASE_V1_1_RISCV_HPP
   4:src/../h/riscv.hpp **** 
   5:src/../h/riscv.hpp **** #include "../lib/hw.h"
   6:src/../h/riscv.hpp **** #include "../lib/console.h"
   7:src/../h/riscv.hpp **** #include "../h/syscallC.hpp"
   8:src/../h/riscv.hpp **** #include "../h/memoryAllocator.hpp"
   9:src/../h/riscv.hpp **** 
  10:src/../h/riscv.hpp **** constexpr uint64 SOFTWARE = 0x8000000000000001UL;
  11:src/../h/riscv.hpp **** constexpr uint64 EXTERNAL = 0x8000000000000009UL;
  12:src/../h/riscv.hpp **** constexpr uint64 U_ECALL  = 0x8UL;
  13:src/../h/riscv.hpp **** constexpr uint64 S_ECALL  = 0x9UL;
  14:src/../h/riscv.hpp **** 
  15:src/../h/riscv.hpp **** class Riscv{
  16:src/../h/riscv.hpp **** 
  17:src/../h/riscv.hpp **** public:
  18:src/../h/riscv.hpp **** 
  19:src/../h/riscv.hpp ****     static void supervisorTrap();
  20:src/../h/riscv.hpp ****     static void interruptHandler();
  21:src/../h/riscv.hpp ****     static void push();
  22:src/../h/riscv.hpp ****     static void pop();
  23:src/../h/riscv.hpp **** 
  24:src/../h/riscv.hpp ****     static void popSppSpie();
  25:src/../h/riscv.hpp **** 
  26:src/../h/riscv.hpp ****     static uint64 readScause();
  27:src/../h/riscv.hpp ****     static void writeScause(uint64 scause);
  28:src/../h/riscv.hpp ****     static uint64 readSepc();
  29:src/../h/riscv.hpp ****     static void writeSepc(uint64 sepc);
  30:src/../h/riscv.hpp ****     static uint64 readStvec();
  31:src/../h/riscv.hpp ****     static void writeStvec(uint64 stvec);
  32:src/../h/riscv.hpp **** 
  33:src/../h/riscv.hpp ****     enum bitmaskSip{
  34:src/../h/riscv.hpp ****         SSIP = (1 << 1),
  35:src/../h/riscv.hpp ****         SEIP = (1 << 9)
  36:src/../h/riscv.hpp ****     };
  37:src/../h/riscv.hpp **** 
  38:src/../h/riscv.hpp ****     static void setSip(uint64 mask);
  39:src/../h/riscv.hpp ****     static void clearSip(uint64 mask);
  40:src/../h/riscv.hpp ****     static uint64 readSip();
  41:src/../h/riscv.hpp ****     static void writeSip(uint64 sip);
  42:src/../h/riscv.hpp **** 
  43:src/../h/riscv.hpp ****     enum bitmaskSstatus{
  44:src/../h/riscv.hpp ****         SIE = (1 << 1),
  45:src/../h/riscv.hpp ****         SPIE = (1 << 5),
  46:src/../h/riscv.hpp ****         SPP = (1 << 8)
  47:src/../h/riscv.hpp ****     };
GAS LISTING /tmp/ccau0dhu.s 			page 6


  48:src/../h/riscv.hpp **** 
  49:src/../h/riscv.hpp ****     static void setSstatus(uint64 mask);
  50:src/../h/riscv.hpp ****     static void clearSstatus(uint64 mask);
  51:src/../h/riscv.hpp ****     static uint64 readSstatus();
  52:src/../h/riscv.hpp ****     static void writeSstatus(uint64 sstatus);
  53:src/../h/riscv.hpp **** };
  54:src/../h/riscv.hpp **** 
  55:src/../h/riscv.hpp **** inline uint64 Riscv::readScause() {
  56:src/../h/riscv.hpp ****     uint64 volatile value;
  57:src/../h/riscv.hpp ****     __asm__ volatile ("csrr %0, scause" : "=r"(value));
  58:src/../h/riscv.hpp ****     return value;
  59:src/../h/riscv.hpp **** }
  60:src/../h/riscv.hpp **** 
  61:src/../h/riscv.hpp **** inline void Riscv::writeScause(uint64 value) {
  62:src/../h/riscv.hpp ****     __asm__ volatile ("csrw scause, %0" : : "r"(value));
  63:src/../h/riscv.hpp **** }
  64:src/../h/riscv.hpp **** 
  65:src/../h/riscv.hpp **** inline uint64 Riscv::readSepc() {
  66:src/../h/riscv.hpp ****     uint64 volatile value;
  67:src/../h/riscv.hpp ****     __asm__ volatile ("csrr %0, sepc" : "=r"(value));
  68:src/../h/riscv.hpp ****     return value;
  69:src/../h/riscv.hpp **** }
  70:src/../h/riscv.hpp **** 
  71:src/../h/riscv.hpp **** inline void Riscv::writeSepc(uint64 value) {
  72:src/../h/riscv.hpp ****     __asm__ volatile ("csrw sepc, %0" : : "r"(value));
  73:src/../h/riscv.hpp **** }
  74:src/../h/riscv.hpp **** 
  75:src/../h/riscv.hpp **** inline uint64 Riscv::readStvec() {
  76:src/../h/riscv.hpp ****     uint64 volatile value;
  77:src/../h/riscv.hpp ****     __asm__ volatile ("csrr %0, stvec" : "=r"(value));
  78:src/../h/riscv.hpp ****     return value;
  79:src/../h/riscv.hpp **** }
  80:src/../h/riscv.hpp **** 
  81:src/../h/riscv.hpp **** inline void Riscv::writeStvec(uint64 value) {
  82:src/../h/riscv.hpp ****     __asm__ volatile ("csrw stvec, %0" : : "r"(value));
 203              		.loc 2 82 5 is_stmt 1
 204              		.loc 2 82 55 is_stmt 0
 205              	#APP
 206              	# 82 "src/../h/riscv.hpp" 1
  83              	}
 207              		csrw stvec, a5
 208              	# 0 "" 2
 209              	.LVL20:
 210              	#NO_APP
 211              	.LBE8:
 212              	.LBE7:
  32:src/main.cpp  ****     MemoryAllocator::init();
 213              		.loc 1 32 5 is_stmt 1
 214              		.loc 1 32 26 is_stmt 0
 215 0110 97000000 		call	_ZN15MemoryAllocator4initEv@plt
 215      E7800000 
 216              	.LVL21:
  33:src/main.cpp  **** 
  34:src/main.cpp  ****     thread_create(&threads[0], nullptr, nullptr); // main
 217              		.loc 1 34 5 is_stmt 1
 218              		.loc 1 34 18 is_stmt 0
 219 0118 97040000 		lla	s1,.LANCHOR0
GAS LISTING /tmp/ccau0dhu.s 			page 7


 219      93840400 
 220 0120 13060000 		li	a2,0
 221 0124 93050000 		li	a1,0
 222 0128 13850400 		mv	a0,s1
 223 012c 97000000 		call	_Z13thread_createPP3TCBPFvPvES2_@plt
 223      E7800000 
 224              	.LVL22:
  35:src/main.cpp  **** 
  36:src/main.cpp  ****     TCB::running = threads[0];
 225              		.loc 1 36 5 is_stmt 1
 226              		.loc 1 36 29 is_stmt 0
 227 0134 03B70400 		ld	a4,0(s1)
 228              		.loc 1 36 18
 229 0138 97070000 		la	a5,_ZN3TCB7runningE
 229      83B70700 
 230 0140 23B0E700 		sd	a4,0(a5)
  37:src/main.cpp  **** 
  38:src/main.cpp  ****     thread_create(&threads[1], &workerA, nullptr);
 231              		.loc 1 38 5 is_stmt 1
 232              		.loc 1 38 18 is_stmt 0
 233 0144 13060000 		li	a2,0
 234 0148 97050000 		lla	a1,_Z7workerAPv
 234      93850500 
 235 0150 17050000 		lla	a0,.LANCHOR0+8
 235      13050500 
 236 0158 97000000 		call	_Z13thread_createPP3TCBPFvPvES2_@plt
 236      E7800000 
 237              	.LVL23:
  39:src/main.cpp  ****     thread_create(&threads[2], &workerB, nullptr);
 238              		.loc 1 39 5 is_stmt 1
 239              		.loc 1 39 18 is_stmt 0
 240 0160 13060000 		li	a2,0
 241 0164 97050000 		lla	a1,_Z7workerBPv
 241      93850500 
 242 016c 17050000 		lla	a0,.LANCHOR0+16
 242      13050500 
 243 0174 97000000 		call	_Z13thread_createPP3TCBPFvPvES2_@plt
 243      E7800000 
 244              	.LVL24:
  40:src/main.cpp  ****     thread_create(&threads[3], &workerC, nullptr);
 245              		.loc 1 40 5 is_stmt 1
 246              		.loc 1 40 18 is_stmt 0
 247 017c 13060000 		li	a2,0
 248 0180 97050000 		lla	a1,_Z7workerCPv
 248      93850500 
 249 0188 17050000 		lla	a0,.LANCHOR0+24
 249      13050500 
 250 0190 97000000 		call	_Z13thread_createPP3TCBPFvPvES2_@plt
 250      E7800000 
 251              	.LVL25:
 252              	.L16:
  41:src/main.cpp  **** 
  42:src/main.cpp  ****     while(1){
 253              		.loc 1 42 5 is_stmt 1 discriminator 1
  43:src/main.cpp  ****         putc('M');
 254              		.loc 1 43 9 discriminator 1
 255              		.loc 1 43 13 is_stmt 0 discriminator 1
GAS LISTING /tmp/ccau0dhu.s 			page 8


 256 0198 1305D004 		li	a0,77
 257 019c 97000000 		call	_Z4putcc@plt
 257      E7800000 
 258              	.LVL26:
  44:src/main.cpp  ****         thread_dispatch();
 259              		.loc 1 44 9 is_stmt 1 discriminator 1
 260              		.loc 1 44 24 is_stmt 0 discriminator 1
 261 01a4 97000000 		call	_Z15thread_dispatchv@plt
 261      E7800000 
 262              	.LVL27:
  42:src/main.cpp  ****         putc('M');
 263              		.loc 1 42 5 is_stmt 1 discriminator 1
 264 01ac 6FF0DFFE 		j	.L16
 265              		.cfi_endproc
 266              	.LFE24:
 268              		.globl	threads
 269              		.bss
 270              		.align	3
 271              		.set	.LANCHOR0,. + 0
 274              	threads:
 275 0000 00000000 		.zero	40
 275      00000000 
 275      00000000 
 275      00000000 
 275      00000000 
 276              		.text
 277              	.Letext0:
 278              		.file 3 "src/../lib/hw.h"
 279              		.file 4 "src/../h/memoryAllocator.hpp"
 280              		.file 5 "src/../h/../h/syscallC.hpp"
 281              		.file 6 "src/../h/tcb.hpp"
GAS LISTING /tmp/ccau0dhu.s 			page 9


DEFINED SYMBOLS
                            *ABS*:0000000000000000 main.cpp
     /tmp/ccau0dhu.s:9      .text:0000000000000000 _Z7workerAPv
     /tmp/ccau0dhu.s:13     .text:0000000000000000 .L0 
     /tmp/ccau0dhu.s:14     .text:0000000000000000 .L0 
     /tmp/ccau0dhu.s:15     .text:0000000000000004 .L0 
     /tmp/ccau0dhu.s:19     .text:0000000000000010 .L0 
     /tmp/ccau0dhu.s:20     .text:0000000000000010 .L0 
     /tmp/ccau0dhu.s:21     .text:0000000000000010 .L0 
     /tmp/ccau0dhu.s:23     .text:0000000000000014 .L0 
     /tmp/ccau0dhu.s:27     .text:0000000000000014 .L0 
     /tmp/ccau0dhu.s:28     .text:0000000000000014 .L0 
     /tmp/ccau0dhu.s:33     .text:000000000000001c .L0 
     /tmp/ccau0dhu.s:34     .text:000000000000001c .L0 
     /tmp/ccau0dhu.s:38     .text:0000000000000028 .L0 
     /tmp/ccau0dhu.s:39     .text:0000000000000028 .L0 
     /tmp/ccau0dhu.s:42     .text:0000000000000030 .L0 
     /tmp/ccau0dhu.s:46     .text:0000000000000034 .L0 
     /tmp/ccau0dhu.s:50     .text:000000000000003c .L0 
     /tmp/ccau0dhu.s:51     .text:0000000000000040 .L0 
     /tmp/ccau0dhu.s:53     .text:0000000000000044 .L0 
     /tmp/ccau0dhu.s:54     .text:0000000000000044 .L0 
     /tmp/ccau0dhu.s:56     .text:0000000000000048 .L0 
     /tmp/ccau0dhu.s:59     .text:000000000000004c .L0 
     /tmp/ccau0dhu.s:61     .text:0000000000000050 .L0 
     /tmp/ccau0dhu.s:67     .text:0000000000000050 _Z7workerBPv
     /tmp/ccau0dhu.s:70     .text:0000000000000050 .L0 
     /tmp/ccau0dhu.s:71     .text:0000000000000050 .L0 
     /tmp/ccau0dhu.s:72     .text:0000000000000054 .L0 
     /tmp/ccau0dhu.s:76     .text:0000000000000060 .L0 
     /tmp/ccau0dhu.s:77     .text:0000000000000060 .L0 
     /tmp/ccau0dhu.s:78     .text:0000000000000060 .L0 
     /tmp/ccau0dhu.s:80     .text:0000000000000064 .L0 
     /tmp/ccau0dhu.s:84     .text:0000000000000064 .L0 
     /tmp/ccau0dhu.s:85     .text:0000000000000064 .L0 
     /tmp/ccau0dhu.s:90     .text:000000000000006c .L0 
     /tmp/ccau0dhu.s:91     .text:000000000000006c .L0 
     /tmp/ccau0dhu.s:95     .text:0000000000000078 .L0 
     /tmp/ccau0dhu.s:96     .text:0000000000000078 .L0 
     /tmp/ccau0dhu.s:99     .text:0000000000000080 .L0 
     /tmp/ccau0dhu.s:103    .text:0000000000000084 .L0 
     /tmp/ccau0dhu.s:107    .text:000000000000008c .L0 
     /tmp/ccau0dhu.s:108    .text:0000000000000090 .L0 
     /tmp/ccau0dhu.s:110    .text:0000000000000094 .L0 
     /tmp/ccau0dhu.s:111    .text:0000000000000094 .L0 
     /tmp/ccau0dhu.s:113    .text:0000000000000098 .L0 
     /tmp/ccau0dhu.s:116    .text:000000000000009c .L0 
     /tmp/ccau0dhu.s:118    .text:00000000000000a0 .L0 
     /tmp/ccau0dhu.s:124    .text:00000000000000a0 _Z7workerCPv
     /tmp/ccau0dhu.s:127    .text:00000000000000a0 .L0 
     /tmp/ccau0dhu.s:128    .text:00000000000000a0 .L0 
     /tmp/ccau0dhu.s:129    .text:00000000000000a4 .L0 
     /tmp/ccau0dhu.s:133    .text:00000000000000b0 .L0 
     /tmp/ccau0dhu.s:134    .text:00000000000000b0 .L0 
     /tmp/ccau0dhu.s:135    .text:00000000000000b0 .L0 
     /tmp/ccau0dhu.s:137    .text:00000000000000b4 .L0 
     /tmp/ccau0dhu.s:141    .text:00000000000000b4 .L0 
GAS LISTING /tmp/ccau0dhu.s 			page 10


     /tmp/ccau0dhu.s:142    .text:00000000000000b4 .L0 
     /tmp/ccau0dhu.s:146    .text:00000000000000b8 .L0 
     /tmp/ccau0dhu.s:149    .text:00000000000000c0 .L0 
     /tmp/ccau0dhu.s:150    .text:00000000000000c0 .L0 
     /tmp/ccau0dhu.s:154    .text:00000000000000cc .L0 
     /tmp/ccau0dhu.s:155    .text:00000000000000cc .L0 
     /tmp/ccau0dhu.s:158    .text:00000000000000d4 .L0 
     /tmp/ccau0dhu.s:165    .text:00000000000000dc .L0 
     /tmp/ccau0dhu.s:166    .text:00000000000000e0 .L0 
     /tmp/ccau0dhu.s:168    .text:00000000000000e4 .L0 
     /tmp/ccau0dhu.s:169    .text:00000000000000e4 .L0 
     /tmp/ccau0dhu.s:171    .text:00000000000000e8 .L0 
     /tmp/ccau0dhu.s:174    .text:00000000000000ec .L0 
     /tmp/ccau0dhu.s:176    .text:00000000000000f0 .L0 
     /tmp/ccau0dhu.s:182    .text:00000000000000f0 main
     /tmp/ccau0dhu.s:185    .text:00000000000000f0 .L0 
     /tmp/ccau0dhu.s:186    .text:00000000000000f0 .L0 
     /tmp/ccau0dhu.s:187    .text:00000000000000f4 .L0 
     /tmp/ccau0dhu.s:191    .text:0000000000000100 .L0 
     /tmp/ccau0dhu.s:192    .text:0000000000000100 .L0 
     /tmp/ccau0dhu.s:193    .text:0000000000000100 .L0 
     /tmp/ccau0dhu.s:195    .text:0000000000000104 .L0 
     /tmp/ccau0dhu.s:197    .text:0000000000000104 .L0 
     /tmp/ccau0dhu.s:198    .text:0000000000000104 .L0 
     /tmp/ccau0dhu.s:204    .text:000000000000010c .L0 
  src/../h/riscv.hpp:82     .text:000000000000010c .L0 
     /tmp/ccau0dhu.s:214    .text:0000000000000110 .L0 
     /tmp/ccau0dhu.s:215    .text:0000000000000110 .L0 
     /tmp/ccau0dhu.s:218    .text:0000000000000118 .L0 
     /tmp/ccau0dhu.s:219    .text:0000000000000118 .L0 
     /tmp/ccau0dhu.s:226    .text:0000000000000134 .L0 
     /tmp/ccau0dhu.s:227    .text:0000000000000134 .L0 
     /tmp/ccau0dhu.s:229    .text:0000000000000138 .L0 
     /tmp/ccau0dhu.s:232    .text:0000000000000144 .L0 
     /tmp/ccau0dhu.s:233    .text:0000000000000144 .L0 
     /tmp/ccau0dhu.s:239    .text:0000000000000160 .L0 
     /tmp/ccau0dhu.s:240    .text:0000000000000160 .L0 
     /tmp/ccau0dhu.s:246    .text:000000000000017c .L0 
     /tmp/ccau0dhu.s:247    .text:000000000000017c .L0 
     /tmp/ccau0dhu.s:254    .text:0000000000000198 .L0 
     /tmp/ccau0dhu.s:255    .text:0000000000000198 .L0 
     /tmp/ccau0dhu.s:256    .text:0000000000000198 .L0 
     /tmp/ccau0dhu.s:260    .text:00000000000001a4 .L0 
     /tmp/ccau0dhu.s:261    .text:00000000000001a4 .L0 
     /tmp/ccau0dhu.s:264    .text:00000000000001ac .L0 
     /tmp/ccau0dhu.s:265    .text:00000000000001b0 .L0 
     /tmp/ccau0dhu.s:274    .bss:0000000000000000 threads
     /tmp/ccau0dhu.s:271    .bss:0000000000000000 .LANCHOR0
     /tmp/ccau0dhu.s:282    .text:00000000000001b0 .L0 
     /tmp/ccau0dhu.s:198    .text:0000000000000104 .L0 
     /tmp/ccau0dhu.s:219    .text:0000000000000118 .L0 
     /tmp/ccau0dhu.s:229    .text:0000000000000138 .L0 
     /tmp/ccau0dhu.s:234    .text:0000000000000148 .L0 
     /tmp/ccau0dhu.s:235    .text:0000000000000150 .L0 
     /tmp/ccau0dhu.s:241    .text:0000000000000164 .L0 
     /tmp/ccau0dhu.s:242    .text:000000000000016c .L0 
     /tmp/ccau0dhu.s:248    .text:0000000000000180 .L0 
GAS LISTING /tmp/ccau0dhu.s 			page 11


     /tmp/ccau0dhu.s:249    .text:0000000000000188 .L0 
     /tmp/ccau0dhu.s:44     .text:0000000000000034 .L3
     /tmp/ccau0dhu.s:31     .text:000000000000001c .L5
     /tmp/ccau0dhu.s:101    .text:0000000000000084 .L8
     /tmp/ccau0dhu.s:88     .text:000000000000006c .L10
     /tmp/ccau0dhu.s:162    .text:00000000000000dc .L11
     /tmp/ccau0dhu.s:144    .text:00000000000000b8 .L13
     /tmp/ccau0dhu.s:252    .text:0000000000000198 .L16
     /tmp/ccau0dhu.s:1462   .debug_abbrev:0000000000000000 .Ldebug_abbrev0
     /tmp/ccau0dhu.s:2678   .debug_str:000000000000073d .LASF138
     /tmp/ccau0dhu.s:2546   .debug_str:000000000000033b .LASF139
     /tmp/ccau0dhu.s:2482   .debug_str:0000000000000143 .LASF140
     /tmp/ccau0dhu.s:5      .text:0000000000000000 .Ltext0
     /tmp/ccau0dhu.s:277    .text:00000000000001b0 .Letext0
     /tmp/ccau0dhu.s:2430   .debug_line:0000000000000000 .Ldebug_line0
     /tmp/ccau0dhu.s:2588   .debug_str:00000000000004b9 .LASF0
     /tmp/ccau0dhu.s:2608   .debug_str:0000000000000539 .LASF1
     /tmp/ccau0dhu.s:2566   .debug_str:0000000000000409 .LASF2
     /tmp/ccau0dhu.s:2530   .debug_str:00000000000002f4 .LASF4
     /tmp/ccau0dhu.s:2654   .debug_str:0000000000000674 .LASF3
     /tmp/ccau0dhu.s:2460   .debug_str:00000000000000a3 .LASF5
     /tmp/ccau0dhu.s:2612   .debug_str:0000000000000562 .LASF6
     /tmp/ccau0dhu.s:2586   .debug_str:00000000000004a6 .LASF7
     /tmp/ccau0dhu.s:2694   .debug_str:0000000000000873 .LASF8
     /tmp/ccau0dhu.s:2518   .debug_str:000000000000026e .LASF9
     /tmp/ccau0dhu.s:2624   .debug_str:00000000000005ba .LASF10
     /tmp/ccau0dhu.s:2680   .debug_str:0000000000000801 .LASF11
     /tmp/ccau0dhu.s:2464   .debug_str:00000000000000c2 .LASF12
     /tmp/ccau0dhu.s:2442   .debug_str:0000000000000026 .LASF13
     /tmp/ccau0dhu.s:2476   .debug_str:0000000000000116 .LASF14
     /tmp/ccau0dhu.s:2646   .debug_str:0000000000000637 .LASF15
     /tmp/ccau0dhu.s:2484   .debug_str:0000000000000166 .LASF16
     /tmp/ccau0dhu.s:2564   .debug_str:00000000000003f9 .LASF28
     /tmp/ccau0dhu.s:2730   .debug_str:0000000000000960 .LASF47
     /tmp/ccau0dhu.s:2672   .debug_str:000000000000070f .LASF17
     /tmp/ccau0dhu.s:2728   .debug_str:000000000000095b .LASF18
     /tmp/ccau0dhu.s:2710   .debug_str:00000000000008ef .LASF19
     /tmp/ccau0dhu.s:2614   .debug_str:0000000000000575 .LASF24
     /tmp/ccau0dhu.s:2676   .debug_str:0000000000000721 .LASF26
     /tmp/ccau0dhu.s:2658   .debug_str:000000000000068e .LASF20
     /tmp/ccau0dhu.s:2668   .debug_str:00000000000006d6 .LASF22
     /tmp/ccau0dhu.s:2630   .debug_str:00000000000005d8 .LASF21
     /tmp/ccau0dhu.s:2516   .debug_str:000000000000024d .LASF23
     /tmp/ccau0dhu.s:2690   .debug_str:000000000000084e .LASF56
     /tmp/ccau0dhu.s:2578   .debug_str:0000000000000464 .LASF141
     /tmp/ccau0dhu.s:2548   .debug_str:0000000000000348 .LASF142
     /tmp/ccau0dhu.s:2542   .debug_str:0000000000000328 .LASF25
     /tmp/ccau0dhu.s:2600   .debug_str:00000000000004fb .LASF27
     /tmp/ccau0dhu.s:2712   .debug_str:00000000000008f4 .LASF49
     /tmp/ccau0dhu.s:2496   .debug_str:00000000000001d7 .LASF29
     /tmp/ccau0dhu.s:2570   .debug_str:0000000000000423 .LASF30
     /tmp/ccau0dhu.s:2716   .debug_str:000000000000090a .LASF31
     /tmp/ccau0dhu.s:2720   .debug_str:000000000000092b .LASF32
     /tmp/ccau0dhu.s:2504   .debug_str:0000000000000212 .LASF78
     /tmp/ccau0dhu.s:2550   .debug_str:0000000000000364 .LASF80
     /tmp/ccau0dhu.s:2508   .debug_str:000000000000022f .LASF33
     /tmp/ccau0dhu.s:2662   .debug_str:00000000000006a1 .LASF34
GAS LISTING /tmp/ccau0dhu.s 			page 12


     /tmp/ccau0dhu.s:2636   .debug_str:0000000000000601 .LASF35
     /tmp/ccau0dhu.s:2594   .debug_str:00000000000004d5 .LASF36
     /tmp/ccau0dhu.s:2502   .debug_str:0000000000000206 .LASF37
     /tmp/ccau0dhu.s:2478   .debug_str:0000000000000122 .LASF38
     /tmp/ccau0dhu.s:2692   .debug_str:000000000000086a .LASF39
     /tmp/ccau0dhu.s:2544   .debug_str:0000000000000331 .LASF40
     /tmp/ccau0dhu.s:2660   .debug_str:0000000000000698 .LASF41
     /tmp/ccau0dhu.s:2466   .debug_str:00000000000000d2 .LASF42
     /tmp/ccau0dhu.s:2696   .debug_str:0000000000000883 .LASF43
     /tmp/ccau0dhu.s:2452   .debug_str:000000000000006e .LASF44
     /tmp/ccau0dhu.s:2724   .debug_str:000000000000094e .LASF45
     /tmp/ccau0dhu.s:2432   .debug_str:0000000000000000 .LASF46
     /tmp/ccau0dhu.s:2448   .debug_str:0000000000000059 .LASF48
     /tmp/ccau0dhu.s:2604   .debug_str:000000000000052b .LASF50
     /tmp/ccau0dhu.s:2446   .debug_str:000000000000004c .LASF51
     /tmp/ccau0dhu.s:2494   .debug_str:00000000000001b0 .LASF52
     /tmp/ccau0dhu.s:2714   .debug_str:00000000000008ff .LASF95
     /tmp/ccau0dhu.s:2520   .debug_str:000000000000027c .LASF97
     /tmp/ccau0dhu.s:2590   .debug_str:00000000000004c6 .LASF53
     /tmp/ccau0dhu.s:2506   .debug_str:000000000000021c .LASF54
     /tmp/ccau0dhu.s:2648   .debug_str:000000000000064d .LASF68
     /tmp/ccau0dhu.s:2470   .debug_str:00000000000000e6 .LASF70
     /tmp/ccau0dhu.s:2616   .debug_str:000000000000057a .LASF55
     /tmp/ccau0dhu.s:2652   .debug_str:000000000000065d .LASF57
     /tmp/ccau0dhu.s:2568   .debug_str:0000000000000417 .LASF58
     /tmp/ccau0dhu.s:2556   .debug_str:00000000000003b3 .LASF59
     /tmp/ccau0dhu.s:2700   .debug_str:00000000000008a4 .LASF60
     /tmp/ccau0dhu.s:2444   .debug_str:0000000000000036 .LASF61
     /tmp/ccau0dhu.s:2534   .debug_str:0000000000000307 .LASF62
     /tmp/ccau0dhu.s:2610   .debug_str:000000000000054c .LASF63
     /tmp/ccau0dhu.s:2500   .debug_str:0000000000000201 .LASF64
     /tmp/ccau0dhu.s:2632   .debug_str:00000000000005e1 .LASF65
     /tmp/ccau0dhu.s:2704   .debug_str:00000000000008bd .LASF66
     /tmp/ccau0dhu.s:2456   .debug_str:000000000000007e .LASF67
     /tmp/ccau0dhu.s:2486   .debug_str:000000000000017c .LASF69
     /tmp/ccau0dhu.s:2638   .debug_str:000000000000060a .LASF71
     /tmp/ccau0dhu.s:2722   .debug_str:0000000000000937 .LASF143
     /tmp/ccau0dhu.s:2688   .debug_str:0000000000000845 .LASF72
     /tmp/ccau0dhu.s:2512   .debug_str:000000000000023d .LASF73
     /tmp/ccau0dhu.s:2592   .debug_str:00000000000004cf .LASF74
     /tmp/ccau0dhu.s:2540   .debug_str:0000000000000320 .LASF75
     /tmp/ccau0dhu.s:2536   .debug_str:0000000000000312 .LASF76
     /tmp/ccau0dhu.s:2434   .debug_str:0000000000000009 .LASF77
     /tmp/ccau0dhu.s:2552   .debug_str:0000000000000390 .LASF144
     /tmp/ccau0dhu.s:2526   .debug_str:00000000000002b3 .LASF145
     /tmp/ccau0dhu.s:2702   .debug_str:00000000000008af .LASF79
     /tmp/ccau0dhu.s:2528   .debug_str:00000000000002cc .LASF81
     /tmp/ccau0dhu.s:2490   .debug_str:000000000000019a .LASF82
     /tmp/ccau0dhu.s:2468   .debug_str:00000000000000dd .LASF83
     /tmp/ccau0dhu.s:2656   .debug_str:0000000000000686 .LASF84
     /tmp/ccau0dhu.s:2598   .debug_str:00000000000004f3 .LASF85
     /tmp/ccau0dhu.s:2606   .debug_str:0000000000000533 .LASF86
     /tmp/ccau0dhu.s:2558   .debug_str:00000000000003ca .LASF87
     /tmp/ccau0dhu.s:2706   .debug_str:00000000000008ca .LASF88
     /tmp/ccau0dhu.s:2480   .debug_str:0000000000000132 .LASF89
     /tmp/ccau0dhu.s:2580   .debug_str:000000000000046e .LASF90
     /tmp/ccau0dhu.s:2436   .debug_str:0000000000000011 .LASF91
GAS LISTING /tmp/ccau0dhu.s 			page 13


     /tmp/ccau0dhu.s:2498   .debug_str:00000000000001f0 .LASF92
     /tmp/ccau0dhu.s:2602   .debug_str:000000000000051b .LASF146
     /tmp/ccau0dhu.s:2642   .debug_str:0000000000000620 .LASF93
     /tmp/ccau0dhu.s:2718   .debug_str:0000000000000913 .LASF94
     /tmp/ccau0dhu.s:2454   .debug_str:0000000000000073 .LASF96
     /tmp/ccau0dhu.s:2560   .debug_str:00000000000003d9 .LASF98
     /tmp/ccau0dhu.s:2644   .debug_str:000000000000062b .LASF99
     /tmp/ccau0dhu.s:2458   .debug_str:000000000000008a .LASF100
     /tmp/ccau0dhu.s:2628   .debug_str:00000000000005cf .LASF101
     /tmp/ccau0dhu.s:2554   .debug_str:000000000000039e .LASF102
     /tmp/ccau0dhu.s:2666   .debug_str:00000000000006cc .LASF103
     /tmp/ccau0dhu.s:2472   .debug_str:00000000000000fb .LASF104
     /tmp/ccau0dhu.s:2650   .debug_str:0000000000000653 .LASF105
     /tmp/ccau0dhu.s:2524   .debug_str:000000000000029d .LASF106
     /tmp/ccau0dhu.s:2522   .debug_str:0000000000000292 .LASF107
     /tmp/ccau0dhu.s:2670   .debug_str:00000000000006f7 .LASF108
     /tmp/ccau0dhu.s:2582   .debug_str:000000000000048c .LASF109
     /tmp/ccau0dhu.s:2584   .debug_str:0000000000000493 .LASF110
     /tmp/ccau0dhu.s:2640   .debug_str:0000000000000617 .LASF111
     /tmp/ccau0dhu.s:2698   .debug_str:000000000000088f .LASF112
     /tmp/ccau0dhu.s:2726   .debug_str:0000000000000953 .LASF113
     /tmp/ccau0dhu.s:2634   .debug_str:00000000000005ed .LASF114
     /tmp/ccau0dhu.s:2708   .debug_str:00000000000008e6 .LASF115
     /tmp/ccau0dhu.s:2686   .debug_str:0000000000000830 .LASF116
     /tmp/ccau0dhu.s:2682   .debug_str:0000000000000810 .LASF117
     /tmp/ccau0dhu.s:2462   .debug_str:00000000000000aa .LASF118
     /tmp/ccau0dhu.s:2674   .debug_str:0000000000000714 .LASF119
     /tmp/ccau0dhu.s:2620   .debug_str:0000000000000593 .LASF120
     /tmp/ccau0dhu.s:2532   .debug_str:00000000000002fb .LASF121
     /tmp/ccau0dhu.s:2576   .debug_str:000000000000044b .LASF122
     /tmp/ccau0dhu.s:2618   .debug_str:0000000000000586 .LASF147
     /tmp/ccau0dhu.s:2572   .debug_str:000000000000042c .LASF148
     /tmp/ccau0dhu.s:2538   .debug_str:000000000000031b .LASF123
     /tmp/ccau0dhu.s:2514   .debug_str:0000000000000245 .LASF124
     /tmp/ccau0dhu.s:2474   .debug_str:0000000000000111 .LASF125
     /tmp/ccau0dhu.s:183    .text:00000000000000f0 .LFB24
     /tmp/ccau0dhu.s:266    .text:00000000000001b0 .LFE24
     /tmp/ccau0dhu.s:200    .text:000000000000010c .LBB7
     /tmp/ccau0dhu.s:212    .text:0000000000000110 .LBE7
     /tmp/ccau0dhu.s:216    .text:0000000000000118 .LVL21
     /tmp/ccau0dhu.s:224    .text:0000000000000134 .LVL22
     /tmp/ccau0dhu.s:237    .text:0000000000000160 .LVL23
     /tmp/ccau0dhu.s:244    .text:000000000000017c .LVL24
     /tmp/ccau0dhu.s:251    .text:0000000000000198 .LVL25
     /tmp/ccau0dhu.s:258    .text:00000000000001a4 .LVL26
     /tmp/ccau0dhu.s:262    .text:00000000000001ac .LVL27
     /tmp/ccau0dhu.s:2562   .debug_str:00000000000003f1 .LASF126
     /tmp/ccau0dhu.s:2450   .debug_str:0000000000000061 .LASF127
     /tmp/ccau0dhu.s:125    .text:00000000000000a0 .LFB23
     /tmp/ccau0dhu.s:177    .text:00000000000000f0 .LFE23
     /tmp/ccau0dhu.s:140    .text:00000000000000b4 .LBB6
     /tmp/ccau0dhu.s:163    .text:00000000000000dc .LBE6
     /tmp/ccau0dhu.s:2377   .debug_loc:0000000000000000 .LLST2
     /tmp/ccau0dhu.s:152    .text:00000000000000cc .LVL14
     /tmp/ccau0dhu.s:156    .text:00000000000000d4 .LVL15
     /tmp/ccau0dhu.s:2440   .debug_str:000000000000001e .LASF128
     /tmp/ccau0dhu.s:2622   .debug_str:00000000000005ad .LASF129
GAS LISTING /tmp/ccau0dhu.s 			page 14


     /tmp/ccau0dhu.s:68     .text:0000000000000050 .LFB22
     /tmp/ccau0dhu.s:119    .text:00000000000000a0 .LFE22
     /tmp/ccau0dhu.s:83     .text:0000000000000064 .LBB5
     /tmp/ccau0dhu.s:105    .text:000000000000008c .LBE5
     /tmp/ccau0dhu.s:2393   .debug_loc:000000000000004a .LLST1
     /tmp/ccau0dhu.s:93     .text:0000000000000078 .LVL8
     /tmp/ccau0dhu.s:97     .text:0000000000000080 .LVL9
     /tmp/ccau0dhu.s:2438   .debug_str:0000000000000016 .LASF130
     /tmp/ccau0dhu.s:2492   .debug_str:00000000000001a3 .LASF131
     /tmp/ccau0dhu.s:10     .text:0000000000000000 .LFB21
     /tmp/ccau0dhu.s:62     .text:0000000000000050 .LFE21
     /tmp/ccau0dhu.s:26     .text:0000000000000014 .LBB4
     /tmp/ccau0dhu.s:48     .text:000000000000003c .LBE4
     /tmp/ccau0dhu.s:2405   .debug_loc:0000000000000081 .LLST0
     /tmp/ccau0dhu.s:36     .text:0000000000000028 .LVL2
     /tmp/ccau0dhu.s:40     .text:0000000000000030 .LVL3
     /tmp/ccau0dhu.s:2626   .debug_str:00000000000005c9 .LASF149
     /tmp/ccau0dhu.s:2664   .debug_str:00000000000006ab .LASF132
     /tmp/ccau0dhu.s:2488   .debug_str:000000000000018c .LASF134
     /tmp/ccau0dhu.s:2510   .debug_str:0000000000000234 .LASF133
     /tmp/ccau0dhu.s:2574   .debug_str:0000000000000446 .LASF135
     /tmp/ccau0dhu.s:2684   .debug_str:000000000000081b .LASF136
     /tmp/ccau0dhu.s:2596   .debug_str:00000000000004e3 .LASF137
     /tmp/ccau0dhu.s:139    .text:00000000000000b4 .LVL12
     /tmp/ccau0dhu.s:143    .text:00000000000000b8 .LVL13
     /tmp/ccau0dhu.s:159    .text:00000000000000d8 .LVL16
     /tmp/ccau0dhu.s:161    .text:00000000000000dc .LVL17
     /tmp/ccau0dhu.s:172    .text:00000000000000e8 .LVL18
     /tmp/ccau0dhu.s:82     .text:0000000000000064 .LVL6
     /tmp/ccau0dhu.s:87     .text:000000000000006c .LVL7
     /tmp/ccau0dhu.s:114    .text:0000000000000098 .LVL11
     /tmp/ccau0dhu.s:25     .text:0000000000000014 .LVL0
     /tmp/ccau0dhu.s:30     .text:000000000000001c .LVL1
     /tmp/ccau0dhu.s:57     .text:0000000000000048 .LVL5
     /tmp/ccau0dhu.s:283    .debug_info:0000000000000000 .Ldebug_info0

UNDEFINED SYMBOLS
_Z4putcc
_Z15thread_dispatchv
_ZN5Riscv14supervisorTrapEv
_ZN15MemoryAllocator4initEv
_Z13thread_createPP3TCBPFvPvES2_
_ZN3TCB7runningE
