GAS LISTING /tmp/ccwHAveC.s 			page 1


   1              		.file	"memoryAllocator.cpp"
   2              		.option pic
   3              		.option norelax
   4              		.text
   5              	.Ltext0:
   6              		.align	2
   7              		.globl	_Z8printInti
   9              	_Z8printInti:
  10              	.LFB0:
  11              		.file 1 "src/memoryAllocator.cpp"
   1:src/memoryAllocator.cpp **** #include "../lib/hw.h"
   2:src/memoryAllocator.cpp **** #include "../h/memoryAllocator.hpp"
   3:src/memoryAllocator.cpp **** #include "../lib/console.h"
   4:src/memoryAllocator.cpp **** 
   5:src/memoryAllocator.cpp **** MemoryAllocator::DBlock* MemoryAllocator::headFull = nullptr;
   6:src/memoryAllocator.cpp **** MemoryAllocator::DBlock* MemoryAllocator::headFree = nullptr;
   7:src/memoryAllocator.cpp **** bool MemoryAllocator::initialized = false;
   8:src/memoryAllocator.cpp **** 
   9:src/memoryAllocator.cpp **** char digits[] = "0123456789";
  10:src/memoryAllocator.cpp **** 
  11:src/memoryAllocator.cpp **** void printInt(int x)
  12:src/memoryAllocator.cpp **** {
  12              		.loc 1 12 1
  13              		.cfi_startproc
  14              	.LVL0:
  15 0000 130101FD 		addi	sp,sp,-48
  16              		.cfi_def_cfa_offset 48
  17 0004 23341102 		sd	ra,40(sp)
  18 0008 23308102 		sd	s0,32(sp)
  19 000c 233C9100 		sd	s1,24(sp)
  20              		.cfi_offset 1, -8
  21              		.cfi_offset 8, -16
  22              		.cfi_offset 9, -24
  23 0010 13040103 		addi	s0,sp,48
  24              		.cfi_def_cfa 8, 0
  13:src/memoryAllocator.cpp ****     char buf[16];
  25              		.loc 1 13 5
  14:src/memoryAllocator.cpp ****     int i;
  26              		.loc 1 14 5
  15:src/memoryAllocator.cpp **** 
  16:src/memoryAllocator.cpp ****     i = 0;
  27              		.loc 1 16 5
  28              	.LVL1:
  29              		.loc 1 16 7 is_stmt 0
  30 0014 93040000 		li	s1,0
  31              	.LVL2:
  32              	.L2:
  17:src/memoryAllocator.cpp ****     do{
  33              		.loc 1 17 5 is_stmt 1
  18:src/memoryAllocator.cpp ****         buf[i++] = digits[x % 10];
  34              		.loc 1 18 9
  35              		.loc 1 18 29 is_stmt 0
  36 0018 9306A000 		li	a3,10
  37 001c 3B66D502 		remw	a2,a0,a3
  38              	.LVL3:
  39              		.loc 1 18 33
  40 0020 17070000 		lla	a4,.LANCHOR0
GAS LISTING /tmp/ccwHAveC.s 			page 2


  40      13070700 
  41 0028 3307C700 		add	a4,a4,a2
  42 002c 03470700 		lbu	a4,0(a4)
  43              		.loc 1 18 18
  44 0030 130604FE 		addi	a2,s0,-32
  45 0034 B3079600 		add	a5,a2,s1
  46 0038 9B841400 		addiw	s1,s1,1
  47              	.LVL4:
  48 003c 2388E7FE 		sb	a4,-16(a5)
  19:src/memoryAllocator.cpp ****     }while((x /= 10) != 0);
  49              		.loc 1 19 22 is_stmt 1
  50              		.loc 1 19 15 is_stmt 0
  51 0040 3B45D502 		divw	a0,a0,a3
  52              	.LVL5:
  53              		.loc 1 19 22
  54 0044 E31A05FC 		bnez	a0,.L2
  55              	.L4:
  56              	.LVL6:
  20:src/memoryAllocator.cpp **** 
  21:src/memoryAllocator.cpp ****     while(--i >= 0)
  57              		.loc 1 21 5 is_stmt 1
  58              		.loc 1 21 15
  59 0048 9B84F4FF 		addiw	s1,s1,-1
  60              	.LVL7:
  61 004c 63CE0400 		bltz	s1,.L1
  22:src/memoryAllocator.cpp ****         __putc(buf[i]);
  62              		.loc 1 22 9
  63              		.loc 1 22 15 is_stmt 0
  64 0050 930704FE 		addi	a5,s0,-32
  65 0054 B3879700 		add	a5,a5,s1
  66 0058 03C507FF 		lbu	a0,-16(a5)
  67 005c 97000000 		call	__putc@plt
  67      E7800000 
  68              	.LVL8:
  69 0064 6FF05FFE 		j	.L4
  70              	.L1:
  23:src/memoryAllocator.cpp **** }
  71              		.loc 1 23 1
  72 0068 83308102 		ld	ra,40(sp)
  73              		.cfi_restore 1
  74 006c 03340102 		ld	s0,32(sp)
  75              		.cfi_restore 8
  76              		.cfi_def_cfa 2, 48
  77 0070 83348101 		ld	s1,24(sp)
  78              		.cfi_restore 9
  79 0074 13010103 		addi	sp,sp,48
  80              		.cfi_def_cfa_offset 0
  81 0078 67800000 		jr	ra
  82              		.cfi_endproc
  83              	.LFE0:
  85              		.align	2
  86              		.globl	_ZN15MemoryAllocator4initEv
  88              	_ZN15MemoryAllocator4initEv:
  89              	.LFB1:
  24:src/memoryAllocator.cpp **** 
  25:src/memoryAllocator.cpp **** const size_t MemoryAllocator::DBlockSize = sizeof(MemoryAllocator::DBlock);
  26:src/memoryAllocator.cpp **** 
GAS LISTING /tmp/ccwHAveC.s 			page 3


  27:src/memoryAllocator.cpp **** void MemoryAllocator::init(){
  90              		.loc 1 27 29 is_stmt 1
  91              		.cfi_startproc
  92 007c 130101FF 		addi	sp,sp,-16
  93              		.cfi_def_cfa_offset 16
  94 0080 23348100 		sd	s0,8(sp)
  95              		.cfi_offset 8, -8
  96 0084 13040101 		addi	s0,sp,16
  97              		.cfi_def_cfa 8, 0
  28:src/memoryAllocator.cpp ****     if(!initialized){
  98              		.loc 1 28 5
  99              		.loc 1 28 8 is_stmt 0
 100 0088 97070000 		lbu	a5,.LANCHOR1
 100      83C70700 
 101              		.loc 1 28 5
 102 0090 63980704 		bnez	a5,.L6
  29:src/memoryAllocator.cpp ****         headFree=(DBlock*)((char*)HEAP_START_ADDR);
 103              		.loc 1 29 9 is_stmt 1
 104              		.loc 1 29 17 is_stmt 0
 105 0094 97070000 		la	a5,HEAP_START_ADDR
 105      83B70700 
 106 009c 83B60700 		ld	a3,0(a5)
 107 00a0 17070000 		lla	a4,.LANCHOR1
 107      13070700 
 108 00a8 2334D700 		sd	a3,8(a4)
  30:src/memoryAllocator.cpp ****         headFree->size=ROUNDUP((uint64)HEAP_END_ADDR-(uint64)HEAP_START_ADDR+1)/MEM_BLOCK_SIZE-1; /
 109              		.loc 1 30 9 is_stmt 1
 110              		.loc 1 30 24 is_stmt 0
 111 00ac 97070000 		la	a5,HEAP_END_ADDR
 111      83B70700 
 112 00b4 83B70700 		ld	a5,0(a5)
 113 00b8 B387D740 		sub	a5,a5,a3
 114 00bc 93870704 		addi	a5,a5,64
 115              		.loc 1 30 80
 116 00c0 93D76700 		srli	a5,a5,6
 117              		.loc 1 30 95
 118 00c4 9387F7FF 		addi	a5,a5,-1
 119              		.loc 1 30 23
 120 00c8 23B0F600 		sd	a5,0(a3)
  31:src/memoryAllocator.cpp ****         headFree->next = nullptr;
 121              		.loc 1 31 9 is_stmt 1
 122              		.loc 1 31 19 is_stmt 0
 123 00cc 83378700 		ld	a5,8(a4)
 124              		.loc 1 31 24
 125 00d0 23B40700 		sd	zero,8(a5)
  32:src/memoryAllocator.cpp ****         headFree->prev  = nullptr;
 126              		.loc 1 32 9 is_stmt 1
 127              		.loc 1 32 25 is_stmt 0
 128 00d4 23B80700 		sd	zero,16(a5)
  33:src/memoryAllocator.cpp ****         initialized=true;
 129              		.loc 1 33 9 is_stmt 1
 130              		.loc 1 33 20 is_stmt 0
 131 00d8 93071000 		li	a5,1
 132 00dc 2300F700 		sb	a5,0(a4)
 133              	.L6:
  34:src/memoryAllocator.cpp ****     }
  35:src/memoryAllocator.cpp **** }
GAS LISTING /tmp/ccwHAveC.s 			page 4


 134              		.loc 1 35 1
 135 00e0 03348100 		ld	s0,8(sp)
 136              		.cfi_restore 8
 137              		.cfi_def_cfa 2, 16
 138 00e4 13010101 		addi	sp,sp,16
 139              		.cfi_def_cfa_offset 0
 140 00e8 67800000 		jr	ra
 141              		.cfi_endproc
 142              	.LFE1:
 144              		.align	2
 145              		.globl	_ZN15MemoryAllocator9mem_allocEm
 147              	_ZN15MemoryAllocator9mem_allocEm:
 148              	.LFB2:
  36:src/memoryAllocator.cpp **** 
  37:src/memoryAllocator.cpp **** void* MemoryAllocator::mem_alloc(size_t size){ //broj blokova - uracunat header
 149              		.loc 1 37 46 is_stmt 1
 150              		.cfi_startproc
 151              	.LVL9:
 152 00ec 130101FF 		addi	sp,sp,-16
 153              		.cfi_def_cfa_offset 16
 154 00f0 23348100 		sd	s0,8(sp)
 155              		.cfi_offset 8, -8
 156 00f4 13040101 		addi	s0,sp,16
 157              		.cfi_def_cfa 8, 0
  38:src/memoryAllocator.cpp **** 
  39:src/memoryAllocator.cpp ****     if(size <=0 || size>=ROUNDUP((uint64)HEAP_END_ADDR-(uint64)HEAP_START_ADDR)/MEM_BLOCK_SIZE) ret
 158              		.loc 1 39 5
 159 00f8 630E0510 		beqz	a0,.L22
 160 00fc 93070500 		mv	a5,a0
 161              		.loc 1 39 26 is_stmt 0 discriminator 2
 162 0100 17070000 		la	a4,HEAP_END_ADDR
 162      03370700 
 163 0108 03370700 		ld	a4,0(a4)
 164 010c 97060000 		la	a3,HEAP_START_ADDR
 164      83B60600 
 165 0114 83B60600 		ld	a3,0(a3)
 166 0118 3307D740 		sub	a4,a4,a3
 167 011c 1307F703 		addi	a4,a4,63
 168              		.loc 1 39 80 discriminator 2
 169 0120 13576700 		srli	a4,a4,6
 170              		.loc 1 39 17 discriminator 2
 171 0124 637CE50E 		bleu	a4,a0,.L23
  40:src/memoryAllocator.cpp ****     DBlock* curr=nullptr;
 172              		.loc 1 40 5 is_stmt 1
 173              	.LVL10:
  41:src/memoryAllocator.cpp **** 
  42:src/memoryAllocator.cpp ****     for(curr = headFree; curr ; curr=curr->next){ //iteriramo kroz free
 174              		.loc 1 42 5
 175              	.LBB2:
 176              		.loc 1 42 14 is_stmt 0
 177 0128 97060000 		ld	a3,.LANCHOR1+8
 177      83B60600 
 178              	.LVL11:
 179 0130 13850600 		mv	a0,a3
 180              	.LVL12:
 181              	.L12:
 182              		.loc 1 42 26 is_stmt 1 discriminator 1
GAS LISTING /tmp/ccwHAveC.s 			page 5


 183 0134 63020506 		beqz	a0,.L9
 184              	.LBB3:
  43:src/memoryAllocator.cpp **** 
  44:src/memoryAllocator.cpp ****         if(curr->size<size) continue; //nema prostora, idi na sledece
 185              		.loc 1 44 9
 186              		.loc 1 44 18 is_stmt 0
 187 0138 03370500 		ld	a4,0(a0)
 188              		.loc 1 44 9
 189 013c 6364F706 		bltu	a4,a5,.L25
  45:src/memoryAllocator.cpp ****         if(curr->size==size){ //ima tacno onoliko prostora koliki je blok
 190              		.loc 1 45 9 is_stmt 1
 191 0140 6306F706 		beq	a4,a5,.L26
  46:src/memoryAllocator.cpp ****             if(curr->next) curr->next->prev=curr->prev;
  47:src/memoryAllocator.cpp ****             if(curr->prev) curr->prev->next=curr->next; //izbacen iz free liste
  48:src/memoryAllocator.cpp ****             if (curr == headFree) headFree = curr->next;
  49:src/memoryAllocator.cpp ****             curr->prev = curr->next = nullptr;
  50:src/memoryAllocator.cpp **** 
  51:src/memoryAllocator.cpp ****         }
  52:src/memoryAllocator.cpp ****         else{ //slucaj da ima prostora + viska
  53:src/memoryAllocator.cpp ****             curr->size-=size;
 192              		.loc 1 53 13
 193              		.loc 1 53 23 is_stmt 0
 194 0144 3307F740 		sub	a4,a4,a5
 195 0148 2330E500 		sd	a4,0(a0)
  54:src/memoryAllocator.cpp ****             curr=(DBlock*)((char*)curr+(curr->size*MEM_BLOCK_SIZE));
 196              		.loc 1 54 13 is_stmt 1
 197              		.loc 1 54 51 is_stmt 0
 198 014c 13176700 		slli	a4,a4,6
 199              		.loc 1 54 17
 200 0150 3305E500 		add	a0,a0,a4
 201              	.LVL13:
  55:src/memoryAllocator.cpp ****             curr->size=size;
 202              		.loc 1 55 13 is_stmt 1
 203              		.loc 1 55 23 is_stmt 0
 204 0154 2330F500 		sd	a5,0(a0)
  56:src/memoryAllocator.cpp ****             curr->prev=nullptr;
 205              		.loc 1 56 13 is_stmt 1
 206              		.loc 1 56 23 is_stmt 0
 207 0158 23380500 		sd	zero,16(a0)
  57:src/memoryAllocator.cpp ****             curr->next =nullptr;
 208              		.loc 1 57 13 is_stmt 1
 209              		.loc 1 57 24 is_stmt 0
 210 015c 23340500 		sd	zero,8(a0)
 211              	.LVL14:
 212              	.L17:
  58:src/memoryAllocator.cpp **** 
  59:src/memoryAllocator.cpp ****         }
  60:src/memoryAllocator.cpp ****         //ubaci u full listu
  61:src/memoryAllocator.cpp **** 
  62:src/memoryAllocator.cpp ****         if(!headFull){
 213              		.loc 1 62 9 is_stmt 1
 214              		.loc 1 62 12 is_stmt 0
 215 0160 97070000 		ld	a5,.LANCHOR1+16
 215      83B70700 
 216              		.loc 1 62 9
 217 0168 63820708 		beqz	a5,.L27
  63:src/memoryAllocator.cpp ****             headFull=curr;
GAS LISTING /tmp/ccwHAveC.s 			page 6


  64:src/memoryAllocator.cpp ****             return (char*)curr+DBlockSize;
  65:src/memoryAllocator.cpp ****         }
  66:src/memoryAllocator.cpp **** 
  67:src/memoryAllocator.cpp ****         if(headFull>curr) {
 218              		.loc 1 67 9 is_stmt 1
 219 016c 6368F508 		bgtu	a5,a0,.L28
 220              	.L19:
 221              	.LVL15:
  68:src/memoryAllocator.cpp ****             curr->next=headFull;
  69:src/memoryAllocator.cpp ****             headFull->prev=curr;
  70:src/memoryAllocator.cpp ****             headFull=curr;
  71:src/memoryAllocator.cpp ****             return (char*)curr+DBlockSize;
  72:src/memoryAllocator.cpp ****         } //stavljamo na pocetak liste
  73:src/memoryAllocator.cpp **** 
  74:src/memoryAllocator.cpp ****         DBlock *currUsed=headFull;
  75:src/memoryAllocator.cpp ****         while(currUsed->next && currUsed->next<curr) currUsed=currUsed->next;
 222              		.loc 1 75 9 discriminator 3
 223              		.loc 1 75 30 discriminator 3
 224 0170 13870700 		mv	a4,a5
 225              		.loc 1 75 25 is_stmt 0 discriminator 3
 226 0174 83B78700 		ld	a5,8(a5)
 227              	.LVL16:
 228              		.loc 1 75 30 discriminator 3
 229 0178 63840700 		beqz	a5,.L20
 230              		.loc 1 75 30 discriminator 1
 231 017c E3EAA7FE 		bltu	a5,a0,.L19
 232              	.L20:
  76:src/memoryAllocator.cpp ****         curr->next=currUsed->next;
 233              		.loc 1 76 9 is_stmt 1
 234              		.loc 1 76 19 is_stmt 0
 235 0180 2334F500 		sd	a5,8(a0)
  77:src/memoryAllocator.cpp ****         if(currUsed->next) currUsed->next->prev=curr;
 236              		.loc 1 77 9 is_stmt 1
 237 0184 63840700 		beqz	a5,.L21
 238              		.loc 1 77 28 discriminator 1
 239              		.loc 1 77 48 is_stmt 0 discriminator 1
 240 0188 23B8A700 		sd	a0,16(a5)
 241              	.L21:
  78:src/memoryAllocator.cpp ****         curr->prev=currUsed;
 242              		.loc 1 78 9 is_stmt 1
 243              		.loc 1 78 19 is_stmt 0
 244 018c 2338E500 		sd	a4,16(a0)
  79:src/memoryAllocator.cpp ****         currUsed->next=curr;
 245              		.loc 1 79 9 is_stmt 1
 246              		.loc 1 79 23 is_stmt 0
 247 0190 2334A700 		sd	a0,8(a4)
  80:src/memoryAllocator.cpp ****         return (char*)curr+DBlockSize;
 248              		.loc 1 80 9 is_stmt 1
 249              		.loc 1 80 28 is_stmt 0
 250 0194 13058501 		addi	a0,a0,24
 251              	.LVL17:
 252              	.L9:
 253              	.LBE3:
 254              	.LBE2:
  81:src/memoryAllocator.cpp ****         //ubaciti na odgovarajuce mesto u full listi
  82:src/memoryAllocator.cpp ****         //currUsed je prethodnik curr
  83:src/memoryAllocator.cpp ****     }
GAS LISTING /tmp/ccwHAveC.s 			page 7


  84:src/memoryAllocator.cpp **** 
  85:src/memoryAllocator.cpp ****     return nullptr;
  86:src/memoryAllocator.cpp **** }
 255              		.loc 1 86 1
 256 0198 03348100 		ld	s0,8(sp)
 257              		.cfi_remember_state
 258              		.cfi_restore 8
 259              		.cfi_def_cfa 2, 16
 260 019c 13010101 		addi	sp,sp,16
 261              		.cfi_def_cfa_offset 0
 262 01a0 67800000 		jr	ra
 263              	.LVL18:
 264              	.L25:
 265              		.cfi_restore_state
 266              	.LBB6:
 267              	.LBB4:
  44:src/memoryAllocator.cpp ****         if(curr->size==size){ //ima tacno onoliko prostora koliki je blok
 268              		.loc 1 44 29 is_stmt 1 discriminator 1
 269              	.LBE4:
  42:src/memoryAllocator.cpp **** 
 270              		.loc 1 42 5 discriminator 1
  42:src/memoryAllocator.cpp **** 
 271              		.loc 1 42 37 is_stmt 0 discriminator 1
 272 01a4 03358500 		ld	a0,8(a0)
 273              	.LVL19:
  42:src/memoryAllocator.cpp **** 
 274              		.loc 1 42 5 discriminator 1
 275 01a8 6FF0DFF8 		j	.L12
 276              	.L26:
 277              	.LBB5:
  46:src/memoryAllocator.cpp ****             if(curr->prev) curr->prev->next=curr->next; //izbacen iz free liste
 278              		.loc 1 46 13 is_stmt 1
  46:src/memoryAllocator.cpp ****             if(curr->prev) curr->prev->next=curr->next; //izbacen iz free liste
 279              		.loc 1 46 22 is_stmt 0
 280 01ac 83378500 		ld	a5,8(a0)
 281              	.LVL20:
  46:src/memoryAllocator.cpp ****             if(curr->prev) curr->prev->next=curr->next; //izbacen iz free liste
 282              		.loc 1 46 13
 283 01b0 63860700 		beqz	a5,.L14
  46:src/memoryAllocator.cpp ****             if(curr->prev) curr->prev->next=curr->next; //izbacen iz free liste
 284              		.loc 1 46 28 is_stmt 1 discriminator 1
  46:src/memoryAllocator.cpp ****             if(curr->prev) curr->prev->next=curr->next; //izbacen iz free liste
 285              		.loc 1 46 51 is_stmt 0 discriminator 1
 286 01b4 03370501 		ld	a4,16(a0)
  46:src/memoryAllocator.cpp ****             if(curr->prev) curr->prev->next=curr->next; //izbacen iz free liste
 287              		.loc 1 46 44 discriminator 1
 288 01b8 23B8E700 		sd	a4,16(a5)
 289              	.L14:
  47:src/memoryAllocator.cpp ****             if (curr == headFree) headFree = curr->next;
 290              		.loc 1 47 13 is_stmt 1
  47:src/memoryAllocator.cpp ****             if (curr == headFree) headFree = curr->next;
 291              		.loc 1 47 22 is_stmt 0
 292 01bc 83370501 		ld	a5,16(a0)
  47:src/memoryAllocator.cpp ****             if (curr == headFree) headFree = curr->next;
 293              		.loc 1 47 13
 294 01c0 63860700 		beqz	a5,.L15
  47:src/memoryAllocator.cpp ****             if (curr == headFree) headFree = curr->next;
GAS LISTING /tmp/ccwHAveC.s 			page 8


 295              		.loc 1 47 28 is_stmt 1 discriminator 1
  47:src/memoryAllocator.cpp ****             if (curr == headFree) headFree = curr->next;
 296              		.loc 1 47 51 is_stmt 0 discriminator 1
 297 01c4 03378500 		ld	a4,8(a0)
  47:src/memoryAllocator.cpp ****             if (curr == headFree) headFree = curr->next;
 298              		.loc 1 47 44 discriminator 1
 299 01c8 23B4E700 		sd	a4,8(a5)
 300              	.L15:
  48:src/memoryAllocator.cpp ****             curr->prev = curr->next = nullptr;
 301              		.loc 1 48 13 is_stmt 1
 302 01cc 6308D500 		beq	a0,a3,.L29
 303              	.L16:
  49:src/memoryAllocator.cpp **** 
 304              		.loc 1 49 13
  49:src/memoryAllocator.cpp **** 
 305              		.loc 1 49 37 is_stmt 0
 306 01d0 23340500 		sd	zero,8(a0)
  49:src/memoryAllocator.cpp **** 
 307              		.loc 1 49 24
 308 01d4 23380500 		sd	zero,16(a0)
 309 01d8 6FF09FF8 		j	.L17
 310              	.L29:
  48:src/memoryAllocator.cpp ****             curr->prev = curr->next = nullptr;
 311              		.loc 1 48 35 is_stmt 1 discriminator 1
  48:src/memoryAllocator.cpp ****             curr->prev = curr->next = nullptr;
 312              		.loc 1 48 52 is_stmt 0 discriminator 1
 313 01dc 83378500 		ld	a5,8(a0)
  48:src/memoryAllocator.cpp ****             curr->prev = curr->next = nullptr;
 314              		.loc 1 48 44 discriminator 1
 315 01e0 17070000 		sd	a5,.LANCHOR1+8,a4
 315      2330F700 
 316 01e8 6FF09FFE 		j	.L16
 317              	.L27:
  63:src/memoryAllocator.cpp ****             return (char*)curr+DBlockSize;
 318              		.loc 1 63 13 is_stmt 1
  63:src/memoryAllocator.cpp ****             return (char*)curr+DBlockSize;
 319              		.loc 1 63 21 is_stmt 0
 320 01ec 97070000 		sd	a0,.LANCHOR1+16,a5
 320      23B0A700 
  64:src/memoryAllocator.cpp ****         }
 321              		.loc 1 64 13 is_stmt 1
  64:src/memoryAllocator.cpp ****         }
 322              		.loc 1 64 32 is_stmt 0
 323 01f4 13058501 		addi	a0,a0,24
 324              	.LVL21:
 325 01f8 6FF01FFA 		j	.L9
 326              	.LVL22:
 327              	.L28:
  68:src/memoryAllocator.cpp ****             headFull->prev=curr;
 328              		.loc 1 68 13 is_stmt 1
  68:src/memoryAllocator.cpp ****             headFull->prev=curr;
 329              		.loc 1 68 23 is_stmt 0
 330 01fc 2334F500 		sd	a5,8(a0)
  69:src/memoryAllocator.cpp ****             headFull=curr;
 331              		.loc 1 69 13 is_stmt 1
  69:src/memoryAllocator.cpp ****             headFull=curr;
 332              		.loc 1 69 27 is_stmt 0
GAS LISTING /tmp/ccwHAveC.s 			page 9


 333 0200 23B8A700 		sd	a0,16(a5)
  70:src/memoryAllocator.cpp ****             return (char*)curr+DBlockSize;
 334              		.loc 1 70 13 is_stmt 1
  70:src/memoryAllocator.cpp ****             return (char*)curr+DBlockSize;
 335              		.loc 1 70 21 is_stmt 0
 336 0204 97070000 		sd	a0,.LANCHOR1+16,a5
 336      23B0A700 
  71:src/memoryAllocator.cpp ****         } //stavljamo na pocetak liste
 337              		.loc 1 71 13 is_stmt 1
  71:src/memoryAllocator.cpp ****         } //stavljamo na pocetak liste
 338              		.loc 1 71 32 is_stmt 0
 339 020c 13058501 		addi	a0,a0,24
 340              	.LVL23:
 341 0210 6FF09FF8 		j	.L9
 342              	.LVL24:
 343              	.L22:
 344              	.LBE5:
 345              	.LBE6:
  39:src/memoryAllocator.cpp ****     DBlock* curr=nullptr;
 346              		.loc 1 39 104
 347 0214 13050000 		li	a0,0
 348              	.LVL25:
 349 0218 6FF01FF8 		j	.L9
 350              	.LVL26:
 351              	.L23:
 352 021c 13050000 		li	a0,0
 353              	.LVL27:
 354 0220 6FF09FF7 		j	.L9
 355              		.cfi_endproc
 356              	.LFE2:
 358              		.align	2
 359              		.globl	_ZN15MemoryAllocator9tryToJoinEPNS_6DBlockE
 361              	_ZN15MemoryAllocator9tryToJoinEPNS_6DBlockE:
 362              	.LFB4:
  87:src/memoryAllocator.cpp **** 
  88:src/memoryAllocator.cpp **** int MemoryAllocator::mem_free (void* ptr){
  89:src/memoryAllocator.cpp **** 
  90:src/memoryAllocator.cpp ****     if(!ptr) return -1;
  91:src/memoryAllocator.cpp ****     ptr=(DBlock*)((char*)ptr-DBlockSize);
  92:src/memoryAllocator.cpp ****     for(DBlock* curr=headFull; curr || ptr<=curr; curr=curr->next){
  93:src/memoryAllocator.cpp ****         if(curr==ptr){ //curr izbacujemo iz full liste
  94:src/memoryAllocator.cpp ****             if(curr->next) curr->next->prev=curr->prev;
  95:src/memoryAllocator.cpp ****             if(curr->prev) curr->prev->next=curr->next;
  96:src/memoryAllocator.cpp ****             if (curr == headFull) headFull = curr->next;
  97:src/memoryAllocator.cpp ****             curr->prev = curr->next = nullptr;
  98:src/memoryAllocator.cpp **** 
  99:src/memoryAllocator.cpp ****             //treba curr(ptr) ubaciti u free listu
 100:src/memoryAllocator.cpp **** 
 101:src/memoryAllocator.cpp ****             if(!headFree){
 102:src/memoryAllocator.cpp ****                 headFree=curr;
 103:src/memoryAllocator.cpp ****                 return 0;
 104:src/memoryAllocator.cpp ****             }
 105:src/memoryAllocator.cpp **** 
 106:src/memoryAllocator.cpp ****             if(headFree>curr) {
 107:src/memoryAllocator.cpp ****                 curr->next=headFree;
 108:src/memoryAllocator.cpp ****                 headFree->prev=curr;
 109:src/memoryAllocator.cpp ****                 headFree=curr;
GAS LISTING /tmp/ccwHAveC.s 			page 10


 110:src/memoryAllocator.cpp ****                 tryToJoin(headFree);
 111:src/memoryAllocator.cpp ****                 return 0;
 112:src/memoryAllocator.cpp ****             } //stavljamo na pocetak liste
 113:src/memoryAllocator.cpp **** 
 114:src/memoryAllocator.cpp ****             DBlock *currFree=headFree;
 115:src/memoryAllocator.cpp ****             while(currFree->next && currFree->next<curr) currFree=currFree->next;
 116:src/memoryAllocator.cpp ****             curr->next=currFree->next;
 117:src/memoryAllocator.cpp ****             if(currFree->next) currFree->next->prev=curr;
 118:src/memoryAllocator.cpp ****             curr->prev=currFree;
 119:src/memoryAllocator.cpp ****             currFree->next=curr;
 120:src/memoryAllocator.cpp ****             tryToJoin(curr);
 121:src/memoryAllocator.cpp ****             tryToJoin(curr->prev);
 122:src/memoryAllocator.cpp ****             return 0;
 123:src/memoryAllocator.cpp ****         }
 124:src/memoryAllocator.cpp ****     }
 125:src/memoryAllocator.cpp **** 
 126:src/memoryAllocator.cpp ****     return -1; // 0 ako je ok -1 ako nije
 127:src/memoryAllocator.cpp **** }
 128:src/memoryAllocator.cpp **** 
 129:src/memoryAllocator.cpp **** void MemoryAllocator::tryToJoin(DBlock* curr){
 363              		.loc 1 129 46 is_stmt 1
 364              		.cfi_startproc
 365              	.LVL28:
 366 0224 130101FF 		addi	sp,sp,-16
 367              		.cfi_def_cfa_offset 16
 368 0228 23348100 		sd	s0,8(sp)
 369              		.cfi_offset 8, -8
 370 022c 13040101 		addi	s0,sp,16
 371              		.cfi_def_cfa 8, 0
 130:src/memoryAllocator.cpp ****     if(!curr) return;
 372              		.loc 1 130 5
 373 0230 630E0500 		beqz	a0,.L30
 131:src/memoryAllocator.cpp ****     if(curr->next && (char*)curr+curr->size*MEM_BLOCK_SIZE == (char*)curr->next){
 374              		.loc 1 131 5
 375              		.loc 1 131 14 is_stmt 0
 376 0234 83378500 		ld	a5,8(a0)
 377              		.loc 1 131 5
 378 0238 638A0700 		beqz	a5,.L30
 379              		.loc 1 131 40 discriminator 1
 380 023c 83360500 		ld	a3,0(a0)
 381              		.loc 1 131 44 discriminator 1
 382 0240 13976600 		slli	a4,a3,6
 383              		.loc 1 131 33 discriminator 1
 384 0244 3307E500 		add	a4,a0,a4
 385              		.loc 1 131 19 discriminator 1
 386 0248 6388E700 		beq	a5,a4,.L33
 387              	.L30:
 132:src/memoryAllocator.cpp ****         curr->size+=curr->next->size;
 133:src/memoryAllocator.cpp ****         curr->next=curr->next->next;
 134:src/memoryAllocator.cpp ****         if(curr->next) curr->next->prev=curr;
 135:src/memoryAllocator.cpp ****     }
 136:src/memoryAllocator.cpp **** }
 388              		.loc 1 136 1
 389 024c 03348100 		ld	s0,8(sp)
 390              		.cfi_remember_state
 391              		.cfi_restore 8
 392              		.cfi_def_cfa 2, 16
GAS LISTING /tmp/ccwHAveC.s 			page 11


 393 0250 13010101 		addi	sp,sp,16
 394              		.cfi_def_cfa_offset 0
 395 0254 67800000 		jr	ra
 396              	.L33:
 397              		.cfi_restore_state
 132:src/memoryAllocator.cpp ****         curr->size+=curr->next->size;
 398              		.loc 1 132 9 is_stmt 1
 132:src/memoryAllocator.cpp ****         curr->size+=curr->next->size;
 399              		.loc 1 132 33 is_stmt 0
 400 0258 03B70700 		ld	a4,0(a5)
 132:src/memoryAllocator.cpp ****         curr->size+=curr->next->size;
 401              		.loc 1 132 19
 402 025c B386E600 		add	a3,a3,a4
 403 0260 2330D500 		sd	a3,0(a0)
 133:src/memoryAllocator.cpp ****         if(curr->next) curr->next->prev=curr;
 404              		.loc 1 133 9 is_stmt 1
 133:src/memoryAllocator.cpp ****         if(curr->next) curr->next->prev=curr;
 405              		.loc 1 133 32 is_stmt 0
 406 0264 83B78700 		ld	a5,8(a5)
 133:src/memoryAllocator.cpp ****         if(curr->next) curr->next->prev=curr;
 407              		.loc 1 133 19
 408 0268 2334F500 		sd	a5,8(a0)
 134:src/memoryAllocator.cpp ****     }
 409              		.loc 1 134 9 is_stmt 1
 410 026c E38007FE 		beqz	a5,.L30
 134:src/memoryAllocator.cpp ****     }
 411              		.loc 1 134 24 discriminator 1
 134:src/memoryAllocator.cpp ****     }
 412              		.loc 1 134 40 is_stmt 0 discriminator 1
 413 0270 23B8A700 		sd	a0,16(a5)
 414 0274 6FF09FFD 		j	.L30
 415              		.cfi_endproc
 416              	.LFE4:
 418              		.align	2
 419              		.globl	_ZN15MemoryAllocator8mem_freeEPv
 421              	_ZN15MemoryAllocator8mem_freeEPv:
 422              	.LFB3:
  88:src/memoryAllocator.cpp **** 
 423              		.loc 1 88 42 is_stmt 1
 424              		.cfi_startproc
 425              	.LVL29:
  90:src/memoryAllocator.cpp ****     ptr=(DBlock*)((char*)ptr-DBlockSize);
 426              		.loc 1 90 5
 427 0278 630C0510 		beqz	a0,.L46
  88:src/memoryAllocator.cpp **** 
 428              		.loc 1 88 42 is_stmt 0
 429 027c 130101FE 		addi	sp,sp,-32
 430              		.cfi_def_cfa_offset 32
 431 0280 233C1100 		sd	ra,24(sp)
 432 0284 23388100 		sd	s0,16(sp)
 433 0288 23349100 		sd	s1,8(sp)
 434              		.cfi_offset 1, -8
 435              		.cfi_offset 8, -16
 436              		.cfi_offset 9, -24
 437 028c 13040102 		addi	s0,sp,32
 438              		.cfi_def_cfa 8, 0
  91:src/memoryAllocator.cpp ****     for(DBlock* curr=headFull; curr || ptr<=curr; curr=curr->next){
GAS LISTING /tmp/ccwHAveC.s 			page 12


 439              		.loc 1 91 5 is_stmt 1
  91:src/memoryAllocator.cpp ****     for(DBlock* curr=headFull; curr || ptr<=curr; curr=curr->next){
 440              		.loc 1 91 8 is_stmt 0
 441 0290 130585FE 		addi	a0,a0,-24
 442              	.LVL30:
  92:src/memoryAllocator.cpp ****         if(curr==ptr){ //curr izbacujemo iz full liste
 443              		.loc 1 92 5 is_stmt 1
 444              	.LBB7:
  92:src/memoryAllocator.cpp ****         if(curr==ptr){ //curr izbacujemo iz full liste
 445              		.loc 1 92 17 is_stmt 0
 446 0294 97070000 		ld	a5,.LANCHOR1+16
 446      83B70700 
 447              	.LVL31:
 448 029c 93840700 		mv	s1,a5
 449 02a0 6F00C000 		j	.L45
 450              	.LVL32:
 451              	.L36:
 452              	.LBE7:
  93:src/memoryAllocator.cpp ****             if(curr->next) curr->next->prev=curr->prev;
 453              		.loc 1 93 9 is_stmt 1
 454              	.LBB13:
 455              	.LBB8:
 456 02a4 638CA400 		beq	s1,a0,.L52
 457              	.LBE8:
  92:src/memoryAllocator.cpp ****         if(curr==ptr){ //curr izbacujemo iz full liste
 458              		.loc 1 92 5 discriminator 3
  92:src/memoryAllocator.cpp ****         if(curr==ptr){ //curr izbacujemo iz full liste
 459              		.loc 1 92 55 is_stmt 0 discriminator 3
 460 02a8 83B48400 		ld	s1,8(s1)
 461              	.LVL33:
 462              	.L45:
  92:src/memoryAllocator.cpp ****         if(curr==ptr){ //curr izbacujemo iz full liste
 463              		.loc 1 92 37 is_stmt 1 discriminator 1
 464 02ac E39C04FE 		bnez	s1,.L36
  92:src/memoryAllocator.cpp ****         if(curr==ptr){ //curr izbacujemo iz full liste
 465              		.loc 1 92 37 is_stmt 0 discriminator 2
 466 02b0 E3FAA4FE 		bgeu	s1,a0,.L36
 467              	.LBE13:
 126:src/memoryAllocator.cpp **** }
 468              		.loc 1 126 13
 469 02b4 1305F0FF 		li	a0,-1
 470              	.LVL34:
 471 02b8 6F000008 		j	.L35
 472              	.LVL35:
 473              	.L52:
 474              	.LBB14:
 475              	.LBB11:
 476              	.LBB9:
  94:src/memoryAllocator.cpp ****             if(curr->prev) curr->prev->next=curr->next;
 477              		.loc 1 94 13 is_stmt 1
  94:src/memoryAllocator.cpp ****             if(curr->prev) curr->prev->next=curr->next;
 478              		.loc 1 94 22 is_stmt 0
 479 02bc 03B78400 		ld	a4,8(s1)
  94:src/memoryAllocator.cpp ****             if(curr->prev) curr->prev->next=curr->next;
 480              		.loc 1 94 13
 481 02c0 63060700 		beqz	a4,.L38
  94:src/memoryAllocator.cpp ****             if(curr->prev) curr->prev->next=curr->next;
GAS LISTING /tmp/ccwHAveC.s 			page 13


 482              		.loc 1 94 28 is_stmt 1 discriminator 1
  94:src/memoryAllocator.cpp ****             if(curr->prev) curr->prev->next=curr->next;
 483              		.loc 1 94 51 is_stmt 0 discriminator 1
 484 02c4 83B60401 		ld	a3,16(s1)
  94:src/memoryAllocator.cpp ****             if(curr->prev) curr->prev->next=curr->next;
 485              		.loc 1 94 44 discriminator 1
 486 02c8 2338D700 		sd	a3,16(a4)
 487              	.L38:
  95:src/memoryAllocator.cpp ****             if (curr == headFull) headFull = curr->next;
 488              		.loc 1 95 13 is_stmt 1
  95:src/memoryAllocator.cpp ****             if (curr == headFull) headFull = curr->next;
 489              		.loc 1 95 22 is_stmt 0
 490 02cc 03B70401 		ld	a4,16(s1)
  95:src/memoryAllocator.cpp ****             if (curr == headFull) headFull = curr->next;
 491              		.loc 1 95 13
 492 02d0 63060700 		beqz	a4,.L39
  95:src/memoryAllocator.cpp ****             if (curr == headFull) headFull = curr->next;
 493              		.loc 1 95 28 is_stmt 1 discriminator 1
  95:src/memoryAllocator.cpp ****             if (curr == headFull) headFull = curr->next;
 494              		.loc 1 95 51 is_stmt 0 discriminator 1
 495 02d4 83B68400 		ld	a3,8(s1)
  95:src/memoryAllocator.cpp ****             if (curr == headFull) headFull = curr->next;
 496              		.loc 1 95 44 discriminator 1
 497 02d8 2334D700 		sd	a3,8(a4)
 498              	.L39:
  96:src/memoryAllocator.cpp ****             curr->prev = curr->next = nullptr;
 499              		.loc 1 96 13 is_stmt 1
 500 02dc 6388F406 		beq	s1,a5,.L53
 501              	.L40:
  97:src/memoryAllocator.cpp **** 
 502              		.loc 1 97 13
  97:src/memoryAllocator.cpp **** 
 503              		.loc 1 97 37 is_stmt 0
 504 02e0 23B40400 		sd	zero,8(s1)
  97:src/memoryAllocator.cpp **** 
 505              		.loc 1 97 24
 506 02e4 23B80400 		sd	zero,16(s1)
 101:src/memoryAllocator.cpp ****                 headFree=curr;
 507              		.loc 1 101 13 is_stmt 1
 101:src/memoryAllocator.cpp ****                 headFree=curr;
 508              		.loc 1 101 16 is_stmt 0
 509 02e8 97070000 		ld	a5,.LANCHOR1+8
 509      83B70700 
 101:src/memoryAllocator.cpp ****                 headFree=curr;
 510              		.loc 1 101 13
 511 02f0 63860706 		beqz	a5,.L54
 106:src/memoryAllocator.cpp ****                 curr->next=headFree;
 512              		.loc 1 106 13 is_stmt 1
 513 02f4 63ECF406 		bgtu	a5,s1,.L55
 514              	.L42:
 515              	.LVL36:
 115:src/memoryAllocator.cpp ****             curr->next=currFree->next;
 516              		.loc 1 115 13 discriminator 3
 115:src/memoryAllocator.cpp ****             curr->next=currFree->next;
 517              		.loc 1 115 34 discriminator 3
 518 02f8 13870700 		mv	a4,a5
 115:src/memoryAllocator.cpp ****             curr->next=currFree->next;
GAS LISTING /tmp/ccwHAveC.s 			page 14


 519              		.loc 1 115 29 is_stmt 0 discriminator 3
 520 02fc 83B78700 		ld	a5,8(a5)
 521              	.LVL37:
 115:src/memoryAllocator.cpp ****             curr->next=currFree->next;
 522              		.loc 1 115 34 discriminator 3
 523 0300 63840700 		beqz	a5,.L43
 115:src/memoryAllocator.cpp ****             curr->next=currFree->next;
 524              		.loc 1 115 34 discriminator 1
 525 0304 E3EA97FE 		bltu	a5,s1,.L42
 526              	.L43:
 116:src/memoryAllocator.cpp ****             if(currFree->next) currFree->next->prev=curr;
 527              		.loc 1 116 13 is_stmt 1
 116:src/memoryAllocator.cpp ****             if(currFree->next) currFree->next->prev=curr;
 528              		.loc 1 116 23 is_stmt 0
 529 0308 23B4F400 		sd	a5,8(s1)
 117:src/memoryAllocator.cpp ****             curr->prev=currFree;
 530              		.loc 1 117 13 is_stmt 1
 531 030c 63840700 		beqz	a5,.L44
 117:src/memoryAllocator.cpp ****             curr->prev=currFree;
 532              		.loc 1 117 32 discriminator 1
 117:src/memoryAllocator.cpp ****             curr->prev=currFree;
 533              		.loc 1 117 52 is_stmt 0 discriminator 1
 534 0310 23B89700 		sd	s1,16(a5)
 535              	.L44:
 118:src/memoryAllocator.cpp ****             currFree->next=curr;
 536              		.loc 1 118 13 is_stmt 1
 118:src/memoryAllocator.cpp ****             currFree->next=curr;
 537              		.loc 1 118 23 is_stmt 0
 538 0314 23B8E400 		sd	a4,16(s1)
 119:src/memoryAllocator.cpp ****             tryToJoin(curr);
 539              		.loc 1 119 13 is_stmt 1
 119:src/memoryAllocator.cpp ****             tryToJoin(curr);
 540              		.loc 1 119 27 is_stmt 0
 541 0318 23349700 		sd	s1,8(a4)
 120:src/memoryAllocator.cpp ****             tryToJoin(curr->prev);
 542              		.loc 1 120 13 is_stmt 1
 120:src/memoryAllocator.cpp ****             tryToJoin(curr->prev);
 543              		.loc 1 120 22 is_stmt 0
 544 031c 13850400 		mv	a0,s1
 545              	.LVL38:
 546 0320 97000000 		call	_ZN15MemoryAllocator9tryToJoinEPNS_6DBlockE
 546      E7800000 
 547              	.LVL39:
 121:src/memoryAllocator.cpp ****             return 0;
 548              		.loc 1 121 13 is_stmt 1
 121:src/memoryAllocator.cpp ****             return 0;
 549              		.loc 1 121 22 is_stmt 0
 550 0328 03B50401 		ld	a0,16(s1)
 551 032c 97000000 		call	_ZN15MemoryAllocator9tryToJoinEPNS_6DBlockE
 551      E7800000 
 552              	.LVL40:
 122:src/memoryAllocator.cpp ****         }
 553              		.loc 1 122 13 is_stmt 1
 122:src/memoryAllocator.cpp ****         }
 554              		.loc 1 122 20 is_stmt 0
 555 0334 13050000 		li	a0,0
 556              	.L35:
GAS LISTING /tmp/ccwHAveC.s 			page 15


 557              	.LBE9:
 558              	.LBE11:
 559              	.LBE14:
 127:src/memoryAllocator.cpp **** 
 560              		.loc 1 127 1
 561 0338 83308101 		ld	ra,24(sp)
 562              		.cfi_remember_state
 563              		.cfi_restore 1
 564 033c 03340101 		ld	s0,16(sp)
 565              		.cfi_restore 8
 566              		.cfi_def_cfa 2, 32
 567 0340 83348100 		ld	s1,8(sp)
 568              		.cfi_restore 9
 569              	.LVL41:
 570 0344 13010102 		addi	sp,sp,32
 571              		.cfi_def_cfa_offset 0
 572 0348 67800000 		jr	ra
 573              	.LVL42:
 574              	.L53:
 575              		.cfi_restore_state
 576              	.LBB15:
 577              	.LBB12:
 578              	.LBB10:
  96:src/memoryAllocator.cpp ****             curr->prev = curr->next = nullptr;
 579              		.loc 1 96 35 is_stmt 1 discriminator 1
  96:src/memoryAllocator.cpp ****             curr->prev = curr->next = nullptr;
 580              		.loc 1 96 52 is_stmt 0 discriminator 1
 581 034c 83B78400 		ld	a5,8(s1)
  96:src/memoryAllocator.cpp ****             curr->prev = curr->next = nullptr;
 582              		.loc 1 96 44 discriminator 1
 583 0350 17070000 		sd	a5,.LANCHOR1+16,a4
 583      2330F700 
 584 0358 6FF09FF8 		j	.L40
 585              	.L54:
 102:src/memoryAllocator.cpp ****                 return 0;
 586              		.loc 1 102 17 is_stmt 1
 102:src/memoryAllocator.cpp ****                 return 0;
 587              		.loc 1 102 25 is_stmt 0
 588 035c 97070000 		sd	s1,.LANCHOR1+8,a5
 588      23B09700 
 103:src/memoryAllocator.cpp ****             }
 589              		.loc 1 103 17 is_stmt 1
 103:src/memoryAllocator.cpp ****             }
 590              		.loc 1 103 24 is_stmt 0
 591 0364 13050000 		li	a0,0
 592              	.LVL43:
 593 0368 6FF01FFD 		j	.L35
 594              	.LVL44:
 595              	.L55:
 107:src/memoryAllocator.cpp ****                 headFree->prev=curr;
 596              		.loc 1 107 17 is_stmt 1
 107:src/memoryAllocator.cpp ****                 headFree->prev=curr;
 597              		.loc 1 107 27 is_stmt 0
 598 036c 23B4F400 		sd	a5,8(s1)
 108:src/memoryAllocator.cpp ****                 headFree=curr;
 599              		.loc 1 108 17 is_stmt 1
 108:src/memoryAllocator.cpp ****                 headFree=curr;
GAS LISTING /tmp/ccwHAveC.s 			page 16


 600              		.loc 1 108 31 is_stmt 0
 601 0370 23B89700 		sd	s1,16(a5)
 109:src/memoryAllocator.cpp ****                 tryToJoin(headFree);
 602              		.loc 1 109 17 is_stmt 1
 109:src/memoryAllocator.cpp ****                 tryToJoin(headFree);
 603              		.loc 1 109 25 is_stmt 0
 604 0374 97070000 		sd	s1,.LANCHOR1+8,a5
 604      23B09700 
 110:src/memoryAllocator.cpp ****                 return 0;
 605              		.loc 1 110 17 is_stmt 1
 110:src/memoryAllocator.cpp ****                 return 0;
 606              		.loc 1 110 26 is_stmt 0
 607 037c 13850400 		mv	a0,s1
 608              	.LVL45:
 609 0380 97000000 		call	_ZN15MemoryAllocator9tryToJoinEPNS_6DBlockE
 609      E7800000 
 610              	.LVL46:
 111:src/memoryAllocator.cpp ****             } //stavljamo na pocetak liste
 611              		.loc 1 111 17 is_stmt 1
 111:src/memoryAllocator.cpp ****             } //stavljamo na pocetak liste
 612              		.loc 1 111 24 is_stmt 0
 613 0388 13050000 		li	a0,0
 614 038c 6FF0DFFA 		j	.L35
 615              	.LVL47:
 616              	.L46:
 617              		.cfi_def_cfa_register 2
 618              		.cfi_restore 1
 619              		.cfi_restore 8
 620              		.cfi_restore 9
 621              	.LBE10:
 622              	.LBE12:
 623              	.LBE15:
  90:src/memoryAllocator.cpp ****     ptr=(DBlock*)((char*)ptr-DBlockSize);
 624              		.loc 1 90 22
 625 0390 1305F0FF 		li	a0,-1
 626              	.LVL48:
 127:src/memoryAllocator.cpp **** 
 627              		.loc 1 127 1
 628 0394 67800000 		ret
 629              		.cfi_endproc
 630              	.LFE3:
 632              		.align	2
 633              		.globl	_ZN15MemoryAllocator8printMemEv
 635              	_ZN15MemoryAllocator8printMemEv:
 636              	.LFB5:
 137:src/memoryAllocator.cpp **** 
 138:src/memoryAllocator.cpp **** void MemoryAllocator::printMem(){
 637              		.loc 1 138 33 is_stmt 1
 638              		.cfi_startproc
 639 0398 130101FE 		addi	sp,sp,-32
 640              		.cfi_def_cfa_offset 32
 641 039c 233C1100 		sd	ra,24(sp)
 642 03a0 23388100 		sd	s0,16(sp)
 643 03a4 23349100 		sd	s1,8(sp)
 644              		.cfi_offset 1, -8
 645              		.cfi_offset 8, -16
 646              		.cfi_offset 9, -24
GAS LISTING /tmp/ccwHAveC.s 			page 17


 647 03a8 13040102 		addi	s0,sp,32
 648              		.cfi_def_cfa 8, 0
 139:src/memoryAllocator.cpp **** 
 140:src/memoryAllocator.cpp ****     for (DBlock* blk = headFree; blk; blk=blk->next) {
 649              		.loc 1 140 5
 650              	.LBB16:
 651              		.loc 1 140 18 is_stmt 0
 652 03ac 97040000 		ld	s1,.LANCHOR1+8
 652      83B40400 
 653              	.LVL49:
 654              	.L58:
 655              		.loc 1 140 34 is_stmt 1 discriminator 3
 656 03b4 63820402 		beqz	s1,.L57
 141:src/memoryAllocator.cpp ****         //printInt((uint64)blk);
 142:src/memoryAllocator.cpp ****         __putc('f');
 657              		.loc 1 142 9 discriminator 2
 658              		.loc 1 142 15 is_stmt 0 discriminator 2
 659 03b8 13056006 		li	a0,102
 660 03bc 97000000 		call	__putc@plt
 660      E7800000 
 661              	.LVL50:
 143:src/memoryAllocator.cpp ****         __putc('\n');
 662              		.loc 1 143 9 is_stmt 1 discriminator 2
 663              		.loc 1 143 15 is_stmt 0 discriminator 2
 664 03c4 1305A000 		li	a0,10
 665 03c8 97000000 		call	__putc@plt
 665      E7800000 
 666              	.LVL51:
 140:src/memoryAllocator.cpp ****         //printInt((uint64)blk);
 667              		.loc 1 140 5 is_stmt 1 discriminator 2
 140:src/memoryAllocator.cpp ****         //printInt((uint64)blk);
 668              		.loc 1 140 42 is_stmt 0 discriminator 2
 669 03d0 83B48400 		ld	s1,8(s1)
 670              	.LVL52:
 140:src/memoryAllocator.cpp ****         //printInt((uint64)blk);
 671              		.loc 1 140 5 discriminator 2
 672 03d4 6FF01FFE 		j	.L58
 673              	.L57:
 674              	.LBE16:
 144:src/memoryAllocator.cpp ****     }
 145:src/memoryAllocator.cpp ****     for (DBlock* blk = headFull; blk; blk=blk->next) {
 675              		.loc 1 145 5 is_stmt 1
 676              	.LBB17:
 677              		.loc 1 145 18 is_stmt 0
 678 03d8 97040000 		ld	s1,.LANCHOR1+16
 678      83B40400 
 679              	.LVL53:
 680              	.L60:
 681              		.loc 1 145 34 is_stmt 1 discriminator 3
 682 03e0 63820402 		beqz	s1,.L56
 146:src/memoryAllocator.cpp ****         //printInt((uint64)blk);
 147:src/memoryAllocator.cpp ****         __putc('u');
 683              		.loc 1 147 9 discriminator 2
 684              		.loc 1 147 15 is_stmt 0 discriminator 2
 685 03e4 13055007 		li	a0,117
 686 03e8 97000000 		call	__putc@plt
 686      E7800000 
GAS LISTING /tmp/ccwHAveC.s 			page 18


 687              	.LVL54:
 148:src/memoryAllocator.cpp ****         __putc('\n');
 688              		.loc 1 148 9 is_stmt 1 discriminator 2
 689              		.loc 1 148 15 is_stmt 0 discriminator 2
 690 03f0 1305A000 		li	a0,10
 691 03f4 97000000 		call	__putc@plt
 691      E7800000 
 692              	.LVL55:
 145:src/memoryAllocator.cpp ****         //printInt((uint64)blk);
 693              		.loc 1 145 5 is_stmt 1 discriminator 2
 145:src/memoryAllocator.cpp ****         //printInt((uint64)blk);
 694              		.loc 1 145 42 is_stmt 0 discriminator 2
 695 03fc 83B48400 		ld	s1,8(s1)
 696              	.LVL56:
 145:src/memoryAllocator.cpp ****         //printInt((uint64)blk);
 697              		.loc 1 145 5 discriminator 2
 698 0400 6FF01FFE 		j	.L60
 699              	.L56:
 700              	.LBE17:
 149:src/memoryAllocator.cpp ****     }
 150:src/memoryAllocator.cpp **** }
 701              		.loc 1 150 1
 702 0404 83308101 		ld	ra,24(sp)
 703              		.cfi_restore 1
 704 0408 03340101 		ld	s0,16(sp)
 705              		.cfi_restore 8
 706              		.cfi_def_cfa 2, 32
 707 040c 83348100 		ld	s1,8(sp)
 708              		.cfi_restore 9
 709              	.LVL57:
 710 0410 13010102 		addi	sp,sp,32
 711              		.cfi_def_cfa_offset 0
 712 0414 67800000 		jr	ra
 713              		.cfi_endproc
 714              	.LFE5:
 716              		.globl	_ZN15MemoryAllocator10DBlockSizeE
 717              		.globl	digits
 718              		.globl	_ZN15MemoryAllocator11initializedE
 719              		.globl	_ZN15MemoryAllocator8headFreeE
 720              		.globl	_ZN15MemoryAllocator8headFullE
 721              		.section	.rodata
 722              		.align	3
 725              	_ZN15MemoryAllocator10DBlockSizeE:
 726 0000 18000000 		.dword	24
 726      00000000 
 727              		.data
 728              		.align	3
 729              		.set	.LANCHOR0,. + 0
 732              	digits:
 733 0000 30313233 		.string	"0123456789"
 733      34353637 
 733      383900
 734              		.bss
 735              		.align	3
 736              		.set	.LANCHOR1,. + 0
 739              	_ZN15MemoryAllocator11initializedE:
 740 0000 00       		.zero	1
GAS LISTING /tmp/ccwHAveC.s 			page 19


 741 0001 00000000 		.zero	7
 741      000000
 744              	_ZN15MemoryAllocator8headFreeE:
 745 0008 00000000 		.zero	8
 745      00000000 
 748              	_ZN15MemoryAllocator8headFullE:
 749 0010 00000000 		.zero	8
 749      00000000 
 750              		.text
 751              	.Letext0:
 752              		.file 2 "src/../lib/hw.h"
 753              		.file 3 "src/../h/memoryAllocator.hpp"
 754              		.file 4 "src/../h/../lib/console.h"
GAS LISTING /tmp/ccwHAveC.s 			page 20


DEFINED SYMBOLS
                            *ABS*:0000000000000000 memoryAllocator.cpp
     /tmp/ccwHAveC.s:9      .text:0000000000000000 _Z8printInti
     /tmp/ccwHAveC.s:13     .text:0000000000000000 .L0 
     /tmp/ccwHAveC.s:15     .text:0000000000000000 .L0 
     /tmp/ccwHAveC.s:16     .text:0000000000000004 .L0 
     /tmp/ccwHAveC.s:20     .text:0000000000000010 .L0 
     /tmp/ccwHAveC.s:21     .text:0000000000000010 .L0 
     /tmp/ccwHAveC.s:22     .text:0000000000000010 .L0 
     /tmp/ccwHAveC.s:24     .text:0000000000000014 .L0 
     /tmp/ccwHAveC.s:26     .text:0000000000000014 .L0 
     /tmp/ccwHAveC.s:27     .text:0000000000000014 .L0 
     /tmp/ccwHAveC.s:29     .text:0000000000000014 .L0 
     /tmp/ccwHAveC.s:30     .text:0000000000000014 .L0 
     /tmp/ccwHAveC.s:34     .text:0000000000000018 .L0 
     /tmp/ccwHAveC.s:35     .text:0000000000000018 .L0 
     /tmp/ccwHAveC.s:36     .text:0000000000000018 .L0 
     /tmp/ccwHAveC.s:40     .text:0000000000000020 .L0 
     /tmp/ccwHAveC.s:44     .text:0000000000000030 .L0 
     /tmp/ccwHAveC.s:50     .text:0000000000000040 .L0 
     /tmp/ccwHAveC.s:51     .text:0000000000000040 .L0 
     /tmp/ccwHAveC.s:54     .text:0000000000000044 .L0 
     /tmp/ccwHAveC.s:58     .text:0000000000000048 .L0 
     /tmp/ccwHAveC.s:59     .text:0000000000000048 .L0 
     /tmp/ccwHAveC.s:63     .text:0000000000000050 .L0 
     /tmp/ccwHAveC.s:64     .text:0000000000000050 .L0 
     /tmp/ccwHAveC.s:72     .text:0000000000000068 .L0 
     /tmp/ccwHAveC.s:73     .text:000000000000006c .L0 
     /tmp/ccwHAveC.s:75     .text:0000000000000070 .L0 
     /tmp/ccwHAveC.s:76     .text:0000000000000070 .L0 
     /tmp/ccwHAveC.s:78     .text:0000000000000074 .L0 
     /tmp/ccwHAveC.s:80     .text:0000000000000078 .L0 
     /tmp/ccwHAveC.s:82     .text:000000000000007c .L0 
     /tmp/ccwHAveC.s:88     .text:000000000000007c _ZN15MemoryAllocator4initEv
     /tmp/ccwHAveC.s:91     .text:000000000000007c .L0 
     /tmp/ccwHAveC.s:92     .text:000000000000007c .L0 
     /tmp/ccwHAveC.s:93     .text:0000000000000080 .L0 
     /tmp/ccwHAveC.s:95     .text:0000000000000084 .L0 
     /tmp/ccwHAveC.s:97     .text:0000000000000088 .L0 
     /tmp/ccwHAveC.s:99     .text:0000000000000088 .L0 
     /tmp/ccwHAveC.s:100    .text:0000000000000088 .L0 
     /tmp/ccwHAveC.s:102    .text:0000000000000090 .L0 
     /tmp/ccwHAveC.s:104    .text:0000000000000094 .L0 
     /tmp/ccwHAveC.s:105    .text:0000000000000094 .L0 
     /tmp/ccwHAveC.s:110    .text:00000000000000ac .L0 
     /tmp/ccwHAveC.s:111    .text:00000000000000ac .L0 
     /tmp/ccwHAveC.s:116    .text:00000000000000c0 .L0 
     /tmp/ccwHAveC.s:118    .text:00000000000000c4 .L0 
     /tmp/ccwHAveC.s:120    .text:00000000000000c8 .L0 
     /tmp/ccwHAveC.s:122    .text:00000000000000cc .L0 
     /tmp/ccwHAveC.s:123    .text:00000000000000cc .L0 
     /tmp/ccwHAveC.s:125    .text:00000000000000d0 .L0 
     /tmp/ccwHAveC.s:127    .text:00000000000000d4 .L0 
     /tmp/ccwHAveC.s:128    .text:00000000000000d4 .L0 
     /tmp/ccwHAveC.s:130    .text:00000000000000d8 .L0 
     /tmp/ccwHAveC.s:131    .text:00000000000000d8 .L0 
     /tmp/ccwHAveC.s:135    .text:00000000000000e0 .L0 
GAS LISTING /tmp/ccwHAveC.s 			page 21


     /tmp/ccwHAveC.s:136    .text:00000000000000e4 .L0 
     /tmp/ccwHAveC.s:137    .text:00000000000000e4 .L0 
     /tmp/ccwHAveC.s:139    .text:00000000000000e8 .L0 
     /tmp/ccwHAveC.s:141    .text:00000000000000ec .L0 
     /tmp/ccwHAveC.s:147    .text:00000000000000ec _ZN15MemoryAllocator9mem_allocEm
     /tmp/ccwHAveC.s:150    .text:00000000000000ec .L0 
     /tmp/ccwHAveC.s:152    .text:00000000000000ec .L0 
     /tmp/ccwHAveC.s:153    .text:00000000000000f0 .L0 
     /tmp/ccwHAveC.s:155    .text:00000000000000f4 .L0 
     /tmp/ccwHAveC.s:157    .text:00000000000000f8 .L0 
     /tmp/ccwHAveC.s:159    .text:00000000000000f8 .L0 
     /tmp/ccwHAveC.s:162    .text:0000000000000100 .L0 
     /tmp/ccwHAveC.s:169    .text:0000000000000120 .L0 
     /tmp/ccwHAveC.s:171    .text:0000000000000124 .L0 
     /tmp/ccwHAveC.s:174    .text:0000000000000128 .L0 
     /tmp/ccwHAveC.s:176    .text:0000000000000128 .L0 
     /tmp/ccwHAveC.s:177    .text:0000000000000128 .L0 
     /tmp/ccwHAveC.s:183    .text:0000000000000134 .L0 
     /tmp/ccwHAveC.s:186    .text:0000000000000138 .L0 
     /tmp/ccwHAveC.s:187    .text:0000000000000138 .L0 
     /tmp/ccwHAveC.s:189    .text:000000000000013c .L0 
     /tmp/ccwHAveC.s:191    .text:0000000000000140 .L0 
     /tmp/ccwHAveC.s:193    .text:0000000000000144 .L0 
     /tmp/ccwHAveC.s:194    .text:0000000000000144 .L0 
     /tmp/ccwHAveC.s:197    .text:000000000000014c .L0 
     /tmp/ccwHAveC.s:198    .text:000000000000014c .L0 
     /tmp/ccwHAveC.s:200    .text:0000000000000150 .L0 
     /tmp/ccwHAveC.s:203    .text:0000000000000154 .L0 
     /tmp/ccwHAveC.s:204    .text:0000000000000154 .L0 
     /tmp/ccwHAveC.s:206    .text:0000000000000158 .L0 
     /tmp/ccwHAveC.s:207    .text:0000000000000158 .L0 
     /tmp/ccwHAveC.s:209    .text:000000000000015c .L0 
     /tmp/ccwHAveC.s:210    .text:000000000000015c .L0 
     /tmp/ccwHAveC.s:214    .text:0000000000000160 .L0 
     /tmp/ccwHAveC.s:215    .text:0000000000000160 .L0 
     /tmp/ccwHAveC.s:217    .text:0000000000000168 .L0 
     /tmp/ccwHAveC.s:219    .text:000000000000016c .L0 
     /tmp/ccwHAveC.s:223    .text:0000000000000170 .L0 
     /tmp/ccwHAveC.s:224    .text:0000000000000170 .L0 
     /tmp/ccwHAveC.s:226    .text:0000000000000174 .L0 
     /tmp/ccwHAveC.s:229    .text:0000000000000178 .L0 
     /tmp/ccwHAveC.s:231    .text:000000000000017c .L0 
     /tmp/ccwHAveC.s:234    .text:0000000000000180 .L0 
     /tmp/ccwHAveC.s:235    .text:0000000000000180 .L0 
     /tmp/ccwHAveC.s:237    .text:0000000000000184 .L0 
     /tmp/ccwHAveC.s:239    .text:0000000000000188 .L0 
     /tmp/ccwHAveC.s:240    .text:0000000000000188 .L0 
     /tmp/ccwHAveC.s:243    .text:000000000000018c .L0 
     /tmp/ccwHAveC.s:244    .text:000000000000018c .L0 
     /tmp/ccwHAveC.s:246    .text:0000000000000190 .L0 
     /tmp/ccwHAveC.s:247    .text:0000000000000190 .L0 
     /tmp/ccwHAveC.s:249    .text:0000000000000194 .L0 
     /tmp/ccwHAveC.s:250    .text:0000000000000194 .L0 
     /tmp/ccwHAveC.s:256    .text:0000000000000198 .L0 
     /tmp/ccwHAveC.s:257    .text:000000000000019c .L0 
     /tmp/ccwHAveC.s:258    .text:000000000000019c .L0 
     /tmp/ccwHAveC.s:259    .text:000000000000019c .L0 
GAS LISTING /tmp/ccwHAveC.s 			page 22


     /tmp/ccwHAveC.s:261    .text:00000000000001a0 .L0 
     /tmp/ccwHAveC.s:265    .text:00000000000001a4 .L0 
     /tmp/ccwHAveC.s:270    .text:00000000000001a4 .L0 
     /tmp/ccwHAveC.s:271    .text:00000000000001a4 .L0 
     /tmp/ccwHAveC.s:272    .text:00000000000001a4 .L0 
     /tmp/ccwHAveC.s:275    .text:00000000000001a8 .L0 
     /tmp/ccwHAveC.s:279    .text:00000000000001ac .L0 
     /tmp/ccwHAveC.s:280    .text:00000000000001ac .L0 
     /tmp/ccwHAveC.s:283    .text:00000000000001b0 .L0 
     /tmp/ccwHAveC.s:285    .text:00000000000001b4 .L0 
     /tmp/ccwHAveC.s:286    .text:00000000000001b4 .L0 
     /tmp/ccwHAveC.s:288    .text:00000000000001b8 .L0 
     /tmp/ccwHAveC.s:291    .text:00000000000001bc .L0 
     /tmp/ccwHAveC.s:292    .text:00000000000001bc .L0 
     /tmp/ccwHAveC.s:294    .text:00000000000001c0 .L0 
     /tmp/ccwHAveC.s:296    .text:00000000000001c4 .L0 
     /tmp/ccwHAveC.s:297    .text:00000000000001c4 .L0 
     /tmp/ccwHAveC.s:299    .text:00000000000001c8 .L0 
     /tmp/ccwHAveC.s:302    .text:00000000000001cc .L0 
     /tmp/ccwHAveC.s:305    .text:00000000000001d0 .L0 
     /tmp/ccwHAveC.s:306    .text:00000000000001d0 .L0 
     /tmp/ccwHAveC.s:308    .text:00000000000001d4 .L0 
     /tmp/ccwHAveC.s:312    .text:00000000000001dc .L0 
     /tmp/ccwHAveC.s:313    .text:00000000000001dc .L0 
     /tmp/ccwHAveC.s:315    .text:00000000000001e0 .L0 
     /tmp/ccwHAveC.s:319    .text:00000000000001ec .L0 
     /tmp/ccwHAveC.s:320    .text:00000000000001ec .L0 
     /tmp/ccwHAveC.s:322    .text:00000000000001f4 .L0 
     /tmp/ccwHAveC.s:323    .text:00000000000001f4 .L0 
     /tmp/ccwHAveC.s:329    .text:00000000000001fc .L0 
     /tmp/ccwHAveC.s:330    .text:00000000000001fc .L0 
     /tmp/ccwHAveC.s:332    .text:0000000000000200 .L0 
     /tmp/ccwHAveC.s:333    .text:0000000000000200 .L0 
     /tmp/ccwHAveC.s:335    .text:0000000000000204 .L0 
     /tmp/ccwHAveC.s:336    .text:0000000000000204 .L0 
     /tmp/ccwHAveC.s:338    .text:000000000000020c .L0 
     /tmp/ccwHAveC.s:339    .text:000000000000020c .L0 
     /tmp/ccwHAveC.s:347    .text:0000000000000214 .L0 
     /tmp/ccwHAveC.s:355    .text:0000000000000224 .L0 
     /tmp/ccwHAveC.s:361    .text:0000000000000224 _ZN15MemoryAllocator9tryToJoinEPNS_6DBlockE
     /tmp/ccwHAveC.s:364    .text:0000000000000224 .L0 
     /tmp/ccwHAveC.s:366    .text:0000000000000224 .L0 
     /tmp/ccwHAveC.s:367    .text:0000000000000228 .L0 
     /tmp/ccwHAveC.s:369    .text:000000000000022c .L0 
     /tmp/ccwHAveC.s:371    .text:0000000000000230 .L0 
     /tmp/ccwHAveC.s:373    .text:0000000000000230 .L0 
     /tmp/ccwHAveC.s:375    .text:0000000000000234 .L0 
     /tmp/ccwHAveC.s:376    .text:0000000000000234 .L0 
     /tmp/ccwHAveC.s:378    .text:0000000000000238 .L0 
     /tmp/ccwHAveC.s:380    .text:000000000000023c .L0 
     /tmp/ccwHAveC.s:382    .text:0000000000000240 .L0 
     /tmp/ccwHAveC.s:384    .text:0000000000000244 .L0 
     /tmp/ccwHAveC.s:386    .text:0000000000000248 .L0 
     /tmp/ccwHAveC.s:389    .text:000000000000024c .L0 
     /tmp/ccwHAveC.s:390    .text:0000000000000250 .L0 
     /tmp/ccwHAveC.s:391    .text:0000000000000250 .L0 
     /tmp/ccwHAveC.s:392    .text:0000000000000250 .L0 
GAS LISTING /tmp/ccwHAveC.s 			page 23


     /tmp/ccwHAveC.s:394    .text:0000000000000254 .L0 
     /tmp/ccwHAveC.s:397    .text:0000000000000258 .L0 
     /tmp/ccwHAveC.s:399    .text:0000000000000258 .L0 
     /tmp/ccwHAveC.s:400    .text:0000000000000258 .L0 
     /tmp/ccwHAveC.s:402    .text:000000000000025c .L0 
     /tmp/ccwHAveC.s:405    .text:0000000000000264 .L0 
     /tmp/ccwHAveC.s:406    .text:0000000000000264 .L0 
     /tmp/ccwHAveC.s:408    .text:0000000000000268 .L0 
     /tmp/ccwHAveC.s:410    .text:000000000000026c .L0 
     /tmp/ccwHAveC.s:412    .text:0000000000000270 .L0 
     /tmp/ccwHAveC.s:413    .text:0000000000000270 .L0 
     /tmp/ccwHAveC.s:415    .text:0000000000000278 .L0 
     /tmp/ccwHAveC.s:421    .text:0000000000000278 _ZN15MemoryAllocator8mem_freeEPv
     /tmp/ccwHAveC.s:424    .text:0000000000000278 .L0 
     /tmp/ccwHAveC.s:426    .text:0000000000000278 .L0 
     /tmp/ccwHAveC.s:427    .text:0000000000000278 .L0 
     /tmp/ccwHAveC.s:429    .text:000000000000027c .L0 
     /tmp/ccwHAveC.s:430    .text:0000000000000280 .L0 
     /tmp/ccwHAveC.s:434    .text:000000000000028c .L0 
     /tmp/ccwHAveC.s:435    .text:000000000000028c .L0 
     /tmp/ccwHAveC.s:436    .text:000000000000028c .L0 
     /tmp/ccwHAveC.s:438    .text:0000000000000290 .L0 
     /tmp/ccwHAveC.s:440    .text:0000000000000290 .L0 
     /tmp/ccwHAveC.s:441    .text:0000000000000290 .L0 
     /tmp/ccwHAveC.s:445    .text:0000000000000294 .L0 
     /tmp/ccwHAveC.s:446    .text:0000000000000294 .L0 
     /tmp/ccwHAveC.s:456    .text:00000000000002a4 .L0 
     /tmp/ccwHAveC.s:459    .text:00000000000002a8 .L0 
     /tmp/ccwHAveC.s:460    .text:00000000000002a8 .L0 
     /tmp/ccwHAveC.s:464    .text:00000000000002ac .L0 
     /tmp/ccwHAveC.s:466    .text:00000000000002b0 .L0 
     /tmp/ccwHAveC.s:469    .text:00000000000002b4 .L0 
     /tmp/ccwHAveC.s:478    .text:00000000000002bc .L0 
     /tmp/ccwHAveC.s:479    .text:00000000000002bc .L0 
     /tmp/ccwHAveC.s:481    .text:00000000000002c0 .L0 
     /tmp/ccwHAveC.s:483    .text:00000000000002c4 .L0 
     /tmp/ccwHAveC.s:484    .text:00000000000002c4 .L0 
     /tmp/ccwHAveC.s:486    .text:00000000000002c8 .L0 
     /tmp/ccwHAveC.s:489    .text:00000000000002cc .L0 
     /tmp/ccwHAveC.s:490    .text:00000000000002cc .L0 
     /tmp/ccwHAveC.s:492    .text:00000000000002d0 .L0 
     /tmp/ccwHAveC.s:494    .text:00000000000002d4 .L0 
     /tmp/ccwHAveC.s:495    .text:00000000000002d4 .L0 
     /tmp/ccwHAveC.s:497    .text:00000000000002d8 .L0 
     /tmp/ccwHAveC.s:500    .text:00000000000002dc .L0 
     /tmp/ccwHAveC.s:503    .text:00000000000002e0 .L0 
     /tmp/ccwHAveC.s:504    .text:00000000000002e0 .L0 
     /tmp/ccwHAveC.s:506    .text:00000000000002e4 .L0 
     /tmp/ccwHAveC.s:508    .text:00000000000002e8 .L0 
     /tmp/ccwHAveC.s:509    .text:00000000000002e8 .L0 
     /tmp/ccwHAveC.s:511    .text:00000000000002f0 .L0 
     /tmp/ccwHAveC.s:513    .text:00000000000002f4 .L0 
     /tmp/ccwHAveC.s:517    .text:00000000000002f8 .L0 
     /tmp/ccwHAveC.s:518    .text:00000000000002f8 .L0 
     /tmp/ccwHAveC.s:520    .text:00000000000002fc .L0 
     /tmp/ccwHAveC.s:523    .text:0000000000000300 .L0 
     /tmp/ccwHAveC.s:525    .text:0000000000000304 .L0 
GAS LISTING /tmp/ccwHAveC.s 			page 24


     /tmp/ccwHAveC.s:528    .text:0000000000000308 .L0 
     /tmp/ccwHAveC.s:529    .text:0000000000000308 .L0 
     /tmp/ccwHAveC.s:531    .text:000000000000030c .L0 
     /tmp/ccwHAveC.s:533    .text:0000000000000310 .L0 
     /tmp/ccwHAveC.s:534    .text:0000000000000310 .L0 
     /tmp/ccwHAveC.s:537    .text:0000000000000314 .L0 
     /tmp/ccwHAveC.s:538    .text:0000000000000314 .L0 
     /tmp/ccwHAveC.s:540    .text:0000000000000318 .L0 
     /tmp/ccwHAveC.s:541    .text:0000000000000318 .L0 
     /tmp/ccwHAveC.s:543    .text:000000000000031c .L0 
     /tmp/ccwHAveC.s:544    .text:000000000000031c .L0 
     /tmp/ccwHAveC.s:549    .text:0000000000000328 .L0 
     /tmp/ccwHAveC.s:550    .text:0000000000000328 .L0 
     /tmp/ccwHAveC.s:554    .text:0000000000000334 .L0 
     /tmp/ccwHAveC.s:555    .text:0000000000000334 .L0 
     /tmp/ccwHAveC.s:561    .text:0000000000000338 .L0 
     /tmp/ccwHAveC.s:562    .text:000000000000033c .L0 
     /tmp/ccwHAveC.s:563    .text:000000000000033c .L0 
     /tmp/ccwHAveC.s:565    .text:0000000000000340 .L0 
     /tmp/ccwHAveC.s:566    .text:0000000000000340 .L0 
     /tmp/ccwHAveC.s:568    .text:0000000000000344 .L0 
     /tmp/ccwHAveC.s:571    .text:0000000000000348 .L0 
     /tmp/ccwHAveC.s:575    .text:000000000000034c .L0 
     /tmp/ccwHAveC.s:580    .text:000000000000034c .L0 
     /tmp/ccwHAveC.s:581    .text:000000000000034c .L0 
     /tmp/ccwHAveC.s:583    .text:0000000000000350 .L0 
     /tmp/ccwHAveC.s:587    .text:000000000000035c .L0 
     /tmp/ccwHAveC.s:588    .text:000000000000035c .L0 
     /tmp/ccwHAveC.s:590    .text:0000000000000364 .L0 
     /tmp/ccwHAveC.s:591    .text:0000000000000364 .L0 
     /tmp/ccwHAveC.s:597    .text:000000000000036c .L0 
     /tmp/ccwHAveC.s:598    .text:000000000000036c .L0 
     /tmp/ccwHAveC.s:600    .text:0000000000000370 .L0 
     /tmp/ccwHAveC.s:601    .text:0000000000000370 .L0 
     /tmp/ccwHAveC.s:603    .text:0000000000000374 .L0 
     /tmp/ccwHAveC.s:604    .text:0000000000000374 .L0 
     /tmp/ccwHAveC.s:606    .text:000000000000037c .L0 
     /tmp/ccwHAveC.s:607    .text:000000000000037c .L0 
     /tmp/ccwHAveC.s:612    .text:0000000000000388 .L0 
     /tmp/ccwHAveC.s:613    .text:0000000000000388 .L0 
     /tmp/ccwHAveC.s:617    .text:0000000000000390 .L0 
     /tmp/ccwHAveC.s:618    .text:0000000000000390 .L0 
     /tmp/ccwHAveC.s:619    .text:0000000000000390 .L0 
     /tmp/ccwHAveC.s:620    .text:0000000000000390 .L0 
     /tmp/ccwHAveC.s:625    .text:0000000000000390 .L0 
     /tmp/ccwHAveC.s:628    .text:0000000000000394 .L0 
     /tmp/ccwHAveC.s:629    .text:0000000000000398 .L0 
     /tmp/ccwHAveC.s:635    .text:0000000000000398 _ZN15MemoryAllocator8printMemEv
     /tmp/ccwHAveC.s:638    .text:0000000000000398 .L0 
     /tmp/ccwHAveC.s:639    .text:0000000000000398 .L0 
     /tmp/ccwHAveC.s:640    .text:000000000000039c .L0 
     /tmp/ccwHAveC.s:644    .text:00000000000003a8 .L0 
     /tmp/ccwHAveC.s:645    .text:00000000000003a8 .L0 
     /tmp/ccwHAveC.s:646    .text:00000000000003a8 .L0 
     /tmp/ccwHAveC.s:648    .text:00000000000003ac .L0 
     /tmp/ccwHAveC.s:651    .text:00000000000003ac .L0 
     /tmp/ccwHAveC.s:652    .text:00000000000003ac .L0 
GAS LISTING /tmp/ccwHAveC.s 			page 25


     /tmp/ccwHAveC.s:656    .text:00000000000003b4 .L0 
     /tmp/ccwHAveC.s:658    .text:00000000000003b8 .L0 
     /tmp/ccwHAveC.s:659    .text:00000000000003b8 .L0 
     /tmp/ccwHAveC.s:663    .text:00000000000003c4 .L0 
     /tmp/ccwHAveC.s:664    .text:00000000000003c4 .L0 
     /tmp/ccwHAveC.s:668    .text:00000000000003d0 .L0 
     /tmp/ccwHAveC.s:669    .text:00000000000003d0 .L0 
     /tmp/ccwHAveC.s:672    .text:00000000000003d4 .L0 
     /tmp/ccwHAveC.s:677    .text:00000000000003d8 .L0 
     /tmp/ccwHAveC.s:678    .text:00000000000003d8 .L0 
     /tmp/ccwHAveC.s:682    .text:00000000000003e0 .L0 
     /tmp/ccwHAveC.s:684    .text:00000000000003e4 .L0 
     /tmp/ccwHAveC.s:685    .text:00000000000003e4 .L0 
     /tmp/ccwHAveC.s:689    .text:00000000000003f0 .L0 
     /tmp/ccwHAveC.s:690    .text:00000000000003f0 .L0 
     /tmp/ccwHAveC.s:694    .text:00000000000003fc .L0 
     /tmp/ccwHAveC.s:695    .text:00000000000003fc .L0 
     /tmp/ccwHAveC.s:698    .text:0000000000000400 .L0 
     /tmp/ccwHAveC.s:702    .text:0000000000000404 .L0 
     /tmp/ccwHAveC.s:703    .text:0000000000000408 .L0 
     /tmp/ccwHAveC.s:705    .text:000000000000040c .L0 
     /tmp/ccwHAveC.s:706    .text:000000000000040c .L0 
     /tmp/ccwHAveC.s:708    .text:0000000000000410 .L0 
     /tmp/ccwHAveC.s:711    .text:0000000000000414 .L0 
     /tmp/ccwHAveC.s:713    .text:0000000000000418 .L0 
     /tmp/ccwHAveC.s:725    .rodata:0000000000000000 _ZN15MemoryAllocator10DBlockSizeE
     /tmp/ccwHAveC.s:732    .data:0000000000000000 digits
     /tmp/ccwHAveC.s:739    .bss:0000000000000000 _ZN15MemoryAllocator11initializedE
     /tmp/ccwHAveC.s:744    .bss:0000000000000008 _ZN15MemoryAllocator8headFreeE
     /tmp/ccwHAveC.s:748    .bss:0000000000000010 _ZN15MemoryAllocator8headFullE
     /tmp/ccwHAveC.s:729    .data:0000000000000000 .LANCHOR0
     /tmp/ccwHAveC.s:736    .bss:0000000000000000 .LANCHOR1
     /tmp/ccwHAveC.s:755    .text:0000000000000418 .L0 
     /tmp/ccwHAveC.s:40     .text:0000000000000020 .L0 
     /tmp/ccwHAveC.s:100    .text:0000000000000088 .L0 
     /tmp/ccwHAveC.s:105    .text:0000000000000094 .L0 
     /tmp/ccwHAveC.s:107    .text:00000000000000a0 .L0 
     /tmp/ccwHAveC.s:111    .text:00000000000000ac .L0 
     /tmp/ccwHAveC.s:162    .text:0000000000000100 .L0 
     /tmp/ccwHAveC.s:164    .text:000000000000010c .L0 
     /tmp/ccwHAveC.s:177    .text:0000000000000128 .L0 
     /tmp/ccwHAveC.s:215    .text:0000000000000160 .L0 
     /tmp/ccwHAveC.s:315    .text:00000000000001e0 .L0 
     /tmp/ccwHAveC.s:320    .text:00000000000001ec .L0 
     /tmp/ccwHAveC.s:336    .text:0000000000000204 .L0 
     /tmp/ccwHAveC.s:446    .text:0000000000000294 .L0 
     /tmp/ccwHAveC.s:509    .text:00000000000002e8 .L0 
     /tmp/ccwHAveC.s:583    .text:0000000000000350 .L0 
     /tmp/ccwHAveC.s:588    .text:000000000000035c .L0 
     /tmp/ccwHAveC.s:604    .text:0000000000000374 .L0 
     /tmp/ccwHAveC.s:652    .text:00000000000003ac .L0 
     /tmp/ccwHAveC.s:678    .text:00000000000003d8 .L0 
     /tmp/ccwHAveC.s:32     .text:0000000000000018 .L2
     /tmp/ccwHAveC.s:70     .text:0000000000000068 .L1
     /tmp/ccwHAveC.s:55     .text:0000000000000048 .L4
     /tmp/ccwHAveC.s:133    .text:00000000000000e0 .L6
     /tmp/ccwHAveC.s:343    .text:0000000000000214 .L22
GAS LISTING /tmp/ccwHAveC.s 			page 26


     /tmp/ccwHAveC.s:351    .text:000000000000021c .L23
     /tmp/ccwHAveC.s:252    .text:0000000000000198 .L9
     /tmp/ccwHAveC.s:264    .text:00000000000001a4 .L25
     /tmp/ccwHAveC.s:276    .text:00000000000001ac .L26
     /tmp/ccwHAveC.s:317    .text:00000000000001ec .L27
     /tmp/ccwHAveC.s:327    .text:00000000000001fc .L28
     /tmp/ccwHAveC.s:232    .text:0000000000000180 .L20
     /tmp/ccwHAveC.s:220    .text:0000000000000170 .L19
     /tmp/ccwHAveC.s:241    .text:000000000000018c .L21
     /tmp/ccwHAveC.s:181    .text:0000000000000134 .L12
     /tmp/ccwHAveC.s:289    .text:00000000000001bc .L14
     /tmp/ccwHAveC.s:300    .text:00000000000001cc .L15
     /tmp/ccwHAveC.s:310    .text:00000000000001dc .L29
     /tmp/ccwHAveC.s:212    .text:0000000000000160 .L17
     /tmp/ccwHAveC.s:303    .text:00000000000001d0 .L16
     /tmp/ccwHAveC.s:387    .text:000000000000024c .L30
     /tmp/ccwHAveC.s:396    .text:0000000000000258 .L33
     /tmp/ccwHAveC.s:616    .text:0000000000000390 .L46
     /tmp/ccwHAveC.s:462    .text:00000000000002ac .L45
     /tmp/ccwHAveC.s:473    .text:00000000000002bc .L52
     /tmp/ccwHAveC.s:451    .text:00000000000002a4 .L36
     /tmp/ccwHAveC.s:556    .text:0000000000000338 .L35
     /tmp/ccwHAveC.s:487    .text:00000000000002cc .L38
     /tmp/ccwHAveC.s:498    .text:00000000000002dc .L39
     /tmp/ccwHAveC.s:574    .text:000000000000034c .L53
     /tmp/ccwHAveC.s:585    .text:000000000000035c .L54
     /tmp/ccwHAveC.s:595    .text:000000000000036c .L55
     /tmp/ccwHAveC.s:526    .text:0000000000000308 .L43
     /tmp/ccwHAveC.s:514    .text:00000000000002f8 .L42
     /tmp/ccwHAveC.s:535    .text:0000000000000314 .L44
     /tmp/ccwHAveC.s:501    .text:00000000000002e0 .L40
     /tmp/ccwHAveC.s:673    .text:00000000000003d8 .L57
     /tmp/ccwHAveC.s:654    .text:00000000000003b4 .L58
     /tmp/ccwHAveC.s:699    .text:0000000000000404 .L56
     /tmp/ccwHAveC.s:680    .text:00000000000003e0 .L60
     /tmp/ccwHAveC.s:1375   .debug_abbrev:0000000000000000 .Ldebug_abbrev0
     /tmp/ccwHAveC.s:2451   .debug_str:0000000000000200 .LASF46
     /tmp/ccwHAveC.s:2449   .debug_str:00000000000001e8 .LASF47
     /tmp/ccwHAveC.s:2479   .debug_str:0000000000000399 .LASF48
     /tmp/ccwHAveC.s:5      .text:0000000000000000 .Ltext0
     /tmp/ccwHAveC.s:751    .text:0000000000000418 .Letext0
     /tmp/ccwHAveC.s:2389   .debug_line:0000000000000000 .Ldebug_line0
     /tmp/ccwHAveC.s:2457   .debug_str:00000000000002d8 .LASF0
     /tmp/ccwHAveC.s:2437   .debug_str:000000000000017c .LASF1
     /tmp/ccwHAveC.s:2429   .debug_str:0000000000000134 .LASF2
     /tmp/ccwHAveC.s:2405   .debug_str:000000000000004c .LASF4
     /tmp/ccwHAveC.s:2435   .debug_str:000000000000016a .LASF3
     /tmp/ccwHAveC.s:2395   .debug_str:0000000000000023 .LASF5
     /tmp/ccwHAveC.s:2391   .debug_str:0000000000000000 .LASF6
     /tmp/ccwHAveC.s:2421   .debug_str:00000000000000e8 .LASF7
     /tmp/ccwHAveC.s:2467   .debug_str:000000000000031f .LASF8
     /tmp/ccwHAveC.s:2403   .debug_str:000000000000003e .LASF9
     /tmp/ccwHAveC.s:2501   .debug_str:000000000000043f .LASF10
     /tmp/ccwHAveC.s:2425   .debug_str:0000000000000104 .LASF11
     /tmp/ccwHAveC.s:2489   .debug_str:00000000000003f2 .LASF12
     /tmp/ccwHAveC.s:2473   .debug_str:0000000000000361 .LASF13
     /tmp/ccwHAveC.s:2439   .debug_str:000000000000018f .LASF14
GAS LISTING /tmp/ccwHAveC.s 			page 27


     /tmp/ccwHAveC.s:2417   .debug_str:00000000000000c9 .LASF15
     /tmp/ccwHAveC.s:2469   .debug_str:000000000000032f .LASF16
     /tmp/ccwHAveC.s:2393   .debug_str:0000000000000013 .LASF28
     /tmp/ccwHAveC.s:2453   .debug_str:00000000000002c4 .LASF49
     /tmp/ccwHAveC.s:2495   .debug_str:0000000000000416 .LASF17
     /tmp/ccwHAveC.s:2397   .debug_str:000000000000002a .LASF18
     /tmp/ccwHAveC.s:2499   .debug_str:000000000000043a .LASF19
     /tmp/ccwHAveC.s:2415   .debug_str:00000000000000c4 .LASF24
     /tmp/ccwHAveC.s:2471   .debug_str:0000000000000345 .LASF26
     /tmp/ccwHAveC.s:2493   .debug_str:000000000000040c .LASF20
     /tmp/ccwHAveC.s:2485   .debug_str:00000000000003c8 .LASF22
     /tmp/ccwHAveC.s:2475   .debug_str:0000000000000371 .LASF21
     /tmp/ccwHAveC.s:2427   .debug_str:0000000000000113 .LASF23
     /tmp/ccwHAveC.s:2411   .debug_str:000000000000009f .LASF44
     /tmp/ccwHAveC.s:2491   .debug_str:0000000000000402 .LASF50
     /tmp/ccwHAveC.s:2431   .debug_str:0000000000000142 .LASF51
     /tmp/ccwHAveC.s:2487   .debug_str:00000000000003e9 .LASF25
     /tmp/ccwHAveC.s:2407   .debug_str:0000000000000053 .LASF27
     /tmp/ccwHAveC.s:2461   .debug_str:00000000000002ea .LASF52
     /tmp/ccwHAveC.s:2447   .debug_str:00000000000001cf .LASF29
     /tmp/ccwHAveC.s:2423   .debug_str:00000000000000fb .LASF30
     /tmp/ccwHAveC.s:2419   .debug_str:00000000000000df .LASF31
     /tmp/ccwHAveC.s:2433   .debug_str:000000000000015e .LASF32
     /tmp/ccwHAveC.s:2399   .debug_str:000000000000002f .LASF53
     /tmp/ccwHAveC.s:2409   .debug_str:0000000000000073 .LASF54
     /tmp/ccwHAveC.s:2481   .debug_str:00000000000003bc .LASF33
     /tmp/ccwHAveC.s:2477   .debug_str:000000000000037a .LASF34
     /tmp/ccwHAveC.s:2497   .debug_str:000000000000041b .LASF35
     /tmp/ccwHAveC.s:2465   .debug_str:00000000000002fc .LASF36
     /tmp/ccwHAveC.s:2459   .debug_str:00000000000002e5 .LASF37
     /tmp/ccwHAveC.s:2483   .debug_str:00000000000003c1 .LASF38
     /tmp/ccwHAveC.s:2445   .debug_str:00000000000001ad .LASF39
     /tmp/ccwHAveC.s:636    .text:0000000000000398 .LFB5
     /tmp/ccwHAveC.s:714    .text:0000000000000418 .LFE5
     /tmp/ccwHAveC.s:650    .text:00000000000003ac .LBB16
     /tmp/ccwHAveC.s:674    .text:00000000000003d8 .LBE16
     /tmp/ccwHAveC.s:2114   .debug_loc:0000000000000000 .LLST8
     /tmp/ccwHAveC.s:661    .text:00000000000003c4 .LVL50
     /tmp/ccwHAveC.s:666    .text:00000000000003d0 .LVL51
     /tmp/ccwHAveC.s:676    .text:00000000000003d8 .LBB17
     /tmp/ccwHAveC.s:700    .text:0000000000000404 .LBE17
     /tmp/ccwHAveC.s:2121   .debug_loc:0000000000000023 .LLST9
     /tmp/ccwHAveC.s:687    .text:00000000000003f0 .LVL54
     /tmp/ccwHAveC.s:692    .text:00000000000003fc .LVL55
     /tmp/ccwHAveC.s:362    .text:0000000000000224 .LFB4
     /tmp/ccwHAveC.s:416    .text:0000000000000278 .LFE4
     /tmp/ccwHAveC.s:2401   .debug_str:0000000000000039 .LASF40
     /tmp/ccwHAveC.s:422    .text:0000000000000278 .LFB3
     /tmp/ccwHAveC.s:630    .text:0000000000000398 .LFE3
     /tmp/ccwHAveC.s:2128   .debug_loc:0000000000000046 .LLST5
     /tmp/ccwHAveC.s:2363   .debug_ranges:0000000000000000 .Ldebug_ranges0
     /tmp/ccwHAveC.s:2198   .debug_loc:000000000000013e .LLST6
     /tmp/ccwHAveC.s:2443   .debug_str:00000000000001a4 .LASF41
     /tmp/ccwHAveC.s:2213   .debug_loc:0000000000000187 .LLST7
     /tmp/ccwHAveC.s:547    .text:0000000000000328 .LVL39
     /tmp/ccwHAveC.s:552    .text:0000000000000334 .LVL40
     /tmp/ccwHAveC.s:610    .text:0000000000000388 .LVL46
GAS LISTING /tmp/ccwHAveC.s 			page 28


     /tmp/ccwHAveC.s:148    .text:00000000000000ec .LFB2
     /tmp/ccwHAveC.s:356    .text:0000000000000224 .LFE2
     /tmp/ccwHAveC.s:2224   .debug_loc:00000000000001bd .LLST2
     /tmp/ccwHAveC.s:2272   .debug_loc:0000000000000281 .LLST3
     /tmp/ccwHAveC.s:2441   .debug_str:000000000000019b .LASF42
     /tmp/ccwHAveC.s:2306   .debug_loc:0000000000000327 .LLST4
     /tmp/ccwHAveC.s:89     .text:000000000000007c .LFB1
     /tmp/ccwHAveC.s:142    .text:00000000000000ec .LFE1
     /tmp/ccwHAveC.s:2413   .debug_str:00000000000000bb .LASF43
     /tmp/ccwHAveC.s:2455   .debug_str:00000000000002cb .LASF45
     /tmp/ccwHAveC.s:10     .text:0000000000000000 .LFB0
     /tmp/ccwHAveC.s:83     .text:000000000000007c .LFE0
     /tmp/ccwHAveC.s:2317   .debug_loc:000000000000035d .LLST0
     /tmp/ccwHAveC.s:2328   .debug_loc:0000000000000393 .LLST1
     /tmp/ccwHAveC.s:68     .text:0000000000000064 .LVL8
     /tmp/ccwHAveC.s:2463   .debug_str:00000000000002f5 .LASF55
     /tmp/ccwHAveC.s:653    .text:00000000000003b4 .LVL49
     /tmp/ccwHAveC.s:679    .text:00000000000003e0 .LVL53
     /tmp/ccwHAveC.s:709    .text:0000000000000410 .LVL57
     /tmp/ccwHAveC.s:425    .text:0000000000000278 .LVL29
     /tmp/ccwHAveC.s:442    .text:0000000000000294 .LVL30
     /tmp/ccwHAveC.s:470    .text:00000000000002b8 .LVL34
     /tmp/ccwHAveC.s:472    .text:00000000000002bc .LVL35
     /tmp/ccwHAveC.s:545    .text:0000000000000320 .LVL38
     /tmp/ccwHAveC.s:573    .text:000000000000034c .LVL42
     /tmp/ccwHAveC.s:592    .text:0000000000000368 .LVL43
     /tmp/ccwHAveC.s:594    .text:000000000000036c .LVL44
     /tmp/ccwHAveC.s:608    .text:0000000000000380 .LVL45
     /tmp/ccwHAveC.s:615    .text:0000000000000390 .LVL47
     /tmp/ccwHAveC.s:626    .text:0000000000000394 .LVL48
     /tmp/ccwHAveC.s:447    .text:000000000000029c .LVL31
     /tmp/ccwHAveC.s:450    .text:00000000000002a4 .LVL32
     /tmp/ccwHAveC.s:569    .text:0000000000000344 .LVL41
     /tmp/ccwHAveC.s:515    .text:00000000000002f8 .LVL36
     /tmp/ccwHAveC.s:521    .text:0000000000000300 .LVL37
     /tmp/ccwHAveC.s:151    .text:00000000000000ec .LVL9
     /tmp/ccwHAveC.s:180    .text:0000000000000134 .LVL12
     /tmp/ccwHAveC.s:211    .text:0000000000000160 .LVL14
     /tmp/ccwHAveC.s:263    .text:00000000000001a4 .LVL18
     /tmp/ccwHAveC.s:281    .text:00000000000001b0 .LVL20
     /tmp/ccwHAveC.s:342    .text:0000000000000214 .LVL24
     /tmp/ccwHAveC.s:348    .text:0000000000000218 .LVL25
     /tmp/ccwHAveC.s:350    .text:000000000000021c .LVL26
     /tmp/ccwHAveC.s:353    .text:0000000000000220 .LVL27
     /tmp/ccwHAveC.s:173    .text:0000000000000128 .LVL10
     /tmp/ccwHAveC.s:178    .text:0000000000000130 .LVL11
     /tmp/ccwHAveC.s:251    .text:0000000000000198 .LVL17
     /tmp/ccwHAveC.s:324    .text:00000000000001f8 .LVL21
     /tmp/ccwHAveC.s:326    .text:00000000000001fc .LVL22
     /tmp/ccwHAveC.s:340    .text:0000000000000210 .LVL23
     /tmp/ccwHAveC.s:221    .text:0000000000000170 .LVL15
     /tmp/ccwHAveC.s:227    .text:0000000000000178 .LVL16
     /tmp/ccwHAveC.s:14     .text:0000000000000000 .LVL0
     /tmp/ccwHAveC.s:31     .text:0000000000000018 .LVL2
     /tmp/ccwHAveC.s:52     .text:0000000000000044 .LVL5
     /tmp/ccwHAveC.s:28     .text:0000000000000014 .LVL1
     /tmp/ccwHAveC.s:38     .text:0000000000000020 .LVL3
GAS LISTING /tmp/ccwHAveC.s 			page 29


     /tmp/ccwHAveC.s:47     .text:000000000000003c .LVL4
     /tmp/ccwHAveC.s:56     .text:0000000000000048 .LVL6
     /tmp/ccwHAveC.s:60     .text:000000000000004c .LVL7
     /tmp/ccwHAveC.s:756    .debug_info:0000000000000000 .Ldebug_info0
     /tmp/ccwHAveC.s:184    .text:0000000000000138 .LBB3
     /tmp/ccwHAveC.s:253    .text:0000000000000198 .LBE3
     /tmp/ccwHAveC.s:267    .text:00000000000001a4 .LBB4
     /tmp/ccwHAveC.s:269    .text:00000000000001a4 .LBE4
     /tmp/ccwHAveC.s:277    .text:00000000000001ac .LBB5
     /tmp/ccwHAveC.s:344    .text:0000000000000214 .LBE5
     /tmp/ccwHAveC.s:444    .text:0000000000000294 .LBB7
     /tmp/ccwHAveC.s:452    .text:00000000000002a4 .LBE7
     /tmp/ccwHAveC.s:454    .text:00000000000002a4 .LBB13
     /tmp/ccwHAveC.s:467    .text:00000000000002b4 .LBE13
     /tmp/ccwHAveC.s:474    .text:00000000000002bc .LBB14
     /tmp/ccwHAveC.s:559    .text:0000000000000338 .LBE14
     /tmp/ccwHAveC.s:576    .text:000000000000034c .LBB15
     /tmp/ccwHAveC.s:623    .text:0000000000000390 .LBE15
     /tmp/ccwHAveC.s:476    .text:00000000000002bc .LBB9
     /tmp/ccwHAveC.s:557    .text:0000000000000338 .LBE9
     /tmp/ccwHAveC.s:578    .text:000000000000034c .LBB10
     /tmp/ccwHAveC.s:621    .text:0000000000000390 .LBE10

UNDEFINED SYMBOLS
__putc
HEAP_START_ADDR
HEAP_END_ADDR
