GAS LISTING /tmp/cceiOEVW.s 			page 1


   1              		.file	"print.cpp"
   2              		.option pic
   3              		.option norelax
   4              		.text
   5              	.Ltext0:
   6              		.align	2
   7              		.globl	_Z8printIntm
   9              	_Z8printIntm:
  10              	.LFB0:
  11              		.file 1 "src/print.cpp"
   1:src/print.cpp **** #include "../h/syscallC.hpp"
   2:src/print.cpp **** 
   3:src/print.cpp **** void printInt(uint64 num) {
  12              		.loc 1 3 27
  13              		.cfi_startproc
  14              	.LVL0:
  15 0000 130101FD 		addi	sp,sp,-48
  16              		.cfi_def_cfa_offset 48
  17 0004 23341102 		sd	ra,40(sp)
  18 0008 23308102 		sd	s0,32(sp)
  19 000c 233C9100 		sd	s1,24(sp)
  20 0010 23382101 		sd	s2,16(sp)
  21 0014 23343101 		sd	s3,8(sp)
  22              		.cfi_offset 1, -8
  23              		.cfi_offset 8, -16
  24              		.cfi_offset 9, -24
  25              		.cfi_offset 18, -32
  26              		.cfi_offset 19, -40
  27 0018 13040103 		addi	s0,sp,48
  28              		.cfi_def_cfa 8, 0
  29 001c 13090500 		mv	s2,a0
   4:src/print.cpp ****     putc('\n');
  30              		.loc 1 4 5
  31              		.loc 1 4 9 is_stmt 0
  32 0020 1305A000 		li	a0,10
  33              	.LVL1:
  34 0024 97000000 		call	_Z4putcc@plt
  34      E7800000 
  35              	.LVL2:
   5:src/print.cpp ****     if (!num) putc('0');
  36              		.loc 1 5 5 is_stmt 1
  37 002c 63080900 		beqz	s2,.L9
  38              	.L2:
   6:src/print.cpp ****     uint64 num2 = 0, zero_count = 0;
  39              		.loc 1 6 5
  40              	.LVL3:
  41              		.loc 1 6 22 is_stmt 0
  42 0030 93090000 		li	s3,0
  43              		.loc 1 6 12
  44 0034 93040000 		li	s1,0
  45 0038 6F00C001 		j	.L5
  46              	.LVL4:
  47              	.L9:
   5:src/print.cpp ****     if (!num) putc('0');
  48              		.loc 1 5 15 is_stmt 1 discriminator 1
   5:src/print.cpp ****     if (!num) putc('0');
  49              		.loc 1 5 19 is_stmt 0 discriminator 1
GAS LISTING /tmp/cceiOEVW.s 			page 2


  50 003c 13050003 		li	a0,48
  51 0040 97000000 		call	_Z4putcc@plt
  51      E7800000 
  52              	.LVL5:
  53 0048 6FF09FFE 		j	.L2
  54              	.LVL6:
  55              	.L4:
   7:src/print.cpp ****     while (num) {
   8:src/print.cpp ****         num2 *= 10;
   9:src/print.cpp ****         num2 += num%10;
  10:src/print.cpp ****         if(!num2) ++zero_count;
  11:src/print.cpp ****         num/=10;
  56              		.loc 1 11 9 is_stmt 1
  57              		.loc 1 11 12 is_stmt 0
  58 004c 9307A000 		li	a5,10
  59 0050 3359F902 		divu	s2,s2,a5
  60              	.LVL7:
  61              	.L5:
   7:src/print.cpp ****     while (num) {
  62              		.loc 1 7 5 is_stmt 1
   7:src/print.cpp ****     while (num) {
  63              		.loc 1 7 12
  64 0054 63040902 		beqz	s2,.L3
   8:src/print.cpp ****         num2 += num%10;
  65              		.loc 1 8 9
   8:src/print.cpp ****         num2 += num%10;
  66              		.loc 1 8 14 is_stmt 0
  67 0058 93972400 		slli	a5,s1,2
  68 005c B3849700 		add	s1,a5,s1
  69              	.LVL8:
  70 0060 93971400 		slli	a5,s1,1
  71              	.LVL9:
   9:src/print.cpp ****         if(!num2) ++zero_count;
  72              		.loc 1 9 9 is_stmt 1
   9:src/print.cpp ****         if(!num2) ++zero_count;
  73              		.loc 1 9 20 is_stmt 0
  74 0064 9304A000 		li	s1,10
  75 0068 B3749902 		remu	s1,s2,s1
   9:src/print.cpp ****         if(!num2) ++zero_count;
  76              		.loc 1 9 14
  77 006c B384F400 		add	s1,s1,a5
  78              	.LVL10:
  10:src/print.cpp ****         num/=10;
  79              		.loc 1 10 9 is_stmt 1
  80 0070 E39E04FC 		bnez	s1,.L4
  10:src/print.cpp ****         num/=10;
  81              		.loc 1 10 19 discriminator 1
  82 0074 93891900 		addi	s3,s3,1
  83              	.LVL11:
  84 0078 6FF05FFD 		j	.L4
  85              	.LVL12:
  86              	.L3:
  12:src/print.cpp ****     }
  13:src/print.cpp ****     while (num2) {
  87              		.loc 1 13 5
  88              		.loc 1 13 12
  89 007c 63800402 		beqz	s1,.L6
GAS LISTING /tmp/cceiOEVW.s 			page 3


  14:src/print.cpp ****         putc(num2%10+'0');
  90              		.loc 1 14 9
  91              		.loc 1 14 18 is_stmt 0
  92 0080 1309A000 		li	s2,10
  93 0084 33F52403 		remu	a0,s1,s2
  94              		.loc 1 14 13
  95 0088 13050503 		addi	a0,a0,48
  96 008c 97000000 		call	_Z4putcc@plt
  96      E7800000 
  97              	.LVL13:
  15:src/print.cpp ****         num2/=10;
  98              		.loc 1 15 9 is_stmt 1
  99              		.loc 1 15 13 is_stmt 0
 100 0094 B3D42403 		divu	s1,s1,s2
 101              	.LVL14:
  13:src/print.cpp ****         putc(num2%10+'0');
 102              		.loc 1 13 5
 103 0098 6FF05FFE 		j	.L3
 104              	.LVL15:
 105              	.L6:
  16:src/print.cpp ****     }
  17:src/print.cpp ****     while (zero_count--) putc('0');
 106              		.loc 1 17 5 is_stmt 1 discriminator 2
 107              		.loc 1 17 22 discriminator 2
 108 009c 9384F9FF 		addi	s1,s3,-1
 109              	.LVL16:
 110 00a0 638C0900 		beqz	s3,.L1
 111              		.loc 1 17 26 discriminator 1
 112              		.loc 1 17 30 is_stmt 0 discriminator 1
 113 00a4 13050003 		li	a0,48
 114 00a8 97000000 		call	_Z4putcc@plt
 114      E7800000 
 115              	.LVL17:
 116              		.loc 1 17 22 discriminator 1
 117 00b0 93890400 		mv	s3,s1
 118              		.loc 1 17 5 discriminator 1
 119 00b4 6FF09FFE 		j	.L6
 120              	.L1:
  18:src/print.cpp **** }
 121              		.loc 1 18 1
 122 00b8 83308102 		ld	ra,40(sp)
 123              		.cfi_restore 1
 124 00bc 03340102 		ld	s0,32(sp)
 125              		.cfi_restore 8
 126              		.cfi_def_cfa 2, 48
 127 00c0 83348101 		ld	s1,24(sp)
 128              		.cfi_restore 9
 129              	.LVL18:
 130 00c4 03390101 		ld	s2,16(sp)
 131              		.cfi_restore 18
 132 00c8 83398100 		ld	s3,8(sp)
 133              		.cfi_restore 19
 134              	.LVL19:
 135 00cc 13010103 		addi	sp,sp,48
 136              		.cfi_def_cfa_offset 0
 137 00d0 67800000 		jr	ra
 138              		.cfi_endproc
GAS LISTING /tmp/cceiOEVW.s 			page 4


 139              	.LFE0:
 141              		.align	2
 142              		.globl	_Z8printStrPKc
 144              	_Z8printStrPKc:
 145              	.LFB1:
  19:src/print.cpp **** 
  20:src/print.cpp **** void printStr(char const* string) {
 146              		.loc 1 20 35 is_stmt 1
 147              		.cfi_startproc
 148              	.LVL20:
 149 00d4 130101FE 		addi	sp,sp,-32
 150              		.cfi_def_cfa_offset 32
 151 00d8 233C1100 		sd	ra,24(sp)
 152 00dc 23388100 		sd	s0,16(sp)
 153 00e0 23349100 		sd	s1,8(sp)
 154              		.cfi_offset 1, -8
 155              		.cfi_offset 8, -16
 156              		.cfi_offset 9, -24
 157 00e4 13040102 		addi	s0,sp,32
 158              		.cfi_def_cfa 8, 0
 159 00e8 93040500 		mv	s1,a0
 160              	.LVL21:
 161              	.L12:
  21:src/print.cpp ****     while (*string != '\0') {
 162              		.loc 1 21 5
 163              		.loc 1 21 20
 164              		.loc 1 21 12 is_stmt 0
 165 00ec 03C50400 		lbu	a0,0(s1)
 166              		.loc 1 21 20
 167 00f0 630A0500 		beqz	a0,.L10
  22:src/print.cpp ****         putc(*string);
 168              		.loc 1 22 9 is_stmt 1
 169              		.loc 1 22 13 is_stmt 0
 170 00f4 97000000 		call	_Z4putcc@plt
 170      E7800000 
 171              	.LVL22:
  23:src/print.cpp ****         string++;
 172              		.loc 1 23 9 is_stmt 1
 173              		.loc 1 23 15 is_stmt 0
 174 00fc 93841400 		addi	s1,s1,1
 175              	.LVL23:
  21:src/print.cpp ****     while (*string != '\0') {
 176              		.loc 1 21 5
 177 0100 6FF0DFFE 		j	.L12
 178              	.L10:
  24:src/print.cpp ****     }
  25:src/print.cpp **** }...
 179              		.loc 1 25 1
 180 0104 83308101 		ld	ra,24(sp)
 181              		.cfi_restore 1
 182 0108 03340101 		ld	s0,16(sp)
 183              		.cfi_restore 8
 184              		.cfi_def_cfa 2, 32
 185 010c 83348100 		ld	s1,8(sp)
 186              		.cfi_restore 9
 187              	.LVL24:
 188 0110 13010102 		addi	sp,sp,32
GAS LISTING /tmp/cceiOEVW.s 			page 5


 189              		.cfi_def_cfa_offset 0
 190 0114 67800000 		jr	ra
 191              		.cfi_endproc
 192              	.LFE1:
 194              	.Letext0:
 195              		.file 2 "src/../h/../lib/hw.h"
 196              		.file 3 "src/../h/syscallC.hpp"
GAS LISTING /tmp/cceiOEVW.s 			page 6


DEFINED SYMBOLS
                            *ABS*:0000000000000000 print.cpp
     /tmp/cceiOEVW.s:9      .text:0000000000000000 _Z8printIntm
     /tmp/cceiOEVW.s:13     .text:0000000000000000 .L0 
     /tmp/cceiOEVW.s:15     .text:0000000000000000 .L0 
     /tmp/cceiOEVW.s:16     .text:0000000000000004 .L0 
     /tmp/cceiOEVW.s:22     .text:0000000000000018 .L0 
     /tmp/cceiOEVW.s:23     .text:0000000000000018 .L0 
     /tmp/cceiOEVW.s:24     .text:0000000000000018 .L0 
     /tmp/cceiOEVW.s:25     .text:0000000000000018 .L0 
     /tmp/cceiOEVW.s:26     .text:0000000000000018 .L0 
     /tmp/cceiOEVW.s:28     .text:000000000000001c .L0 
     /tmp/cceiOEVW.s:31     .text:0000000000000020 .L0 
     /tmp/cceiOEVW.s:32     .text:0000000000000020 .L0 
     /tmp/cceiOEVW.s:37     .text:000000000000002c .L0 
     /tmp/cceiOEVW.s:41     .text:0000000000000030 .L0 
     /tmp/cceiOEVW.s:42     .text:0000000000000030 .L0 
     /tmp/cceiOEVW.s:44     .text:0000000000000034 .L0 
     /tmp/cceiOEVW.s:49     .text:000000000000003c .L0 
     /tmp/cceiOEVW.s:50     .text:000000000000003c .L0 
     /tmp/cceiOEVW.s:57     .text:000000000000004c .L0 
     /tmp/cceiOEVW.s:58     .text:000000000000004c .L0 
     /tmp/cceiOEVW.s:63     .text:0000000000000054 .L0 
     /tmp/cceiOEVW.s:64     .text:0000000000000054 .L0 
     /tmp/cceiOEVW.s:66     .text:0000000000000058 .L0 
     /tmp/cceiOEVW.s:67     .text:0000000000000058 .L0 
     /tmp/cceiOEVW.s:73     .text:0000000000000064 .L0 
     /tmp/cceiOEVW.s:74     .text:0000000000000064 .L0 
     /tmp/cceiOEVW.s:77     .text:000000000000006c .L0 
     /tmp/cceiOEVW.s:80     .text:0000000000000070 .L0 
     /tmp/cceiOEVW.s:82     .text:0000000000000074 .L0 
     /tmp/cceiOEVW.s:88     .text:000000000000007c .L0 
     /tmp/cceiOEVW.s:89     .text:000000000000007c .L0 
     /tmp/cceiOEVW.s:91     .text:0000000000000080 .L0 
     /tmp/cceiOEVW.s:92     .text:0000000000000080 .L0 
     /tmp/cceiOEVW.s:95     .text:0000000000000088 .L0 
     /tmp/cceiOEVW.s:99     .text:0000000000000094 .L0 
     /tmp/cceiOEVW.s:100    .text:0000000000000094 .L0 
     /tmp/cceiOEVW.s:103    .text:0000000000000098 .L0 
     /tmp/cceiOEVW.s:107    .text:000000000000009c .L0 
     /tmp/cceiOEVW.s:108    .text:000000000000009c .L0 
     /tmp/cceiOEVW.s:112    .text:00000000000000a4 .L0 
     /tmp/cceiOEVW.s:113    .text:00000000000000a4 .L0 
     /tmp/cceiOEVW.s:117    .text:00000000000000b0 .L0 
     /tmp/cceiOEVW.s:119    .text:00000000000000b4 .L0 
     /tmp/cceiOEVW.s:122    .text:00000000000000b8 .L0 
     /tmp/cceiOEVW.s:123    .text:00000000000000bc .L0 
     /tmp/cceiOEVW.s:125    .text:00000000000000c0 .L0 
     /tmp/cceiOEVW.s:126    .text:00000000000000c0 .L0 
     /tmp/cceiOEVW.s:128    .text:00000000000000c4 .L0 
     /tmp/cceiOEVW.s:131    .text:00000000000000c8 .L0 
     /tmp/cceiOEVW.s:133    .text:00000000000000cc .L0 
     /tmp/cceiOEVW.s:136    .text:00000000000000d0 .L0 
     /tmp/cceiOEVW.s:138    .text:00000000000000d4 .L0 
     /tmp/cceiOEVW.s:144    .text:00000000000000d4 _Z8printStrPKc
     /tmp/cceiOEVW.s:147    .text:00000000000000d4 .L0 
     /tmp/cceiOEVW.s:149    .text:00000000000000d4 .L0 
GAS LISTING /tmp/cceiOEVW.s 			page 7


     /tmp/cceiOEVW.s:150    .text:00000000000000d8 .L0 
     /tmp/cceiOEVW.s:154    .text:00000000000000e4 .L0 
     /tmp/cceiOEVW.s:155    .text:00000000000000e4 .L0 
     /tmp/cceiOEVW.s:156    .text:00000000000000e4 .L0 
     /tmp/cceiOEVW.s:158    .text:00000000000000e8 .L0 
     /tmp/cceiOEVW.s:163    .text:00000000000000ec .L0 
     /tmp/cceiOEVW.s:164    .text:00000000000000ec .L0 
     /tmp/cceiOEVW.s:165    .text:00000000000000ec .L0 
     /tmp/cceiOEVW.s:167    .text:00000000000000f0 .L0 
     /tmp/cceiOEVW.s:169    .text:00000000000000f4 .L0 
     /tmp/cceiOEVW.s:170    .text:00000000000000f4 .L0 
     /tmp/cceiOEVW.s:173    .text:00000000000000fc .L0 
     /tmp/cceiOEVW.s:174    .text:00000000000000fc .L0 
     /tmp/cceiOEVW.s:177    .text:0000000000000100 .L0 
     /tmp/cceiOEVW.s:180    .text:0000000000000104 .L0 
     /tmp/cceiOEVW.s:181    .text:0000000000000108 .L0 
     /tmp/cceiOEVW.s:183    .text:000000000000010c .L0 
     /tmp/cceiOEVW.s:184    .text:000000000000010c .L0 
     /tmp/cceiOEVW.s:186    .text:0000000000000110 .L0 
     /tmp/cceiOEVW.s:189    .text:0000000000000114 .L0 
     /tmp/cceiOEVW.s:191    .text:0000000000000118 .L0 
     /tmp/cceiOEVW.s:197    .text:0000000000000118 .L0 
     /tmp/cceiOEVW.s:47     .text:000000000000003c .L9
     /tmp/cceiOEVW.s:61     .text:0000000000000054 .L5
     /tmp/cceiOEVW.s:38     .text:0000000000000030 .L2
     /tmp/cceiOEVW.s:86     .text:000000000000007c .L3
     /tmp/cceiOEVW.s:55     .text:000000000000004c .L4
     /tmp/cceiOEVW.s:105    .text:000000000000009c .L6
     /tmp/cceiOEVW.s:120    .text:00000000000000b8 .L1
     /tmp/cceiOEVW.s:178    .text:0000000000000104 .L10
     /tmp/cceiOEVW.s:161    .text:00000000000000ec .L12
     /tmp/cceiOEVW.s:522    .debug_abbrev:0000000000000000 .Ldebug_abbrev0
     /tmp/cceiOEVW.s:926    .debug_str:000000000000011e .LASF37
     /tmp/cceiOEVW.s:892    .debug_str:0000000000000059 .LASF38
     /tmp/cceiOEVW.s:944    .debug_str:0000000000000250 .LASF39
     /tmp/cceiOEVW.s:5      .text:0000000000000000 .Ltext0
     /tmp/cceiOEVW.s:194    .text:0000000000000118 .Letext0
     /tmp/cceiOEVW.s:876    .debug_line:0000000000000000 .Ldebug_line0
     /tmp/cceiOEVW.s:932    .debug_str:00000000000001fd .LASF0
     /tmp/cceiOEVW.s:918    .debug_str:00000000000000ec .LASF1
     /tmp/cceiOEVW.s:912    .debug_str:00000000000000c3 .LASF2
     /tmp/cceiOEVW.s:886    .debug_str:0000000000000031 .LASF4
     /tmp/cceiOEVW.s:914    .debug_str:00000000000000d1 .LASF3
     /tmp/cceiOEVW.s:882    .debug_str:000000000000001c .LASF5
     /tmp/cceiOEVW.s:880    .debug_str:0000000000000009 .LASF6
     /tmp/cceiOEVW.s:900    .debug_str:0000000000000078 .LASF7
     /tmp/cceiOEVW.s:938    .debug_str:000000000000021a .LASF8
     /tmp/cceiOEVW.s:884    .debug_str:0000000000000023 .LASF9
     /tmp/cceiOEVW.s:960    .debug_str:00000000000002c0 .LASF10
     /tmp/cceiOEVW.s:906    .debug_str:000000000000009f .LASF11
     /tmp/cceiOEVW.s:954    .debug_str:000000000000029d .LASF12
     /tmp/cceiOEVW.s:942    .debug_str:0000000000000240 .LASF13
     /tmp/cceiOEVW.s:922    .debug_str:0000000000000108 .LASF14
     /tmp/cceiOEVW.s:890    .debug_str:0000000000000043 .LASF15
     /tmp/cceiOEVW.s:940    .debug_str:000000000000022a .LASF16
     /tmp/cceiOEVW.s:924    .debug_str:0000000000000114 .LASF17
     /tmp/cceiOEVW.s:952    .debug_str:0000000000000294 .LASF18
GAS LISTING /tmp/cceiOEVW.s 			page 8


     /tmp/cceiOEVW.s:928    .debug_str:00000000000001e2 .LASF19
     /tmp/cceiOEVW.s:950    .debug_str:0000000000000288 .LASF20
     /tmp/cceiOEVW.s:946    .debug_str:0000000000000273 .LASF21
     /tmp/cceiOEVW.s:878    .debug_str:0000000000000000 .LASF22
     /tmp/cceiOEVW.s:958    .debug_str:00000000000002b6 .LASF23
     /tmp/cceiOEVW.s:916    .debug_str:00000000000000e3 .LASF24
     /tmp/cceiOEVW.s:936    .debug_str:000000000000020f .LASF25
     /tmp/cceiOEVW.s:908    .debug_str:00000000000000ae .LASF26
     /tmp/cceiOEVW.s:898    .debug_str:0000000000000073 .LASF27
     /tmp/cceiOEVW.s:896    .debug_str:000000000000006e .LASF28
     /tmp/cceiOEVW.s:956    .debug_str:00000000000002ad .LASF30
     /tmp/cceiOEVW.s:904    .debug_str:0000000000000090 .LASF32
     /tmp/cceiOEVW.s:145    .text:00000000000000d4 .LFB1
     /tmp/cceiOEVW.s:192    .text:0000000000000118 .LFE1
     /tmp/cceiOEVW.s:894    .debug_str:0000000000000067 .LASF34
     /tmp/cceiOEVW.s:799    .debug_loc:0000000000000000 .LLST3
     /tmp/cceiOEVW.s:171    .text:00000000000000fc .LVL22
     /tmp/cceiOEVW.s:934    .debug_str:000000000000020a .LASF29
     /tmp/cceiOEVW.s:910    .debug_str:00000000000000ba .LASF31
     /tmp/cceiOEVW.s:930    .debug_str:00000000000001f0 .LASF33
     /tmp/cceiOEVW.s:10     .text:0000000000000000 .LFB0
     /tmp/cceiOEVW.s:139    .text:00000000000000d4 .LFE0
     /tmp/cceiOEVW.s:810    .debug_loc:0000000000000036 .LLST0
     /tmp/cceiOEVW.s:902    .debug_str:000000000000008b .LASF35
     /tmp/cceiOEVW.s:821    .debug_loc:000000000000006c .LLST1
     /tmp/cceiOEVW.s:888    .debug_str:0000000000000038 .LASF36
     /tmp/cceiOEVW.s:841    .debug_loc:00000000000000c9 .LLST2
     /tmp/cceiOEVW.s:35     .text:000000000000002c .LVL2
     /tmp/cceiOEVW.s:52     .text:0000000000000048 .LVL5
     /tmp/cceiOEVW.s:97     .text:0000000000000094 .LVL13
     /tmp/cceiOEVW.s:115    .text:00000000000000b0 .LVL17
     /tmp/cceiOEVW.s:920    .debug_str:00000000000000ff .LASF40
     /tmp/cceiOEVW.s:948    .debug_str:0000000000000283 .LASF41
     /tmp/cceiOEVW.s:148    .text:00000000000000d4 .LVL20
     /tmp/cceiOEVW.s:160    .text:00000000000000ec .LVL21
     /tmp/cceiOEVW.s:187    .text:0000000000000110 .LVL24
     /tmp/cceiOEVW.s:14     .text:0000000000000000 .LVL0
     /tmp/cceiOEVW.s:33     .text:0000000000000024 .LVL1
     /tmp/cceiOEVW.s:85     .text:000000000000007c .LVL12
     /tmp/cceiOEVW.s:40     .text:0000000000000030 .LVL3
     /tmp/cceiOEVW.s:46     .text:000000000000003c .LVL4
     /tmp/cceiOEVW.s:54     .text:000000000000004c .LVL6
     /tmp/cceiOEVW.s:69     .text:0000000000000060 .LVL8
     /tmp/cceiOEVW.s:71     .text:0000000000000064 .LVL9
     /tmp/cceiOEVW.s:78     .text:0000000000000070 .LVL10
     /tmp/cceiOEVW.s:104    .text:000000000000009c .LVL15
     /tmp/cceiOEVW.s:109    .text:00000000000000a0 .LVL16
     /tmp/cceiOEVW.s:129    .text:00000000000000c4 .LVL18
     /tmp/cceiOEVW.s:134    .text:00000000000000cc .LVL19
     /tmp/cceiOEVW.s:198    .debug_info:0000000000000000 .Ldebug_info0

UNDEFINED SYMBOLS
_Z4putcc
