GAS LISTING /tmp/cceiOEVW.s 			page 1


   1              		.file	"print.cpp"
   2              		.option pic
   3              		.option norelax
   4              		.text
   5              	.Ltext0:
   6              		.align	2
   7              		.globl	_Z8printIntm
   9              	_Z8printIntm:
  10              	.LFB0:
  11              		.file 1 "src/print.cpp"
   1:src/print.cpp **** #include "../h/syscallC.hpp"
   2:src/print.cpp **** 
   3:src/print.cpp **** void printInt(uint64 num) {
  12              		.loc 1 3 27
  13              		.cfi_startproc
  14              	.LVL0:
  15 0000 130101FD 		addi	sp,sp,-48
  16              		.cfi_def_cfa_offset 48
  17 0004 23341102 		sd	ra,40(sp)
  18 0008 23308102 		sd	s0,32(sp)
  19 000c 233C9100 		sd	s1,24(sp)
  20 0010 23382101 		sd	s2,16(sp)
  21 0014 23343101 		sd	s3,8(sp)
  22              		.cfi_offset 1, -8
  23              		.cfi_offset 8, -16
  24              		.cfi_offset 9, -24
  25              		.cfi_offset 18, -32
  26              		.cfi_offset 19, -40
  27 0018 13040103 		addi	s0,sp,48
  28              		.cfi_def_cfa 8, 0
  29 001c 13090500 		mv	s2,a0
   4:src/print.cpp ****     putc('\n');
  30              		.loc 1 4 5
  31              		.loc 1 4 9 is_stmt 0
  32 0020 1305A000 		li	a0,10
  33              	.LVL1:
  34 0024 97000000 		call	_Z4putcc@plt
  34      E7800000 
  35              	.LVL2:
   5:src/print.cpp ****     if (!num) putc('0');
  36              		.loc 1 5 5 is_stmt 1
  37 002c 63080900 		beqz	s2,.L9
  38              	.L2:
   6:src/print.cpp ****     uint64 num2 = 0, zero_count = 0;
  39              		.loc 1 6 5
  40              	.LVL3:
  41              		.loc 1 6 22 is_stmt 0
  42 0030 93090000 		li	s3,0
  43              		.loc 1 6 12
  44 0034 93040000 		li	s1,0
  45 0038 6F00C001 		j	.L5
  46              	.LVL4:
  47              	.L9:
   5:src/print.cpp ****     if (!num) putc('0');
  48              		.loc 1 5 15 is_stmt 1 discriminator 1
   5:src/print.cpp ****     if (!num) putc('0');
  49              		.loc 1 5 19 is_stmt 0 discriminator 1
GAS LISTING /tmp/cceiOEVW.s 			page 2


  50 003c 13050003 		li	a0,48
  51 0040 97000000 		call	_Z4putcc@plt
  51      E7800000 
  52              	.LVL5:
  53 0048 6FF09FFE 		j	.L2
  54              	.LVL6:
  55              	.L4:
   7:src/print.cpp ****     while (num) {
   8:src/print.cpp ****         num2 *= 10;
   9:src/print.cpp ****         num2 += num%10;
  10:src/print.cpp ****         if(!num2) ++zero_count;
  11:src/print.cpp ****         num/=10;
  56              		.loc 1 11 9 is_stmt 1
  57              		.loc 1 11 12 is_stmt 0
  58 004c 9307A000 		li	a5,10
  59 0050 3359F902 		divu	s2,s2,a5
  60              	.LVL7:
  61              	.L5:
   7:src/print.cpp ****     while (num) {
  62              		.loc 1 7 5 is_stmt 1
   7:src/print.cpp ****     while (num) {
  63              		.loc 1 7 12
  64 0054 63040902 		beqz	s2,.L3
   8:src/print.cpp ****         num2 += num%10;
  65              		.loc 1 8 9
   8:src/print.cpp ****         num2 += num%10;
  66              		.loc 1 8 14 is_stmt 0
  67 0058 93972400 		slli	a5,s1,2
  68 005c B3849700 		add	s1,a5,s1
  69              	.LVL8:
  70 0060 93971400 		slli	a5,s1,1
  71              	.LVL9:
   9:src/print.cpp ****         if(!num2) ++zero_count;
  72              		.loc 1 9 9 is_stmt 1
   9:src/print.cpp ****         if(!num2) ++zero_count;
  73              		.loc 1 9 20 is_stmt 0
  74 0064 9304A000 		li	s1,10
  75 0068 B3749902 		remu	s1,s2,s1
   9:src/print.cpp ****         if(!num2) ++zero_count;
  76              		.loc 1 9 14
  77 006c B384F400 		add	s1,s1,a5
  78              	.LVL10:
  10:src/print.cpp ****         num/=10;
  79              		.loc 1 10 9 is_stmt 1
  80 0070 E39E04FC 		bnez	s1,.L4
  10:src/print.cpp ****         num/=10;
  81              		.loc 1 10 19 discriminator 1
  82 0074 93891900 		addi	s3,s3,1
  83              	.LVL11:
  84 0078 6FF05FFD 		j	.L4
  85              	.LVL12:
  86              	.L3:
  12:src/print.cpp ****     }
  13:src/print.cpp ****     while (num2) {
  87              		.loc 1 13 5
  88              		.loc 1 13 12
  89 007c 63800402 		beqz	s1,.L6
GAS LISTING /tmp/cceiOEVW.s 			page 3


  14:src/print.cpp ****         putc(num2%10+'0');
  90              		.loc 1 14 9
  91              		.loc 1 14 18 is_stmt 0
  92 0080 1309A000 		li	s2,10
  93 0084 33F52403 		remu	a0,s1,s2
  94              		.loc 1 14 13
  95 0088 13050503 		addi	a0,a0,48
  96 008c 97000000 		call	_Z4putcc@plt
  96      E7800000 
  97              	.LVL13:
  15:src/print.cpp ****         num2/=10;
  98              		.loc 1 15 9 is_stmt 1
  99              		.loc 1 15 13 is_stmt 0
 100 0094 B3D42403 		divu	s1,s1,s2
 101              	.LVL14:
  13:src/print.cpp ****         putc(num2%10+'0');
 102              		.loc 1 13 5
 103 0098 6FF05FFE 		j	.L3
 104              	.LVL15:
 105              	.L6:
  16:src/print.cpp ****     }
  17:src/print.cpp ****     while (zero_count--) putc('0');
 106              		.loc 1 17 5 is_stmt 1 discriminator 2
 107              		.loc 1 17 22 discriminator 2
 108 009c 9384F9FF 		addi	s1,s3,-1
 109              	.LVL16:
 110 00a0 638C0900 		beqz	s3,.L1
 111              		.loc 1 17 26 discriminator 1
 112              		.loc 1 17 30 is_stmt 0 discriminator 1
 113 00a4 13050003 		li	a0,48
 114 00a8 97000000 		call	_Z4putcc@plt
 114      E7800000 
 115              	.LVL17:
 116              		.loc 1 17 22 discriminator 1
 117 00b0 93890400 		mv	s3,s1
 118              		.loc 1 17 5 discriminator 1
 119 00b4 6FF09FFE 		j	.L6
 120              	.L1:
  18:src/print.cpp **** }
 121              		.loc 1 18 1
 122 00b8 83308102 		ld	ra,40(sp)
 123              		.cfi_restore 1
 124 00bc 03340102 		ld	s0,32(sp)
 125              		.cfi_restore 8
 126              		.cfi_def_cfa 2, 48
 127 00c0 83348101 		ld	s1,24(sp)
 128              		.cfi_restore 9
 129              	.LVL18:
 130 00c4 03390101 		ld	s2,16(sp)
 131              		.cfi_restore 18
 132 00c8 83398100 		ld	s3,8(sp)
 133              		.cfi_restore 19
 134              	.LVL19:
 135 00cc 13010103 		addi	sp,sp,48
 136              		.cfi_def_cfa_offset 0
 137 00d0 67800000 		jr	ra
 138              		.cfi_endproc
GAS LISTING /tmp/cceiOEVW.s 			page 4


 139              	.LFE0:
 141              		.align	2
 142              		.globl	_Z8printStrPKc
 144              	_Z8printStrPKc:
 145              	.LFB1:
  19:src/print.cpp **** 
  20:src/print.cpp **** void printStr(char const* string) {
 146              		.loc 1 20 35 is_stmt 1
 147              		.cfi_startproc
 148              	.LVL20:
 149 00d4 130101FE 		addi	sp,sp,-32
 150              		.cfi_def_cfa_offset 32
 151 00d8 233C1100 		sd	ra,24(sp)
 152 00dc 23388100 		sd	s0,16(sp)
 153 00e0 23349100 		sd	s1,8(sp)
 154              		.cfi_offset 1, -8
 155              		.cfi_offset 8, -16
 156              		.cfi_offset 9, -24
 157 00e4 13040102 		addi	s0,sp,32
 158              		.cfi_def_cfa 8, 0
 159 00e8 93040500 		mv	s1,a0
 160              	.LVL21:
 161              	.L12:
  21:src/print.cpp ****     while (*string != '\0') {
 162              		.loc 1 21 5
 163              		.loc 1 21 20
 164              		.loc 1 21 12 is_stmt 0
 165 00ec 03C50400 		lbu	a0,0(s1)
 166              		.loc 1 21 20
 167 00f0 630A0500 		beqz	a0,.L10
  22:src/print.cpp ****         putc(*string);
 168              		.loc 1 22 9 is_stmt 1
 169              		.loc 1 22 13 is_stmt 0
 170 00f4 97000000 		call	_Z4putcc@plt
 170      E7800000 
 171              	.LVL22:
  23:src/print.cpp ****         string++;
 172              		.loc 1 23 9 is_stmt 1
 173              		.loc 1 23 15 is_stmt 0
 174 00fc 93841400 		addi	s1,s1,1
 175              	.LVL23:
  21:src/print.cpp ****     while (*string != '\0') {
 176              		.loc 1 21 5
 177 0100 6FF0DFFE 		j	.L12
 178              	.L10:
  24:src/print.cpp ****     }
  25:src/print.cpp **** }...
 179              		.loc 1 25 1
 180 0104 83308101 		ld	ra,24(sp)
 181              		.cfi_restore 1
 182 0108 03340101 		ld	s0,16(sp)
 183              		.cfi_restore 8
 184              		.cfi_def_cfa 2, 32
 185 010c 83348100 		ld	s1,8(sp)
 186              		.cfi_restore 9
 187              	.LVL24:
 188 0110 13010102 		addi	sp,sp,32
GAS LISTING /tmp/cceiOEVW.s 			page 5


 189              		.cfi_def_cfa_offset 0
 190 0114 67800000 		jr	ra
 191              		.cfi_endproc
 192              	.LFE1:
 194              	.Letext0:
 195              		.file 2 "src/../h/../lib/hw.h"
 196              		.file 3 "src/../h/syscallC.hpp"
GAS LISTING /tmp/cceiOEVW.s 			page 6

