GAS LISTING /tmp/ccFRkcXK.s 			page 1


   1              		.file	"scheduler.cpp"
   2              		.option pic
   3              		.option norelax
   4              		.text
   5              	.Ltext0:
   6              		.align	2
   8              	_Z41__static_initialization_and_destruction_0ii:
   9              	.LFB24:
  10              		.file 1 "src/scheduler.cpp"
   1:src/scheduler.cpp **** #include "../h/scheduler.hpp"
   2:src/scheduler.cpp **** 
   3:src/scheduler.cpp **** List<TCB> Scheduler::ready;
   4:src/scheduler.cpp **** 
   5:src/scheduler.cpp **** TCB* Scheduler::get(){
   6:src/scheduler.cpp ****     return ready.get();
   7:src/scheduler.cpp **** }
   8:src/scheduler.cpp **** 
   9:src/scheduler.cpp **** void Scheduler::put(TCB *thread){
  10:src/scheduler.cpp ****     ready.put(thread);
  11:src/scheduler.cpp **** }
  12:src/scheduler.cpp **** 
  13:src/scheduler.cpp **** void *Scheduler::operator new(size_t size) {
  14:src/scheduler.cpp ****     size_t numOfBlocks=ROUNDUP((size+MemoryAllocator::DBlockSize))/MEM_BLOCK_SIZE;
  15:src/scheduler.cpp ****     return MemoryAllocator::mem_alloc(numOfBlocks);
  16:src/scheduler.cpp **** }
  17:src/scheduler.cpp **** 
  18:src/scheduler.cpp **** void Scheduler::operator delete(void *ptr) {
  19:src/scheduler.cpp ****     MemoryAllocator::mem_free(ptr);
  20:src/scheduler.cpp **** }...
  11              		.loc 1 20 1
  12              		.cfi_startproc
  13              	.LVL0:
  14 0000 130101FF 		addi	sp,sp,-16
  15              		.cfi_def_cfa_offset 16
  16 0004 23348100 		sd	s0,8(sp)
  17              		.cfi_offset 8, -8
  18 0008 13040101 		addi	s0,sp,16
  19              		.cfi_def_cfa 8, 0
  20              		.loc 1 20 1 is_stmt 0
  21 000c 93071000 		li	a5,1
  22 0010 6308F500 		beq	a0,a5,.L4
  23              	.L1:
  24 0014 03348100 		ld	s0,8(sp)
  25              		.cfi_remember_state
  26              		.cfi_restore 8
  27              		.cfi_def_cfa 2, 16
  28 0018 13010101 		addi	sp,sp,16
  29              		.cfi_def_cfa_offset 0
  30 001c 67800000 		jr	ra
  31              	.L4:
  32              		.cfi_restore_state
  33              		.loc 1 20 1 discriminator 1
  34 0020 B7070100 		li	a5,65536
  35 0024 9387F7FF 		addi	a5,a5,-1
  36 0028 E396F5FE 		bne	a1,a5,.L1
  37              	.LVL1:
  38              	.LBB15:
GAS LISTING /tmp/ccFRkcXK.s 			page 2


  39              	.LBB16:
  40              	.LBB17:
  41              		.file 2 "src/../h/list.hpp"
   1:src/../h/list.hpp **** #ifndef PROJECT_BASE_V1_1_LIST_HPP
   2:src/../h/list.hpp **** #define PROJECT_BASE_V1_1_LIST_HPP
   3:src/../h/list.hpp **** 
   4:src/../h/list.hpp **** template <typename T>
   5:src/../h/list.hpp **** class List{
   6:src/../h/list.hpp **** 
   7:src/../h/list.hpp **** private:
   8:src/../h/list.hpp **** 
   9:src/../h/list.hpp ****     struct Elem{
  10:src/../h/list.hpp ****         T* data;
  11:src/../h/list.hpp ****         Elem *next;
  12:src/../h/list.hpp **** 
  13:src/../h/list.hpp ****         Elem(T* data, Elem* next) : data(data), next(next) {}
  14:src/../h/list.hpp ****     };
  15:src/../h/list.hpp **** 
  16:src/../h/list.hpp ****     Elem *head, *tail;
  17:src/../h/list.hpp **** 
  18:src/../h/list.hpp **** public:
  19:src/../h/list.hpp **** 
  20:src/../h/list.hpp ****     List() : head(nullptr) , tail(nullptr) {}
  42              		.loc 2 20 42
  43 002c 97070000 		lla	a5,.LANCHOR0
  43      93870700 
  44 0034 23B00700 		sd	zero,0(a5)
  45 0038 23B40700 		sd	zero,8(a5)
  46              	.LVL2:
  47              	.LBE17:
  48              	.LBE16:
  49              	.LBE15:
  50              		.loc 1 20 1
  51 003c 6FF09FFD 		j	.L1
  52              		.cfi_endproc
  53              	.LFE24:
  55              		.align	2
  56              		.globl	_ZN9Scheduler3getEv
  58              	_ZN9Scheduler3getEv:
  59              	.LFB12:
   5:src/scheduler.cpp **** TCB* Scheduler::get(){
  60              		.loc 1 5 22 is_stmt 1
  61              		.cfi_startproc
  62 0040 130101FE 		addi	sp,sp,-32
  63              		.cfi_def_cfa_offset 32
  64 0044 233C1100 		sd	ra,24(sp)
  65 0048 23388100 		sd	s0,16(sp)
  66 004c 23349100 		sd	s1,8(sp)
  67              		.cfi_offset 1, -8
  68              		.cfi_offset 8, -16
  69              		.cfi_offset 9, -24
  70 0050 13040102 		addi	s0,sp,32
  71              		.cfi_def_cfa 8, 0
   6:src/scheduler.cpp ****     return ready.get();
  72              		.loc 1 6 5
  73              	.LVL3:
  74              	.LBB18:
GAS LISTING /tmp/ccFRkcXK.s 			page 3


  75              	.LBB19:
  21:src/../h/list.hpp ****     List(const List<T> &)=delete;
  22:src/../h/list.hpp ****     List<T> &operator=(const List<T>&)=delete;
  23:src/../h/list.hpp **** 
  24:src/../h/list.hpp ****     void put(T* data){ //stavlja na kraj
  25:src/../h/list.hpp ****         Elem *elem=new Elem(data, 0);
  26:src/../h/list.hpp ****         if(tail){
  27:src/../h/list.hpp ****             tail->next=elem;
  28:src/../h/list.hpp ****             tail=elem;
  29:src/../h/list.hpp ****         }
  30:src/../h/list.hpp ****         else{
  31:src/../h/list.hpp ****             head=tail=elem;
  32:src/../h/list.hpp ****         }
  33:src/../h/list.hpp ****     }
  34:src/../h/list.hpp **** 
  35:src/../h/list.hpp ****     T* get(){ //uzima s pocetka
  36:src/../h/list.hpp ****         if(!head) return nullptr;
  76              		.loc 2 36 13 is_stmt 0
  77 0054 17050000 		ld	a0,.LANCHOR0
  77      03350500 
  78              		.loc 2 36 9
  79 005c 63020504 		beqz	a0,.L8
  80              	.LVL4:
  37:src/../h/list.hpp ****         Elem *elem=head;
  38:src/../h/list.hpp ****         head=head->next;
  81              		.loc 2 38 20
  82 0060 83378500 		ld	a5,8(a0)
  83              		.loc 2 38 9
  84 0064 17070000 		sd	a5,.LANCHOR0,a4
  84      2330F700 
  39:src/../h/list.hpp ****         if(!head) tail=nullptr;
  85              		.loc 2 39 9
  86 006c 63840702 		beqz	a5,.L10
  87              	.L7:
  40:src/../h/list.hpp ****         T* ret=elem->data;
  88              		.loc 2 40 12
  89 0070 83340500 		ld	s1,0(a0)
  90              	.LVL5:
  41:src/../h/list.hpp ****         delete elem;
  91              		.loc 2 41 9
  92 0074 97000000 		call	_ZdlPv@plt
  92      E7800000 
  93              	.LVL6:
  94              	.L5:
  95              	.LBE19:
  96              	.LBE18:
   7:src/scheduler.cpp **** }
  97              		.loc 1 7 1
  98 007c 13850400 		mv	a0,s1
  99 0080 83308101 		ld	ra,24(sp)
 100              		.cfi_remember_state
 101              		.cfi_restore 1
 102 0084 03340101 		ld	s0,16(sp)
 103              		.cfi_restore 8
 104              		.cfi_def_cfa 2, 32
 105 0088 83348100 		ld	s1,8(sp)
 106              		.cfi_restore 9
GAS LISTING /tmp/ccFRkcXK.s 			page 4


 107 008c 13010102 		addi	sp,sp,32
 108              		.cfi_def_cfa_offset 0
 109 0090 67800000 		jr	ra
 110              	.LVL7:
 111              	.L10:
 112              		.cfi_restore_state
 113              	.LBB21:
 114              	.LBB20:
  39:src/../h/list.hpp ****         T* ret=elem->data;
 115              		.loc 2 39 19
 116 0094 97070000 		sd	zero,.LANCHOR0+8,a5
 116      23B00700 
 117 009c 6FF05FFD 		j	.L7
 118              	.LVL8:
 119              	.L8:
  36:src/../h/list.hpp ****         Elem *elem=head;
 120              		.loc 2 36 26
 121 00a0 93040500 		mv	s1,a0
 122              	.LVL9:
 123              	.LBE20:
 124              	.LBE21:
   6:src/scheduler.cpp ****     return ready.get();
 125              		.loc 1 6 22
 126 00a4 6FF09FFD 		j	.L5
 127              		.cfi_endproc
 128              	.LFE12:
 130              		.align	2
 131              		.globl	_ZN9Scheduler3putEP3TCB
 133              	_ZN9Scheduler3putEP3TCB:
 134              	.LFB13:
   9:src/scheduler.cpp **** void Scheduler::put(TCB *thread){
 135              		.loc 1 9 33 is_stmt 1
 136              		.cfi_startproc
 137              	.LVL10:
 138 00a8 130101FE 		addi	sp,sp,-32
 139              		.cfi_def_cfa_offset 32
 140 00ac 233C1100 		sd	ra,24(sp)
 141 00b0 23388100 		sd	s0,16(sp)
 142 00b4 23349100 		sd	s1,8(sp)
 143              		.cfi_offset 1, -8
 144              		.cfi_offset 8, -16
 145              		.cfi_offset 9, -24
 146 00b8 13040102 		addi	s0,sp,32
 147              		.cfi_def_cfa 8, 0
 148 00bc 93040500 		mv	s1,a0
  10:src/scheduler.cpp ****     ready.put(thread);
 149              		.loc 1 10 5
 150              	.LVL11:
 151              	.LBB22:
 152              	.LBB23:
  25:src/../h/list.hpp ****         if(tail){
 153              		.loc 2 25 20 is_stmt 0
 154 00c0 13050001 		li	a0,16
 155              	.LVL12:
 156 00c4 97000000 		call	_Znwm@plt
 156      E7800000 
 157              	.LVL13:
GAS LISTING /tmp/ccFRkcXK.s 			page 5


 158              	.LBB24:
 159              	.LBB25:
  13:src/../h/list.hpp ****     };
 160              		.loc 2 13 58
 161 00cc 23309500 		sd	s1,0(a0)
 162 00d0 23340500 		sd	zero,8(a0)
 163              	.LVL14:
 164              	.LBE25:
 165              	.LBE24:
  26:src/../h/list.hpp ****             tail->next=elem;
 166              		.loc 2 26 12
 167 00d4 97070000 		ld	a5,.LANCHOR0+8
 167      83B70700 
  26:src/../h/list.hpp ****             tail->next=elem;
 168              		.loc 2 26 9
 169 00dc 63820702 		beqz	a5,.L12
  27:src/../h/list.hpp ****             tail=elem;
 170              		.loc 2 27 13
 171 00e0 23B4A700 		sd	a0,8(a5)
  28:src/../h/list.hpp ****         }
 172              		.loc 2 28 13
 173 00e4 97070000 		sd	a0,.LANCHOR0+8,a5
 173      23B0A700 
 174              	.LVL15:
 175              	.L11:
 176              	.LBE23:
 177              	.LBE22:
  11:src/scheduler.cpp **** }
 178              		.loc 1 11 1
 179 00ec 83308101 		ld	ra,24(sp)
 180              		.cfi_remember_state
 181              		.cfi_restore 1
 182 00f0 03340101 		ld	s0,16(sp)
 183              		.cfi_restore 8
 184              		.cfi_def_cfa 2, 32
 185 00f4 83348100 		ld	s1,8(sp)
 186              		.cfi_restore 9
 187              	.LVL16:
 188 00f8 13010102 		addi	sp,sp,32
 189              		.cfi_def_cfa_offset 0
 190 00fc 67800000 		jr	ra
 191              	.LVL17:
 192              	.L12:
 193              		.cfi_restore_state
 194              	.LBB27:
 195              	.LBB26:
  31:src/../h/list.hpp ****         }
 196              		.loc 2 31 13
 197 0100 97070000 		lla	a5,.LANCHOR0
 197      93870700 
 198 0108 23B4A700 		sd	a0,8(a5)
 199 010c 23B0A700 		sd	a0,0(a5)
 200              	.LVL18:
 201              	.LBE26:
 202              	.LBE27:
  11:src/scheduler.cpp **** }
 203              		.loc 1 11 1
GAS LISTING /tmp/ccFRkcXK.s 			page 6


 204 0110 6FF0DFFD 		j	.L11
 205              		.cfi_endproc
 206              	.LFE13:
 208              		.align	2
 209              		.globl	_ZN9SchedulernwEm
 211              	_ZN9SchedulernwEm:
 212              	.LFB14:
  13:src/scheduler.cpp **** void *Scheduler::operator new(size_t size) {
 213              		.loc 1 13 44 is_stmt 1
 214              		.cfi_startproc
 215              	.LVL19:
 216 0114 130101FF 		addi	sp,sp,-16
 217              		.cfi_def_cfa_offset 16
 218 0118 23341100 		sd	ra,8(sp)
 219 011c 23308100 		sd	s0,0(sp)
 220              		.cfi_offset 1, -8
 221              		.cfi_offset 8, -16
 222 0120 13040101 		addi	s0,sp,16
 223              		.cfi_def_cfa 8, 0
  14:src/scheduler.cpp ****     size_t numOfBlocks=ROUNDUP((size+MemoryAllocator::DBlockSize))/MEM_BLOCK_SIZE;
 224              		.loc 1 14 5
  14:src/scheduler.cpp ****     size_t numOfBlocks=ROUNDUP((size+MemoryAllocator::DBlockSize))/MEM_BLOCK_SIZE;
 225              		.loc 1 14 24 is_stmt 0
 226 0124 97070000 		la	a5,_ZN15MemoryAllocator10DBlockSizeE
 226      83B70700 
 227 012c 83B70700 		ld	a5,0(a5)
 228 0130 3385A700 		add	a0,a5,a0
 229              	.LVL20:
 230 0134 1305F503 		addi	a0,a0,63
 231              	.LVL21:
  15:src/scheduler.cpp ****     return MemoryAllocator::mem_alloc(numOfBlocks);
 232              		.loc 1 15 5 is_stmt 1
  15:src/scheduler.cpp ****     return MemoryAllocator::mem_alloc(numOfBlocks);
 233              		.loc 1 15 38 is_stmt 0
 234 0138 13556500 		srli	a0,a0,6
 235              	.LVL22:
 236 013c 97000000 		call	_ZN15MemoryAllocator9mem_allocEm@plt
 236      E7800000 
 237              	.LVL23:
  16:src/scheduler.cpp **** }
 238              		.loc 1 16 1
 239 0144 83308100 		ld	ra,8(sp)
 240              		.cfi_restore 1
 241 0148 03340100 		ld	s0,0(sp)
 242              		.cfi_restore 8
 243              		.cfi_def_cfa 2, 16
 244 014c 13010101 		addi	sp,sp,16
 245              		.cfi_def_cfa_offset 0
 246 0150 67800000 		jr	ra
 247              		.cfi_endproc
 248              	.LFE14:
 250              		.align	2
 251              		.globl	_ZN9SchedulerdlEPv
 253              	_ZN9SchedulerdlEPv:
 254              	.LFB15:
  18:src/scheduler.cpp **** void Scheduler::operator delete(void *ptr) {
 255              		.loc 1 18 44 is_stmt 1
GAS LISTING /tmp/ccFRkcXK.s 			page 7


 256              		.cfi_startproc
 257              	.LVL24:
 258 0154 130101FF 		addi	sp,sp,-16
 259              		.cfi_def_cfa_offset 16
 260 0158 23341100 		sd	ra,8(sp)
 261 015c 23308100 		sd	s0,0(sp)
 262              		.cfi_offset 1, -8
 263              		.cfi_offset 8, -16
 264 0160 13040101 		addi	s0,sp,16
 265              		.cfi_def_cfa 8, 0
  19:src/scheduler.cpp ****     MemoryAllocator::mem_free(ptr);
 266              		.loc 1 19 5
  19:src/scheduler.cpp ****     MemoryAllocator::mem_free(ptr);
 267              		.loc 1 19 30 is_stmt 0
 268 0164 97000000 		call	_ZN15MemoryAllocator8mem_freeEPv@plt
 268      E7800000 
 269              	.LVL25:
 270              		.loc 1 20 1
 271 016c 83308100 		ld	ra,8(sp)
 272              		.cfi_restore 1
 273 0170 03340100 		ld	s0,0(sp)
 274              		.cfi_restore 8
 275              		.cfi_def_cfa 2, 16
 276 0174 13010101 		addi	sp,sp,16
 277              		.cfi_def_cfa_offset 0
 278 0178 67800000 		jr	ra
 279              		.cfi_endproc
 280              	.LFE15:
 282              		.align	2
 284              	_GLOBAL__sub_I__ZN9Scheduler5readyE:
 285              	.LFB25:
 286              		.loc 1 20 1 is_stmt 1
 287              		.cfi_startproc
 288 017c 130101FF 		addi	sp,sp,-16
 289              		.cfi_def_cfa_offset 16
 290 0180 23341100 		sd	ra,8(sp)
 291 0184 23308100 		sd	s0,0(sp)
 292              		.cfi_offset 1, -8
 293              		.cfi_offset 8, -16
 294 0188 13040101 		addi	s0,sp,16
 295              		.cfi_def_cfa 8, 0
 296              		.loc 1 20 1 is_stmt 0
 297 018c B7050100 		li	a1,65536
 298 0190 9385F5FF 		addi	a1,a1,-1
 299 0194 13051000 		li	a0,1
 300 0198 97000000 		call	_Z41__static_initialization_and_destruction_0ii
 300      E7800000 
 301              	.LVL26:
 302 01a0 83308100 		ld	ra,8(sp)
 303              		.cfi_restore 1
 304 01a4 03340100 		ld	s0,0(sp)
 305              		.cfi_restore 8
 306              		.cfi_def_cfa 2, 16
 307 01a8 13010101 		addi	sp,sp,16
 308              		.cfi_def_cfa_offset 0
 309 01ac 67800000 		jr	ra
 310              		.cfi_endproc
GAS LISTING /tmp/ccFRkcXK.s 			page 8


 311              	.LFE25:
 313              		.section	.init_array,"aw"
 314              		.align	3
 315 0000 00000000 		.dword	_GLOBAL__sub_I__ZN9Scheduler5readyE
 315      00000000 
 316              		.globl	_ZN9Scheduler5readyE
 317              		.bss
 318              		.align	3
 319              		.set	.LANCHOR0,. + 0
 322              	_ZN9Scheduler5readyE:
 323 0000 00000000 		.zero	16
 323      00000000 
 323      00000000 
 323      00000000 
 324              		.text
 325              	.Letext0:
 326              		.file 3 "src/../h/../lib/hw.h"
 327              		.file 4 "src/../h/memoryAllocator.hpp"
 328              		.file 5 "src/../h/tcb.hpp"
 329              		.file 6 "src/../h/scheduler.hpp"
GAS LISTING /tmp/ccFRkcXK.s 			page 9


DEFINED SYMBOLS
                            *ABS*:0000000000000000 scheduler.cpp
     /tmp/ccFRkcXK.s:8      .text:0000000000000000 _Z41__static_initialization_and_destruction_0ii
     /tmp/ccFRkcXK.s:12     .text:0000000000000000 .L0 
     /tmp/ccFRkcXK.s:14     .text:0000000000000000 .L0 
     /tmp/ccFRkcXK.s:15     .text:0000000000000004 .L0 
     /tmp/ccFRkcXK.s:17     .text:0000000000000008 .L0 
     /tmp/ccFRkcXK.s:19     .text:000000000000000c .L0 
     /tmp/ccFRkcXK.s:21     .text:000000000000000c .L0 
     /tmp/ccFRkcXK.s:25     .text:0000000000000018 .L0 
     /tmp/ccFRkcXK.s:26     .text:0000000000000018 .L0 
     /tmp/ccFRkcXK.s:27     .text:0000000000000018 .L0 
     /tmp/ccFRkcXK.s:29     .text:000000000000001c .L0 
     /tmp/ccFRkcXK.s:32     .text:0000000000000020 .L0 
     /tmp/ccFRkcXK.s:34     .text:0000000000000020 .L0 
     /tmp/ccFRkcXK.s:43     .text:000000000000002c .L0 
     /tmp/ccFRkcXK.s:51     .text:000000000000003c .L0 
     /tmp/ccFRkcXK.s:52     .text:0000000000000040 .L0 
     /tmp/ccFRkcXK.s:58     .text:0000000000000040 _ZN9Scheduler3getEv
     /tmp/ccFRkcXK.s:61     .text:0000000000000040 .L0 
     /tmp/ccFRkcXK.s:62     .text:0000000000000040 .L0 
     /tmp/ccFRkcXK.s:63     .text:0000000000000044 .L0 
     /tmp/ccFRkcXK.s:67     .text:0000000000000050 .L0 
     /tmp/ccFRkcXK.s:68     .text:0000000000000050 .L0 
     /tmp/ccFRkcXK.s:69     .text:0000000000000050 .L0 
     /tmp/ccFRkcXK.s:71     .text:0000000000000054 .L0 
     /tmp/ccFRkcXK.s:76     .text:0000000000000054 .L0 
     /tmp/ccFRkcXK.s:77     .text:0000000000000054 .L0 
     /tmp/ccFRkcXK.s:79     .text:000000000000005c .L0 
     /tmp/ccFRkcXK.s:82     .text:0000000000000060 .L0 
     /tmp/ccFRkcXK.s:84     .text:0000000000000064 .L0 
     /tmp/ccFRkcXK.s:86     .text:000000000000006c .L0 
     /tmp/ccFRkcXK.s:89     .text:0000000000000070 .L0 
     /tmp/ccFRkcXK.s:92     .text:0000000000000074 .L0 
     /tmp/ccFRkcXK.s:98     .text:000000000000007c .L0 
     /tmp/ccFRkcXK.s:100    .text:0000000000000084 .L0 
     /tmp/ccFRkcXK.s:101    .text:0000000000000084 .L0 
     /tmp/ccFRkcXK.s:103    .text:0000000000000088 .L0 
     /tmp/ccFRkcXK.s:104    .text:0000000000000088 .L0 
     /tmp/ccFRkcXK.s:106    .text:000000000000008c .L0 
     /tmp/ccFRkcXK.s:108    .text:0000000000000090 .L0 
     /tmp/ccFRkcXK.s:112    .text:0000000000000094 .L0 
     /tmp/ccFRkcXK.s:116    .text:0000000000000094 .L0 
     /tmp/ccFRkcXK.s:121    .text:00000000000000a0 .L0 
     /tmp/ccFRkcXK.s:126    .text:00000000000000a4 .L0 
     /tmp/ccFRkcXK.s:127    .text:00000000000000a8 .L0 
     /tmp/ccFRkcXK.s:133    .text:00000000000000a8 _ZN9Scheduler3putEP3TCB
     /tmp/ccFRkcXK.s:136    .text:00000000000000a8 .L0 
     /tmp/ccFRkcXK.s:138    .text:00000000000000a8 .L0 
     /tmp/ccFRkcXK.s:139    .text:00000000000000ac .L0 
     /tmp/ccFRkcXK.s:143    .text:00000000000000b8 .L0 
     /tmp/ccFRkcXK.s:144    .text:00000000000000b8 .L0 
     /tmp/ccFRkcXK.s:145    .text:00000000000000b8 .L0 
     /tmp/ccFRkcXK.s:147    .text:00000000000000bc .L0 
     /tmp/ccFRkcXK.s:153    .text:00000000000000c0 .L0 
     /tmp/ccFRkcXK.s:154    .text:00000000000000c0 .L0 
     /tmp/ccFRkcXK.s:161    .text:00000000000000cc .L0 
GAS LISTING /tmp/ccFRkcXK.s 			page 10


     /tmp/ccFRkcXK.s:167    .text:00000000000000d4 .L0 
     /tmp/ccFRkcXK.s:169    .text:00000000000000dc .L0 
     /tmp/ccFRkcXK.s:171    .text:00000000000000e0 .L0 
     /tmp/ccFRkcXK.s:173    .text:00000000000000e4 .L0 
     /tmp/ccFRkcXK.s:179    .text:00000000000000ec .L0 
     /tmp/ccFRkcXK.s:180    .text:00000000000000f0 .L0 
     /tmp/ccFRkcXK.s:181    .text:00000000000000f0 .L0 
     /tmp/ccFRkcXK.s:183    .text:00000000000000f4 .L0 
     /tmp/ccFRkcXK.s:184    .text:00000000000000f4 .L0 
     /tmp/ccFRkcXK.s:186    .text:00000000000000f8 .L0 
     /tmp/ccFRkcXK.s:189    .text:00000000000000fc .L0 
     /tmp/ccFRkcXK.s:193    .text:0000000000000100 .L0 
     /tmp/ccFRkcXK.s:197    .text:0000000000000100 .L0 
     /tmp/ccFRkcXK.s:204    .text:0000000000000110 .L0 
     /tmp/ccFRkcXK.s:205    .text:0000000000000114 .L0 
     /tmp/ccFRkcXK.s:211    .text:0000000000000114 _ZN9SchedulernwEm
     /tmp/ccFRkcXK.s:214    .text:0000000000000114 .L0 
     /tmp/ccFRkcXK.s:216    .text:0000000000000114 .L0 
     /tmp/ccFRkcXK.s:217    .text:0000000000000118 .L0 
     /tmp/ccFRkcXK.s:220    .text:0000000000000120 .L0 
     /tmp/ccFRkcXK.s:221    .text:0000000000000120 .L0 
     /tmp/ccFRkcXK.s:223    .text:0000000000000124 .L0 
     /tmp/ccFRkcXK.s:225    .text:0000000000000124 .L0 
     /tmp/ccFRkcXK.s:226    .text:0000000000000124 .L0 
     /tmp/ccFRkcXK.s:233    .text:0000000000000138 .L0 
     /tmp/ccFRkcXK.s:234    .text:0000000000000138 .L0 
     /tmp/ccFRkcXK.s:239    .text:0000000000000144 .L0 
     /tmp/ccFRkcXK.s:240    .text:0000000000000148 .L0 
     /tmp/ccFRkcXK.s:242    .text:000000000000014c .L0 
     /tmp/ccFRkcXK.s:243    .text:000000000000014c .L0 
     /tmp/ccFRkcXK.s:245    .text:0000000000000150 .L0 
     /tmp/ccFRkcXK.s:247    .text:0000000000000154 .L0 
     /tmp/ccFRkcXK.s:253    .text:0000000000000154 _ZN9SchedulerdlEPv
     /tmp/ccFRkcXK.s:256    .text:0000000000000154 .L0 
     /tmp/ccFRkcXK.s:258    .text:0000000000000154 .L0 
     /tmp/ccFRkcXK.s:259    .text:0000000000000158 .L0 
     /tmp/ccFRkcXK.s:262    .text:0000000000000160 .L0 
     /tmp/ccFRkcXK.s:263    .text:0000000000000160 .L0 
     /tmp/ccFRkcXK.s:265    .text:0000000000000164 .L0 
     /tmp/ccFRkcXK.s:267    .text:0000000000000164 .L0 
     /tmp/ccFRkcXK.s:268    .text:0000000000000164 .L0 
     /tmp/ccFRkcXK.s:271    .text:000000000000016c .L0 
     /tmp/ccFRkcXK.s:272    .text:0000000000000170 .L0 
     /tmp/ccFRkcXK.s:274    .text:0000000000000174 .L0 
     /tmp/ccFRkcXK.s:275    .text:0000000000000174 .L0 
     /tmp/ccFRkcXK.s:277    .text:0000000000000178 .L0 
     /tmp/ccFRkcXK.s:279    .text:000000000000017c .L0 
     /tmp/ccFRkcXK.s:284    .text:000000000000017c _GLOBAL__sub_I__ZN9Scheduler5readyE
     /tmp/ccFRkcXK.s:287    .text:000000000000017c .L0 
     /tmp/ccFRkcXK.s:288    .text:000000000000017c .L0 
     /tmp/ccFRkcXK.s:289    .text:0000000000000180 .L0 
     /tmp/ccFRkcXK.s:292    .text:0000000000000188 .L0 
     /tmp/ccFRkcXK.s:293    .text:0000000000000188 .L0 
     /tmp/ccFRkcXK.s:295    .text:000000000000018c .L0 
     /tmp/ccFRkcXK.s:297    .text:000000000000018c .L0 
     /tmp/ccFRkcXK.s:303    .text:00000000000001a4 .L0 
     /tmp/ccFRkcXK.s:305    .text:00000000000001a8 .L0 
GAS LISTING /tmp/ccFRkcXK.s 			page 11


     /tmp/ccFRkcXK.s:306    .text:00000000000001a8 .L0 
     /tmp/ccFRkcXK.s:308    .text:00000000000001ac .L0 
     /tmp/ccFRkcXK.s:310    .text:00000000000001b0 .L0 
     /tmp/ccFRkcXK.s:322    .bss:0000000000000000 _ZN9Scheduler5readyE
     /tmp/ccFRkcXK.s:319    .bss:0000000000000000 .LANCHOR0
     /tmp/ccFRkcXK.s:330    .text:00000000000001b0 .L0 
     /tmp/ccFRkcXK.s:43     .text:000000000000002c .L0 
     /tmp/ccFRkcXK.s:77     .text:0000000000000054 .L0 
     /tmp/ccFRkcXK.s:84     .text:0000000000000064 .L0 
     /tmp/ccFRkcXK.s:116    .text:0000000000000094 .L0 
     /tmp/ccFRkcXK.s:167    .text:00000000000000d4 .L0 
     /tmp/ccFRkcXK.s:173    .text:00000000000000e4 .L0 
     /tmp/ccFRkcXK.s:197    .text:0000000000000100 .L0 
     /tmp/ccFRkcXK.s:226    .text:0000000000000124 .L0 
     /tmp/ccFRkcXK.s:31     .text:0000000000000020 .L4
     /tmp/ccFRkcXK.s:23     .text:0000000000000014 .L1
     /tmp/ccFRkcXK.s:119    .text:00000000000000a0 .L8
     /tmp/ccFRkcXK.s:111    .text:0000000000000094 .L10
     /tmp/ccFRkcXK.s:87     .text:0000000000000070 .L7
     /tmp/ccFRkcXK.s:94     .text:000000000000007c .L5
     /tmp/ccFRkcXK.s:192    .text:0000000000000100 .L12
     /tmp/ccFRkcXK.s:175    .text:00000000000000ec .L11
     /tmp/ccFRkcXK.s:1487   .debug_abbrev:0000000000000000 .Ldebug_abbrev0
     /tmp/ccFRkcXK.s:2968   .debug_str:0000000000000618 .LASF104
     /tmp/ccFRkcXK.s:2992   .debug_str:0000000000000770 .LASF105
     /tmp/ccFRkcXK.s:2810   .debug_str:0000000000000111 .LASF106
     /tmp/ccFRkcXK.s:5      .text:0000000000000000 .Ltext0
     /tmp/ccFRkcXK.s:325    .text:00000000000001b0 .Letext0
     /tmp/ccFRkcXK.s:2774   .debug_line:0000000000000000 .Ldebug_line0
     /tmp/ccFRkcXK.s:2898   .debug_str:000000000000041d .LASF0
     /tmp/ccFRkcXK.s:2912   .debug_str:000000000000047b .LASF1
     /tmp/ccFRkcXK.s:2882   .debug_str:0000000000000395 .LASF2
     /tmp/ccFRkcXK.s:2852   .debug_str:00000000000002b4 .LASF4
     /tmp/ccFRkcXK.s:2954   .debug_str:000000000000059f .LASF3
     /tmp/ccFRkcXK.s:2794   .debug_str:000000000000007c .LASF5
     /tmp/ccFRkcXK.s:2916   .debug_str:00000000000004a4 .LASF6
     /tmp/ccFRkcXK.s:2896   .debug_str:000000000000040a .LASF7
     /tmp/ccFRkcXK.s:2982   .debug_str:0000000000000735 .LASF8
     /tmp/ccFRkcXK.s:2838   .debug_str:000000000000021f .LASF9
     /tmp/ccFRkcXK.s:2930   .debug_str:00000000000004eb .LASF10
     /tmp/ccFRkcXK.s:2972   .debug_str:00000000000006e7 .LASF11
     /tmp/ccFRkcXK.s:2798   .debug_str:0000000000000096 .LASF12
     /tmp/ccFRkcXK.s:2778   .debug_str:0000000000000008 .LASF13
     /tmp/ccFRkcXK.s:2804   .debug_str:00000000000000d3 .LASF14
     /tmp/ccFRkcXK.s:2946   .debug_str:0000000000000542 .LASF15
     /tmp/ccFRkcXK.s:2812   .debug_str:0000000000000134 .LASF16
     /tmp/ccFRkcXK.s:2878   .debug_str:000000000000037e .LASF28
     /tmp/ccFRkcXK.s:3004   .debug_str:00000000000007be .LASF35
     /tmp/ccFRkcXK.s:2962   .debug_str:00000000000005ec .LASF17
     /tmp/ccFRkcXK.s:3002   .debug_str:00000000000007b9 .LASF18
     /tmp/ccFRkcXK.s:2990   .debug_str:000000000000076b .LASF19
     /tmp/ccFRkcXK.s:2922   .debug_str:00000000000004ca .LASF24
     /tmp/ccFRkcXK.s:2966   .debug_str:00000000000005fc .LASF26
     /tmp/ccFRkcXK.s:2956   .debug_str:00000000000005b1 .LASF20
     /tmp/ccFRkcXK.s:2960   .debug_str:00000000000005cb .LASF22
     /tmp/ccFRkcXK.s:2932   .debug_str:00000000000004fa .LASF21
     /tmp/ccFRkcXK.s:2836   .debug_str:00000000000001fe .LASF23
GAS LISTING /tmp/ccFRkcXK.s 			page 12


     /tmp/ccFRkcXK.s:2980   .debug_str:0000000000000719 .LASF44
     /tmp/ccFRkcXK.s:2894   .debug_str:0000000000000400 .LASF87
     /tmp/ccFRkcXK.s:2866   .debug_str:00000000000002f8 .LASF88
     /tmp/ccFRkcXK.s:2862   .debug_str:00000000000002dc .LASF25
     /tmp/ccFRkcXK.s:2908   .debug_str:0000000000000453 .LASF27
     /tmp/ccFRkcXK.s:2970   .debug_str:00000000000006dc .LASF37
     /tmp/ccFRkcXK.s:2822   .debug_str:00000000000001a0 .LASF29
     /tmp/ccFRkcXK.s:2886   .debug_str:00000000000003af .LASF30
     /tmp/ccFRkcXK.s:2996   .debug_str:000000000000078d .LASF31
     /tmp/ccFRkcXK.s:2998   .debug_str:0000000000000796 .LASF32
     /tmp/ccFRkcXK.s:2828   .debug_str:00000000000001d4 .LASF66
     /tmp/ccFRkcXK.s:2868   .debug_str:0000000000000314 .LASF68
     /tmp/ccFRkcXK.s:2832   .debug_str:00000000000001f1 .LASF33
     /tmp/ccFRkcXK.s:2858   .debug_str:00000000000002cf .LASF34
     /tmp/ccFRkcXK.s:2786   .debug_str:0000000000000041 .LASF36
     /tmp/ccFRkcXK.s:2910   .debug_str:0000000000000473 .LASF38
     /tmp/ccFRkcXK.s:2784   .debug_str:0000000000000034 .LASF39
     /tmp/ccFRkcXK.s:2820   .debug_str:0000000000000179 .LASF40
     /tmp/ccFRkcXK.s:2994   .debug_str:0000000000000782 .LASF71
     /tmp/ccFRkcXK.s:2840   .debug_str:000000000000022d .LASF107
     /tmp/ccFRkcXK.s:2900   .debug_str:000000000000042a .LASF41
     /tmp/ccFRkcXK.s:2830   .debug_str:00000000000001de .LASF42
     /tmp/ccFRkcXK.s:2948   .debug_str:0000000000000558 .LASF56
     /tmp/ccFRkcXK.s:2800   .debug_str:00000000000000a6 .LASF58
     /tmp/ccFRkcXK.s:2924   .debug_str:00000000000004cf .LASF43
     /tmp/ccFRkcXK.s:2950   .debug_str:000000000000055e .LASF45
     /tmp/ccFRkcXK.s:2884   .debug_str:00000000000003a3 .LASF46
     /tmp/ccFRkcXK.s:2874   .debug_str:000000000000035d .LASF47
     /tmp/ccFRkcXK.s:2984   .debug_str:0000000000000745 .LASF48
     /tmp/ccFRkcXK.s:2780   .debug_str:0000000000000018 .LASF49
     /tmp/ccFRkcXK.s:2854   .debug_str:00000000000002bb .LASF50
     /tmp/ccFRkcXK.s:2914   .debug_str:000000000000048e .LASF51
     /tmp/ccFRkcXK.s:2824   .debug_str:00000000000001b9 .LASF52
     /tmp/ccFRkcXK.s:2936   .debug_str:0000000000000508 .LASF53
     /tmp/ccFRkcXK.s:2988   .debug_str:000000000000075e .LASF54
     /tmp/ccFRkcXK.s:2792   .debug_str:0000000000000070 .LASF55
     /tmp/ccFRkcXK.s:2958   .debug_str:00000000000005bb .LASF57
     /tmp/ccFRkcXK.s:2942   .debug_str:000000000000051e .LASF59
     /tmp/ccFRkcXK.s:3000   .debug_str:00000000000007a2 .LASF72
     /tmp/ccFRkcXK.s:2978   .debug_str:0000000000000710 .LASF60
     /tmp/ccFRkcXK.s:2834   .debug_str:00000000000001f6 .LASF61
     /tmp/ccFRkcXK.s:2904   .debug_str:0000000000000438 .LASF62
     /tmp/ccFRkcXK.s:2860   .debug_str:00000000000002d4 .LASF63
     /tmp/ccFRkcXK.s:2856   .debug_str:00000000000002c6 .LASF64
     /tmp/ccFRkcXK.s:2776   .debug_str:0000000000000000 .LASF65
     /tmp/ccFRkcXK.s:2870   .debug_str:0000000000000340 .LASF108
     /tmp/ccFRkcXK.s:2844   .debug_str:000000000000025a .LASF109
     /tmp/ccFRkcXK.s:2986   .debug_str:0000000000000750 .LASF67
     /tmp/ccFRkcXK.s:2848   .debug_str:0000000000000287 .LASF69
     /tmp/ccFRkcXK.s:2928   .debug_str:00000000000004e1 .LASF70
     /tmp/ccFRkcXK.s:2846   .debug_str:0000000000000273 .LASF110
     /tmp/ccFRkcXK.s:2802   .debug_str:00000000000000bb .LASF73
     /tmp/ccFRkcXK.s:2816   .debug_str:000000000000014f .LASF74
     /tmp/ccFRkcXK.s:2864   .debug_str:00000000000002e5 .LASF75
     /tmp/ccFRkcXK.s:2976   .debug_str:00000000000006fb .LASF76
     /tmp/ccFRkcXK.s:2788   .debug_str:0000000000000049 .LASF77
     /tmp/ccFRkcXK.s:2926   .debug_str:00000000000004db .LASF78
GAS LISTING /tmp/ccFRkcXK.s 			page 13


     /tmp/ccFRkcXK.s:2876   .debug_str:0000000000000374 .LASF79
     /tmp/ccFRkcXK.s:2974   .debug_str:00000000000006f6 .LASF80
     /tmp/ccFRkcXK.s:2940   .debug_str:0000000000000519 .LASF81
     /tmp/ccFRkcXK.s:2892   .debug_str:00000000000003e1 .LASF111
     /tmp/ccFRkcXK.s:2814   .debug_str:000000000000014a .LASF82
     /tmp/ccFRkcXK.s:2888   .debug_str:00000000000003b8 .LASF83
     /tmp/ccFRkcXK.s:2850   .debug_str:00000000000002af .LASF84
     /tmp/ccFRkcXK.s:2796   .debug_str:0000000000000083 .LASF85
     /tmp/ccFRkcXK.s:2944   .debug_str:000000000000052b .LASF86
     /tmp/ccFRkcXK.s:2842   .debug_str:0000000000000243 .LASF89
     /tmp/ccFRkcXK.s:2818   .debug_str:0000000000000161 .LASF112
     /tmp/ccFRkcXK.s:2790   .debug_str:000000000000005b .LASF113
     /tmp/ccFRkcXK.s:2902   .debug_str:0000000000000433 .LASF90
     /tmp/ccFRkcXK.s:2826   .debug_str:00000000000001be .LASF91
     /tmp/ccFRkcXK.s:2906   .debug_str:000000000000043e .LASF114
     /tmp/ccFRkcXK.s:2890   .debug_str:00000000000003bd .LASF92
     /tmp/ccFRkcXK.s:285    .text:000000000000017c .LFB25
     /tmp/ccFRkcXK.s:311    .text:00000000000001b0 .LFE25
     /tmp/ccFRkcXK.s:301    .text:00000000000001a0 .LVL26
     /tmp/ccFRkcXK.s:2952   .debug_str:0000000000000575 .LASF93
     /tmp/ccFRkcXK.s:9      .text:0000000000000000 .LFB24
     /tmp/ccFRkcXK.s:53     .text:0000000000000040 .LFE24
     /tmp/ccFRkcXK.s:2872   .debug_str:000000000000034e .LASF94
     /tmp/ccFRkcXK.s:2964   .debug_str:00000000000005f1 .LASF95
     /tmp/ccFRkcXK.s:38     .text:000000000000002c .LBB15
     /tmp/ccFRkcXK.s:49     .text:000000000000003c .LBE15
     /tmp/ccFRkcXK.s:2588   .debug_loc:0000000000000000 .LLST0
     /tmp/ccFRkcXK.s:2934   .debug_str:0000000000000503 .LASF96
     /tmp/ccFRkcXK.s:2808   .debug_str:00000000000000f2 .LASF98
     /tmp/ccFRkcXK.s:2938   .debug_str:0000000000000514 .LASF97
     /tmp/ccFRkcXK.s:2806   .debug_str:00000000000000df .LASF99
     /tmp/ccFRkcXK.s:254    .text:0000000000000154 .LFB15
     /tmp/ccFRkcXK.s:280    .text:000000000000017c .LFE15
     /tmp/ccFRkcXK.s:2597   .debug_loc:000000000000002c .LLST12
     /tmp/ccFRkcXK.s:269    .text:000000000000016c .LVL25
     /tmp/ccFRkcXK.s:212    .text:0000000000000114 .LFB14
     /tmp/ccFRkcXK.s:248    .text:0000000000000154 .LFE14
     /tmp/ccFRkcXK.s:2611   .debug_loc:0000000000000065 .LLST10
     /tmp/ccFRkcXK.s:2918   .debug_str:00000000000004b7 .LASF100
     /tmp/ccFRkcXK.s:2625   .debug_loc:000000000000009e .LLST11
     /tmp/ccFRkcXK.s:237    .text:0000000000000144 .LVL23
     /tmp/ccFRkcXK.s:134    .text:00000000000000a8 .LFB13
     /tmp/ccFRkcXK.s:206    .text:0000000000000114 .LFE13
     /tmp/ccFRkcXK.s:2920   .debug_str:00000000000004c3 .LASF101
     /tmp/ccFRkcXK.s:2640   .debug_loc:00000000000000d8 .LLST4
     /tmp/ccFRkcXK.s:151    .text:00000000000000c0 .LBB22
     /tmp/ccFRkcXK.s:2760   .debug_ranges:0000000000000000 .Ldebug_ranges0
     /tmp/ccFRkcXK.s:2662   .debug_loc:0000000000000137 .LLST5
     /tmp/ccFRkcXK.s:2677   .debug_loc:0000000000000180 .LLST6
     /tmp/ccFRkcXK.s:158    .text:00000000000000cc .LBB24
     /tmp/ccFRkcXK.s:165    .text:00000000000000d4 .LBE24
     /tmp/ccFRkcXK.s:2692   .debug_loc:00000000000001c8 .LLST7
     /tmp/ccFRkcXK.s:2700   .debug_loc:00000000000001ec .LLST8
     /tmp/ccFRkcXK.s:2707   .debug_loc:000000000000020f .LLST9
     /tmp/ccFRkcXK.s:157    .text:00000000000000cc .LVL13
     /tmp/ccFRkcXK.s:59     .text:0000000000000040 .LFB12
     /tmp/ccFRkcXK.s:128    .text:00000000000000a8 .LFE12
GAS LISTING /tmp/ccFRkcXK.s 			page 14


     /tmp/ccFRkcXK.s:74     .text:0000000000000054 .LBB18
     /tmp/ccFRkcXK.s:2714   .debug_loc:0000000000000232 .LLST1
     /tmp/ccFRkcXK.s:2729   .debug_loc:000000000000027a .LLST2
     /tmp/ccFRkcXK.s:2740   .debug_loc:00000000000002b0 .LLST3
     /tmp/ccFRkcXK.s:93     .text:000000000000007c .LVL6
     /tmp/ccFRkcXK.s:2782   .debug_str:000000000000002e .LASF102
     /tmp/ccFRkcXK.s:2880   .debug_str:000000000000038e .LASF103
     /tmp/ccFRkcXK.s:37     .text:000000000000002c .LVL1
     /tmp/ccFRkcXK.s:46     .text:000000000000003c .LVL2
     /tmp/ccFRkcXK.s:257    .text:0000000000000154 .LVL24
     /tmp/ccFRkcXK.s:215    .text:0000000000000114 .LVL19
     /tmp/ccFRkcXK.s:229    .text:0000000000000134 .LVL20
     /tmp/ccFRkcXK.s:231    .text:0000000000000138 .LVL21
     /tmp/ccFRkcXK.s:235    .text:000000000000013c .LVL22
     /tmp/ccFRkcXK.s:137    .text:00000000000000a8 .LVL10
     /tmp/ccFRkcXK.s:155    .text:00000000000000c4 .LVL12
     /tmp/ccFRkcXK.s:187    .text:00000000000000f8 .LVL16
     /tmp/ccFRkcXK.s:191    .text:0000000000000100 .LVL17
     /tmp/ccFRkcXK.s:150    .text:00000000000000c0 .LVL11
     /tmp/ccFRkcXK.s:174    .text:00000000000000ec .LVL15
     /tmp/ccFRkcXK.s:200    .text:0000000000000110 .LVL18
     /tmp/ccFRkcXK.s:163    .text:00000000000000d4 .LVL14
     /tmp/ccFRkcXK.s:73     .text:0000000000000054 .LVL3
     /tmp/ccFRkcXK.s:110    .text:0000000000000094 .LVL7
     /tmp/ccFRkcXK.s:122    .text:00000000000000a4 .LVL9
     /tmp/ccFRkcXK.s:80     .text:0000000000000060 .LVL4
     /tmp/ccFRkcXK.s:118    .text:00000000000000a0 .LVL8
     /tmp/ccFRkcXK.s:90     .text:0000000000000074 .LVL5
     /tmp/ccFRkcXK.s:331    .debug_info:0000000000000000 .Ldebug_info0
     /tmp/ccFRkcXK.s:96     .text:000000000000007c .LBE18
     /tmp/ccFRkcXK.s:113    .text:0000000000000094 .LBB21
     /tmp/ccFRkcXK.s:124    .text:00000000000000a4 .LBE21
     /tmp/ccFRkcXK.s:177    .text:00000000000000ec .LBE22
     /tmp/ccFRkcXK.s:194    .text:0000000000000100 .LBB27
     /tmp/ccFRkcXK.s:202    .text:0000000000000110 .LBE27

UNDEFINED SYMBOLS
_ZdlPv
_Znwm
_ZN15MemoryAllocator10DBlockSizeE
_ZN15MemoryAllocator9mem_allocEm
_ZN15MemoryAllocator8mem_freeEPv
