GAS LISTING /tmp/cca4P2fq.s 			page 1


   1              		.file	"scheduler.cpp"
   2              		.option pic
   3              		.option norelax
   4              		.text
   5              	.Ltext0:
   6              		.align	2
   7              		.globl	_ZN9Scheduler3getEv
   9              	_ZN9Scheduler3getEv:
  10              	.LFB5:
  11              		.file 1 "src/scheduler.cpp"
   1:src/scheduler.cpp **** #include "../h/scheduler.hpp"
   2:src/scheduler.cpp **** 
   3:src/scheduler.cpp **** TCB* Scheduler::head=nullptr;
   4:src/scheduler.cpp **** TCB* Scheduler::tail=nullptr;
   5:src/scheduler.cpp **** 
   6:src/scheduler.cpp **** TCB *Scheduler::get() {
  12              		.loc 1 6 23
  13              		.cfi_startproc
  14 0000 130101FF 		addi	sp,sp,-16
  15              		.cfi_def_cfa_offset 16
  16 0004 23348100 		sd	s0,8(sp)
  17              		.cfi_offset 8, -8
  18 0008 13040101 		addi	s0,sp,16
  19              		.cfi_def_cfa 8, 0
   7:src/scheduler.cpp **** 
   8:src/scheduler.cpp ****     if (!head) return nullptr;
  20              		.loc 1 8 5
  21              		.loc 1 8 9 is_stmt 0
  22 000c 17050000 		ld	a0,.LANCHOR0
  22      03350500 
  23              		.loc 1 8 5
  24 0014 630C0500 		beqz	a0,.L1
   9:src/scheduler.cpp ****     TCB* thread=head;
  25              		.loc 1 9 5 is_stmt 1
  26              	.LVL0:
  10:src/scheduler.cpp ****     head=head->schedulerNext;
  27              		.loc 1 10 5
  28              		.loc 1 10 16 is_stmt 0
  29 0018 83370503 		ld	a5,48(a0)
  30              		.loc 1 10 9
  31 001c 17070000 		sd	a5,.LANCHOR0,a4
  31      2330F700 
  11:src/scheduler.cpp ****     if (!head) tail=nullptr;
  32              		.loc 1 11 5 is_stmt 1
  33 0024 638A0700 		beqz	a5,.L5
  34              	.L3:
  12:src/scheduler.cpp ****     thread->schedulerNext=nullptr;
  35              		.loc 1 12 5
  36              		.loc 1 12 26 is_stmt 0
  37 0028 23380502 		sd	zero,48(a0)
  13:src/scheduler.cpp ****     return thread;
  38              		.loc 1 13 5 is_stmt 1
  39              	.LVL1:
  40              	.L1:
  14:src/scheduler.cpp **** }
  41              		.loc 1 14 1 is_stmt 0
  42 002c 03348100 		ld	s0,8(sp)
GAS LISTING /tmp/cca4P2fq.s 			page 2


  43              		.cfi_remember_state
  44              		.cfi_restore 8
  45              		.cfi_def_cfa 2, 16
  46 0030 13010101 		addi	sp,sp,16
  47              		.cfi_def_cfa_offset 0
  48 0034 67800000 		jr	ra
  49              	.LVL2:
  50              	.L5:
  51              		.cfi_restore_state
  11:src/scheduler.cpp ****     thread->schedulerNext=nullptr;
  52              		.loc 1 11 16 is_stmt 1 discriminator 1
  11:src/scheduler.cpp ****     thread->schedulerNext=nullptr;
  53              		.loc 1 11 20 is_stmt 0 discriminator 1
  54 0038 97070000 		sd	zero,.LANCHOR0+8,a5
  54      23B00700 
  55 0040 6FF09FFE 		j	.L3
  56              		.cfi_endproc
  57              	.LFE5:
  59              		.align	2
  60              		.globl	_ZN9Scheduler3putEP3TCB
  62              	_ZN9Scheduler3putEP3TCB:
  63              	.LFB6:
  15:src/scheduler.cpp **** 
  16:src/scheduler.cpp **** void Scheduler::put(TCB *thread) {
  64              		.loc 1 16 34 is_stmt 1
  65              		.cfi_startproc
  66              	.LVL3:
  67 0044 130101FF 		addi	sp,sp,-16
  68              		.cfi_def_cfa_offset 16
  69 0048 23348100 		sd	s0,8(sp)
  70              		.cfi_offset 8, -8
  71 004c 13040101 		addi	s0,sp,16
  72              		.cfi_def_cfa 8, 0
  17:src/scheduler.cpp ****     if (!head) head = tail = thread;
  73              		.loc 1 17 5
  74              		.loc 1 17 9 is_stmt 0
  75 0050 97070000 		ld	a5,.LANCHOR0
  75      83B70700 
  76              		.loc 1 17 5
  77 0058 63820702 		beqz	a5,.L10
  18:src/scheduler.cpp ****     else tail = tail -> schedulerNext = thread;
  78              		.loc 1 18 10 is_stmt 1
  79              		.loc 1 18 25 is_stmt 0
  80 005c 97070000 		lla	a5,.LANCHOR0
  80      93870700 
  81 0064 03B78700 		ld	a4,8(a5)
  82              		.loc 1 18 39
  83 0068 2338A702 		sd	a0,48(a4)
  84              		.loc 1 18 15
  85 006c 23B4A700 		sd	a0,8(a5)
  86              	.L6:
  19:src/scheduler.cpp **** }
  87              		.loc 1 19 1
  88 0070 03348100 		ld	s0,8(sp)
  89              		.cfi_remember_state
  90              		.cfi_restore 8
  91              		.cfi_def_cfa 2, 16
GAS LISTING /tmp/cca4P2fq.s 			page 3


  92 0074 13010101 		addi	sp,sp,16
  93              		.cfi_def_cfa_offset 0
  94 0078 67800000 		jr	ra
  95              	.L10:
  96              		.cfi_restore_state
  17:src/scheduler.cpp ****     if (!head) head = tail = thread;
  97              		.loc 1 17 16 is_stmt 1 discriminator 1
  17:src/scheduler.cpp ****     if (!head) head = tail = thread;
  98              		.loc 1 17 28 is_stmt 0 discriminator 1
  99 007c 97070000 		lla	a5,.LANCHOR0
  99      93870700 
 100 0084 23B4A700 		sd	a0,8(a5)
  17:src/scheduler.cpp ****     if (!head) head = tail = thread;
 101              		.loc 1 17 21 discriminator 1
 102 0088 23B0A700 		sd	a0,0(a5)
 103 008c 6FF05FFE 		j	.L6
 104              		.cfi_endproc
 105              	.LFE6:
 107              		.align	2
 108              		.globl	_ZN9SchedulernwEm
 110              	_ZN9SchedulernwEm:
 111              	.LFB7:
  20:src/scheduler.cpp **** 
  21:src/scheduler.cpp **** void *Scheduler::operator new(size_t size) {
 112              		.loc 1 21 44 is_stmt 1
 113              		.cfi_startproc
 114              	.LVL4:
 115 0090 130101FF 		addi	sp,sp,-16
 116              		.cfi_def_cfa_offset 16
 117 0094 23341100 		sd	ra,8(sp)
 118 0098 23308100 		sd	s0,0(sp)
 119              		.cfi_offset 1, -8
 120              		.cfi_offset 8, -16
 121 009c 13040101 		addi	s0,sp,16
 122              		.cfi_def_cfa 8, 0
  22:src/scheduler.cpp ****     size_t numOfBlocks=ROUNDUP((size+MemoryAllocator::DBlockSize))/MEM_BLOCK_SIZE;
 123              		.loc 1 22 5
 124              		.loc 1 22 24 is_stmt 0
 125 00a0 97070000 		la	a5,_ZN15MemoryAllocator10DBlockSizeE
 125      83B70700 
 126 00a8 83B70700 		ld	a5,0(a5)
 127 00ac 3385A700 		add	a0,a5,a0
 128              	.LVL5:
 129 00b0 1305F503 		addi	a0,a0,63
 130              	.LVL6:
  23:src/scheduler.cpp ****     return MemoryAllocator::mem_alloc(numOfBlocks);
 131              		.loc 1 23 5 is_stmt 1
 132              		.loc 1 23 38 is_stmt 0
 133 00b4 13556500 		srli	a0,a0,6
 134              	.LVL7:
 135 00b8 97000000 		call	_ZN15MemoryAllocator9mem_allocEm@plt
 135      E7800000 
 136              	.LVL8:
  24:src/scheduler.cpp **** }
 137              		.loc 1 24 1
 138 00c0 83308100 		ld	ra,8(sp)
 139              		.cfi_restore 1
GAS LISTING /tmp/cca4P2fq.s 			page 4


 140 00c4 03340100 		ld	s0,0(sp)
 141              		.cfi_restore 8
 142              		.cfi_def_cfa 2, 16
 143 00c8 13010101 		addi	sp,sp,16
 144              		.cfi_def_cfa_offset 0
 145 00cc 67800000 		jr	ra
 146              		.cfi_endproc
 147              	.LFE7:
 149              		.align	2
 150              		.globl	_ZN9SchedulerdlEPv
 152              	_ZN9SchedulerdlEPv:
 153              	.LFB8:
  25:src/scheduler.cpp **** 
  26:src/scheduler.cpp **** void Scheduler::operator delete(void *ptr) {
 154              		.loc 1 26 44 is_stmt 1
 155              		.cfi_startproc
 156              	.LVL9:
 157 00d0 130101FF 		addi	sp,sp,-16
 158              		.cfi_def_cfa_offset 16
 159 00d4 23341100 		sd	ra,8(sp)
 160 00d8 23308100 		sd	s0,0(sp)
 161              		.cfi_offset 1, -8
 162              		.cfi_offset 8, -16
 163 00dc 13040101 		addi	s0,sp,16
 164              		.cfi_def_cfa 8, 0
  27:src/scheduler.cpp ****     MemoryAllocator::mem_free(ptr);
 165              		.loc 1 27 5
 166              		.loc 1 27 30 is_stmt 0
 167 00e0 97000000 		call	_ZN15MemoryAllocator8mem_freeEPv@plt
 167      E7800000 
 168              	.LVL10:
  28:src/scheduler.cpp **** }
 169              		.loc 1 28 1
 170 00e8 83308100 		ld	ra,8(sp)
 171              		.cfi_restore 1
 172 00ec 03340100 		ld	s0,0(sp)
 173              		.cfi_restore 8
 174              		.cfi_def_cfa 2, 16
 175 00f0 13010101 		addi	sp,sp,16
 176              		.cfi_def_cfa_offset 0
 177 00f4 67800000 		jr	ra
 178              		.cfi_endproc
 179              	.LFE8:
 181              		.globl	_ZN9Scheduler4tailE
 182              		.globl	_ZN9Scheduler4headE
 183              		.bss
 184              		.align	3
 185              		.set	.LANCHOR0,. + 0
 188              	_ZN9Scheduler4headE:
 189 0000 00000000 		.zero	8
 189      00000000 
 192              	_ZN9Scheduler4tailE:
 193 0008 00000000 		.zero	8
 193      00000000 
 194              		.text
 195              	.Letext0:
 196              		.file 2 "src/../h/../lib/hw.h"
GAS LISTING /tmp/cca4P2fq.s 			page 5


 197              		.file 3 "src/../h/memoryAllocator.hpp"
 198              		.file 4 "src/../h/tcb.hpp"
 199              		.file 5 "src/../h/scheduler.hpp"
GAS LISTING /tmp/cca4P2fq.s 			page 6


DEFINED SYMBOLS
                            *ABS*:0000000000000000 scheduler.cpp
     /tmp/cca4P2fq.s:9      .text:0000000000000000 _ZN9Scheduler3getEv
     /tmp/cca4P2fq.s:13     .text:0000000000000000 .L0 
     /tmp/cca4P2fq.s:14     .text:0000000000000000 .L0 
     /tmp/cca4P2fq.s:15     .text:0000000000000004 .L0 
     /tmp/cca4P2fq.s:17     .text:0000000000000008 .L0 
     /tmp/cca4P2fq.s:19     .text:000000000000000c .L0 
     /tmp/cca4P2fq.s:21     .text:000000000000000c .L0 
     /tmp/cca4P2fq.s:22     .text:000000000000000c .L0 
     /tmp/cca4P2fq.s:24     .text:0000000000000014 .L0 
     /tmp/cca4P2fq.s:27     .text:0000000000000018 .L0 
     /tmp/cca4P2fq.s:28     .text:0000000000000018 .L0 
     /tmp/cca4P2fq.s:29     .text:0000000000000018 .L0 
     /tmp/cca4P2fq.s:31     .text:000000000000001c .L0 
     /tmp/cca4P2fq.s:33     .text:0000000000000024 .L0 
     /tmp/cca4P2fq.s:36     .text:0000000000000028 .L0 
     /tmp/cca4P2fq.s:37     .text:0000000000000028 .L0 
     /tmp/cca4P2fq.s:41     .text:000000000000002c .L0 
     /tmp/cca4P2fq.s:42     .text:000000000000002c .L0 
     /tmp/cca4P2fq.s:43     .text:0000000000000030 .L0 
     /tmp/cca4P2fq.s:44     .text:0000000000000030 .L0 
     /tmp/cca4P2fq.s:45     .text:0000000000000030 .L0 
     /tmp/cca4P2fq.s:47     .text:0000000000000034 .L0 
     /tmp/cca4P2fq.s:51     .text:0000000000000038 .L0 
     /tmp/cca4P2fq.s:53     .text:0000000000000038 .L0 
     /tmp/cca4P2fq.s:54     .text:0000000000000038 .L0 
     /tmp/cca4P2fq.s:56     .text:0000000000000044 .L0 
     /tmp/cca4P2fq.s:62     .text:0000000000000044 _ZN9Scheduler3putEP3TCB
     /tmp/cca4P2fq.s:65     .text:0000000000000044 .L0 
     /tmp/cca4P2fq.s:67     .text:0000000000000044 .L0 
     /tmp/cca4P2fq.s:68     .text:0000000000000048 .L0 
     /tmp/cca4P2fq.s:70     .text:000000000000004c .L0 
     /tmp/cca4P2fq.s:72     .text:0000000000000050 .L0 
     /tmp/cca4P2fq.s:74     .text:0000000000000050 .L0 
     /tmp/cca4P2fq.s:75     .text:0000000000000050 .L0 
     /tmp/cca4P2fq.s:77     .text:0000000000000058 .L0 
     /tmp/cca4P2fq.s:79     .text:000000000000005c .L0 
     /tmp/cca4P2fq.s:80     .text:000000000000005c .L0 
     /tmp/cca4P2fq.s:83     .text:0000000000000068 .L0 
     /tmp/cca4P2fq.s:85     .text:000000000000006c .L0 
     /tmp/cca4P2fq.s:88     .text:0000000000000070 .L0 
     /tmp/cca4P2fq.s:89     .text:0000000000000074 .L0 
     /tmp/cca4P2fq.s:90     .text:0000000000000074 .L0 
     /tmp/cca4P2fq.s:91     .text:0000000000000074 .L0 
     /tmp/cca4P2fq.s:93     .text:0000000000000078 .L0 
     /tmp/cca4P2fq.s:96     .text:000000000000007c .L0 
     /tmp/cca4P2fq.s:98     .text:000000000000007c .L0 
     /tmp/cca4P2fq.s:99     .text:000000000000007c .L0 
     /tmp/cca4P2fq.s:102    .text:0000000000000088 .L0 
     /tmp/cca4P2fq.s:104    .text:0000000000000090 .L0 
     /tmp/cca4P2fq.s:110    .text:0000000000000090 _ZN9SchedulernwEm
     /tmp/cca4P2fq.s:113    .text:0000000000000090 .L0 
     /tmp/cca4P2fq.s:115    .text:0000000000000090 .L0 
     /tmp/cca4P2fq.s:116    .text:0000000000000094 .L0 
     /tmp/cca4P2fq.s:119    .text:000000000000009c .L0 
     /tmp/cca4P2fq.s:120    .text:000000000000009c .L0 
GAS LISTING /tmp/cca4P2fq.s 			page 7


     /tmp/cca4P2fq.s:122    .text:00000000000000a0 .L0 
     /tmp/cca4P2fq.s:124    .text:00000000000000a0 .L0 
     /tmp/cca4P2fq.s:125    .text:00000000000000a0 .L0 
     /tmp/cca4P2fq.s:132    .text:00000000000000b4 .L0 
     /tmp/cca4P2fq.s:133    .text:00000000000000b4 .L0 
     /tmp/cca4P2fq.s:138    .text:00000000000000c0 .L0 
     /tmp/cca4P2fq.s:139    .text:00000000000000c4 .L0 
     /tmp/cca4P2fq.s:141    .text:00000000000000c8 .L0 
     /tmp/cca4P2fq.s:142    .text:00000000000000c8 .L0 
     /tmp/cca4P2fq.s:144    .text:00000000000000cc .L0 
     /tmp/cca4P2fq.s:146    .text:00000000000000d0 .L0 
     /tmp/cca4P2fq.s:152    .text:00000000000000d0 _ZN9SchedulerdlEPv
     /tmp/cca4P2fq.s:155    .text:00000000000000d0 .L0 
     /tmp/cca4P2fq.s:157    .text:00000000000000d0 .L0 
     /tmp/cca4P2fq.s:158    .text:00000000000000d4 .L0 
     /tmp/cca4P2fq.s:161    .text:00000000000000dc .L0 
     /tmp/cca4P2fq.s:162    .text:00000000000000dc .L0 
     /tmp/cca4P2fq.s:164    .text:00000000000000e0 .L0 
     /tmp/cca4P2fq.s:166    .text:00000000000000e0 .L0 
     /tmp/cca4P2fq.s:167    .text:00000000000000e0 .L0 
     /tmp/cca4P2fq.s:170    .text:00000000000000e8 .L0 
     /tmp/cca4P2fq.s:171    .text:00000000000000ec .L0 
     /tmp/cca4P2fq.s:173    .text:00000000000000f0 .L0 
     /tmp/cca4P2fq.s:174    .text:00000000000000f0 .L0 
     /tmp/cca4P2fq.s:176    .text:00000000000000f4 .L0 
     /tmp/cca4P2fq.s:178    .text:00000000000000f8 .L0 
     /tmp/cca4P2fq.s:192    .bss:0000000000000008 _ZN9Scheduler4tailE
     /tmp/cca4P2fq.s:188    .bss:0000000000000000 _ZN9Scheduler4headE
     /tmp/cca4P2fq.s:185    .bss:0000000000000000 .LANCHOR0
     /tmp/cca4P2fq.s:200    .text:00000000000000f8 .L0 
     /tmp/cca4P2fq.s:22     .text:000000000000000c .L0 
     /tmp/cca4P2fq.s:31     .text:000000000000001c .L0 
     /tmp/cca4P2fq.s:54     .text:0000000000000038 .L0 
     /tmp/cca4P2fq.s:75     .text:0000000000000050 .L0 
     /tmp/cca4P2fq.s:80     .text:000000000000005c .L0 
     /tmp/cca4P2fq.s:99     .text:000000000000007c .L0 
     /tmp/cca4P2fq.s:125    .text:00000000000000a0 .L0 
     /tmp/cca4P2fq.s:40     .text:000000000000002c .L1
     /tmp/cca4P2fq.s:50     .text:0000000000000038 .L5
     /tmp/cca4P2fq.s:34     .text:0000000000000028 .L3
     /tmp/cca4P2fq.s:95     .text:000000000000007c .L10
     /tmp/cca4P2fq.s:86     .text:0000000000000070 .L6
     /tmp/cca4P2fq.s:961    .debug_abbrev:0000000000000000 .Ldebug_abbrev0
     /tmp/cca4P2fq.s:2000   .debug_str:0000000000000452 .LASF79
     /tmp/cca4P2fq.s:2020   .debug_str:000000000000059a .LASF80
     /tmp/cca4P2fq.s:1884   .debug_str:0000000000000092 .LASF81
     /tmp/cca4P2fq.s:5      .text:0000000000000000 .Ltext0
     /tmp/cca4P2fq.s:195    .text:00000000000000f8 .Letext0
     /tmp/cca4P2fq.s:1860   .debug_line:0000000000000000 .Ldebug_line0
     /tmp/cca4P2fq.s:1952   .debug_str:00000000000002e6 .LASF0
     /tmp/cca4P2fq.s:1964   .debug_str:000000000000033e .LASF1
     /tmp/cca4P2fq.s:1940   .debug_str:00000000000002a1 .LASF2
     /tmp/cca4P2fq.s:1918   .debug_str:00000000000001eb .LASF4
     /tmp/cca4P2fq.s:1988   .debug_str:00000000000003e4 .LASF3
     /tmp/cca4P2fq.s:1874   .debug_str:000000000000004b .LASF5
     /tmp/cca4P2fq.s:1966   .debug_str:0000000000000351 .LASF6
     /tmp/cca4P2fq.s:1950   .debug_str:00000000000002d3 .LASF7
GAS LISTING /tmp/cca4P2fq.s 			page 8


     /tmp/cca4P2fq.s:2012   .debug_str:000000000000056a .LASF8
     /tmp/cca4P2fq.s:1908   .debug_str:0000000000000172 .LASF9
     /tmp/cca4P2fq.s:1976   .debug_str:0000000000000386 .LASF10
     /tmp/cca4P2fq.s:2004   .debug_str:0000000000000521 .LASF11
     /tmp/cca4P2fq.s:1876   .debug_str:0000000000000052 .LASF12
     /tmp/cca4P2fq.s:1864   .debug_str:0000000000000008 .LASF13
     /tmp/cca4P2fq.s:1880   .debug_str:000000000000007a .LASF14
     /tmp/cca4P2fq.s:1984   .debug_str:00000000000003b7 .LASF15
     /tmp/cca4P2fq.s:1886   .debug_str:00000000000000b5 .LASF16
     /tmp/cca4P2fq.s:1938   .debug_str:0000000000000291 .LASF28
     /tmp/cca4P2fq.s:2036   .debug_str:000000000000060a .LASF35
     /tmp/cca4P2fq.s:1996   .debug_str:0000000000000431 .LASF17
     /tmp/cca4P2fq.s:2032   .debug_str:00000000000005f1 .LASF18
     /tmp/cca4P2fq.s:2018   .debug_str:0000000000000595 .LASF19
     /tmp/cca4P2fq.s:1970   .debug_str:000000000000036b .LASF24
     /tmp/cca4P2fq.s:1998   .debug_str:0000000000000436 .LASF26
     /tmp/cca4P2fq.s:1990   .debug_str:00000000000003f6 .LASF20
     /tmp/cca4P2fq.s:1994   .debug_str:0000000000000410 .LASF22
     /tmp/cca4P2fq.s:1978   .debug_str:0000000000000395 .LASF21
     /tmp/cca4P2fq.s:1906   .debug_str:0000000000000151 .LASF23
     /tmp/cca4P2fq.s:2010   .debug_str:000000000000054e .LASF44
     /tmp/cca4P2fq.s:1948   .debug_str:00000000000002c9 .LASF82
     /tmp/cca4P2fq.s:1930   .debug_str:0000000000000224 .LASF83
     /tmp/cca4P2fq.s:1926   .debug_str:0000000000000208 .LASF25
     /tmp/cca4P2fq.s:1958   .debug_str:0000000000000302 .LASF27
     /tmp/cca4P2fq.s:2002   .debug_str:0000000000000516 .LASF37
     /tmp/cca4P2fq.s:1894   .debug_str:0000000000000109 .LASF29
     /tmp/cca4P2fq.s:1944   .debug_str:00000000000002bb .LASF30
     /tmp/cca4P2fq.s:2024   .debug_str:00000000000005b7 .LASF31
     /tmp/cca4P2fq.s:2028   .debug_str:00000000000005ce .LASF32
     /tmp/cca4P2fq.s:1898   .debug_str:0000000000000127 .LASF60
     /tmp/cca4P2fq.s:1932   .debug_str:0000000000000240 .LASF62
     /tmp/cca4P2fq.s:1902   .debug_str:0000000000000144 .LASF33
     /tmp/cca4P2fq.s:1922   .debug_str:00000000000001fb .LASF34
     /tmp/cca4P2fq.s:1868   .debug_str:0000000000000025 .LASF36
     /tmp/cca4P2fq.s:1960   .debug_str:0000000000000322 .LASF38
     /tmp/cca4P2fq.s:1866   .debug_str:0000000000000018 .LASF39
     /tmp/cca4P2fq.s:1892   .debug_str:00000000000000e2 .LASF40
     /tmp/cca4P2fq.s:2022   .debug_str:00000000000005ac .LASF65
     /tmp/cca4P2fq.s:1910   .debug_str:0000000000000180 .LASF84
     /tmp/cca4P2fq.s:1954   .debug_str:00000000000002f3 .LASF41
     /tmp/cca4P2fq.s:1900   .debug_str:0000000000000131 .LASF42
     /tmp/cca4P2fq.s:1972   .debug_str:0000000000000370 .LASF43
     /tmp/cca4P2fq.s:1986   .debug_str:00000000000003cd .LASF45
     /tmp/cca4P2fq.s:1942   .debug_str:00000000000002af .LASF46
     /tmp/cca4P2fq.s:1936   .debug_str:000000000000027a .LASF47
     /tmp/cca4P2fq.s:1896   .debug_str:0000000000000122 .LASF48
     /tmp/cca4P2fq.s:1980   .debug_str:000000000000039e .LASF49
     /tmp/cca4P2fq.s:2016   .debug_str:0000000000000588 .LASF50
     /tmp/cca4P2fq.s:1872   .debug_str:000000000000003f .LASF51
     /tmp/cca4P2fq.s:1992   .debug_str:0000000000000400 .LASF52
     /tmp/cca4P2fq.s:1982   .debug_str:00000000000003aa .LASF69
     /tmp/cca4P2fq.s:2030   .debug_str:00000000000005da .LASF66
     /tmp/cca4P2fq.s:2008   .debug_str:0000000000000545 .LASF53
     /tmp/cca4P2fq.s:1904   .debug_str:0000000000000149 .LASF54
     /tmp/cca4P2fq.s:1956   .debug_str:00000000000002fc .LASF55
     /tmp/cca4P2fq.s:1924   .debug_str:0000000000000200 .LASF56
GAS LISTING /tmp/cca4P2fq.s 			page 9


     /tmp/cca4P2fq.s:2026   .debug_str:00000000000005c0 .LASF57
     /tmp/cca4P2fq.s:1920   .debug_str:00000000000001f2 .LASF58
     /tmp/cca4P2fq.s:1862   .debug_str:0000000000000000 .LASF59
     /tmp/cca4P2fq.s:1934   .debug_str:000000000000026c .LASF85
     /tmp/cca4P2fq.s:1912   .debug_str:0000000000000196 .LASF86
     /tmp/cca4P2fq.s:2014   .debug_str:000000000000057a .LASF61
     /tmp/cca4P2fq.s:1916   .debug_str:00000000000001c3 .LASF63
     /tmp/cca4P2fq.s:1974   .debug_str:000000000000037c .LASF64
     /tmp/cca4P2fq.s:1914   .debug_str:00000000000001af .LASF87
     /tmp/cca4P2fq.s:1878   .debug_str:0000000000000062 .LASF67
     /tmp/cca4P2fq.s:1890   .debug_str:00000000000000d0 .LASF68
     /tmp/cca4P2fq.s:1928   .debug_str:0000000000000211 .LASF70
     /tmp/cca4P2fq.s:2006   .debug_str:0000000000000530 .LASF71
     /tmp/cca4P2fq.s:1870   .debug_str:000000000000002d .LASF72
     /tmp/cca4P2fq.s:1888   .debug_str:00000000000000cb .LASF73
     /tmp/cca4P2fq.s:1946   .debug_str:00000000000002c4 .LASF74
     /tmp/cca4P2fq.s:1962   .debug_str:000000000000032a .LASF75
     /tmp/cca4P2fq.s:2034   .debug_str:00000000000005f6 .LASF76
     /tmp/cca4P2fq.s:153    .text:00000000000000d0 .LFB8
     /tmp/cca4P2fq.s:179    .text:00000000000000f8 .LFE8
     /tmp/cca4P2fq.s:1793   .debug_loc:0000000000000000 .LLST3
     /tmp/cca4P2fq.s:168    .text:00000000000000e8 .LVL10
     /tmp/cca4P2fq.s:111    .text:0000000000000090 .LFB7
     /tmp/cca4P2fq.s:147    .text:00000000000000d0 .LFE7
     /tmp/cca4P2fq.s:1807   .debug_loc:0000000000000039 .LLST1
     /tmp/cca4P2fq.s:1882   .debug_str:0000000000000086 .LASF77
     /tmp/cca4P2fq.s:1821   .debug_loc:0000000000000072 .LLST2
     /tmp/cca4P2fq.s:136    .text:00000000000000c0 .LVL8
     /tmp/cca4P2fq.s:63     .text:0000000000000044 .LFB6
     /tmp/cca4P2fq.s:105    .text:0000000000000090 .LFE6
     /tmp/cca4P2fq.s:1968   .debug_str:0000000000000364 .LASF78
     /tmp/cca4P2fq.s:10     .text:0000000000000000 .LFB5
     /tmp/cca4P2fq.s:57     .text:0000000000000044 .LFE5
     /tmp/cca4P2fq.s:1836   .debug_loc:00000000000000ac .LLST0
     /tmp/cca4P2fq.s:156    .text:00000000000000d0 .LVL9
     /tmp/cca4P2fq.s:114    .text:0000000000000090 .LVL4
     /tmp/cca4P2fq.s:128    .text:00000000000000b0 .LVL5
     /tmp/cca4P2fq.s:130    .text:00000000000000b4 .LVL6
     /tmp/cca4P2fq.s:134    .text:00000000000000b8 .LVL7
     /tmp/cca4P2fq.s:26     .text:0000000000000018 .LVL0
     /tmp/cca4P2fq.s:39     .text:000000000000002c .LVL1
     /tmp/cca4P2fq.s:49     .text:0000000000000038 .LVL2
     /tmp/cca4P2fq.s:201    .debug_info:0000000000000000 .Ldebug_info0

UNDEFINED SYMBOLS
_ZN15MemoryAllocator10DBlockSizeE
_ZN15MemoryAllocator9mem_allocEm
_ZN15MemoryAllocator8mem_freeEPv
