GAS LISTING /tmp/cca4P2fq.s 			page 1


   1              		.file	"scheduler.cpp"
   2              		.option pic
   3              		.option norelax
   4              		.text
   5              	.Ltext0:
   6              		.align	2
   7              		.globl	_ZN9Scheduler3getEv
   9              	_ZN9Scheduler3getEv:
  10              	.LFB5:
  11              		.file 1 "src/scheduler.cpp"
   1:src/scheduler.cpp **** #include "../h/scheduler.hpp"
   2:src/scheduler.cpp **** 
   3:src/scheduler.cpp **** TCB* Scheduler::head=nullptr;
   4:src/scheduler.cpp **** TCB* Scheduler::tail=nullptr;
   5:src/scheduler.cpp **** 
   6:src/scheduler.cpp **** TCB *Scheduler::get() {
  12              		.loc 1 6 23
  13              		.cfi_startproc
  14 0000 130101FF 		addi	sp,sp,-16
  15              		.cfi_def_cfa_offset 16
  16 0004 23348100 		sd	s0,8(sp)
  17              		.cfi_offset 8, -8
  18 0008 13040101 		addi	s0,sp,16
  19              		.cfi_def_cfa 8, 0
   7:src/scheduler.cpp **** 
   8:src/scheduler.cpp ****     if (!head) return nullptr;
  20              		.loc 1 8 5
  21              		.loc 1 8 9 is_stmt 0
  22 000c 17050000 		ld	a0,.LANCHOR0
  22      03350500 
  23              		.loc 1 8 5
  24 0014 630C0500 		beqz	a0,.L1
   9:src/scheduler.cpp ****     TCB* thread=head;
  25              		.loc 1 9 5 is_stmt 1
  26              	.LVL0:
  10:src/scheduler.cpp ****     head=head->schedulerNext;
  27              		.loc 1 10 5
  28              		.loc 1 10 16 is_stmt 0
  29 0018 83370503 		ld	a5,48(a0)
  30              		.loc 1 10 9
  31 001c 17070000 		sd	a5,.LANCHOR0,a4
  31      2330F700 
  11:src/scheduler.cpp ****     if (!head) tail=nullptr;
  32              		.loc 1 11 5 is_stmt 1
  33 0024 638A0700 		beqz	a5,.L5
  34              	.L3:
  12:src/scheduler.cpp ****     thread->schedulerNext=nullptr;
  35              		.loc 1 12 5
  36              		.loc 1 12 26 is_stmt 0
  37 0028 23380502 		sd	zero,48(a0)
  13:src/scheduler.cpp ****     return thread;
  38              		.loc 1 13 5 is_stmt 1
  39              	.LVL1:
  40              	.L1:
  14:src/scheduler.cpp **** }
  41              		.loc 1 14 1 is_stmt 0
  42 002c 03348100 		ld	s0,8(sp)
GAS LISTING /tmp/cca4P2fq.s 			page 2


  43              		.cfi_remember_state
  44              		.cfi_restore 8
  45              		.cfi_def_cfa 2, 16
  46 0030 13010101 		addi	sp,sp,16
  47              		.cfi_def_cfa_offset 0
  48 0034 67800000 		jr	ra
  49              	.LVL2:
  50              	.L5:
  51              		.cfi_restore_state
  11:src/scheduler.cpp ****     thread->schedulerNext=nullptr;
  52              		.loc 1 11 16 is_stmt 1 discriminator 1
  11:src/scheduler.cpp ****     thread->schedulerNext=nullptr;
  53              		.loc 1 11 20 is_stmt 0 discriminator 1
  54 0038 97070000 		sd	zero,.LANCHOR0+8,a5
  54      23B00700 
  55 0040 6FF09FFE 		j	.L3
  56              		.cfi_endproc
  57              	.LFE5:
  59              		.align	2
  60              		.globl	_ZN9Scheduler3putEP3TCB
  62              	_ZN9Scheduler3putEP3TCB:
  63              	.LFB6:
  15:src/scheduler.cpp **** 
  16:src/scheduler.cpp **** void Scheduler::put(TCB *thread) {
  64              		.loc 1 16 34 is_stmt 1
  65              		.cfi_startproc
  66              	.LVL3:
  67 0044 130101FF 		addi	sp,sp,-16
  68              		.cfi_def_cfa_offset 16
  69 0048 23348100 		sd	s0,8(sp)
  70              		.cfi_offset 8, -8
  71 004c 13040101 		addi	s0,sp,16
  72              		.cfi_def_cfa 8, 0
  17:src/scheduler.cpp ****     if (!head) head = tail = thread;
  73              		.loc 1 17 5
  74              		.loc 1 17 9 is_stmt 0
  75 0050 97070000 		ld	a5,.LANCHOR0
  75      83B70700 
  76              		.loc 1 17 5
  77 0058 63820702 		beqz	a5,.L10
  18:src/scheduler.cpp ****     else tail = tail -> schedulerNext = thread;
  78              		.loc 1 18 10 is_stmt 1
  79              		.loc 1 18 25 is_stmt 0
  80 005c 97070000 		lla	a5,.LANCHOR0
  80      93870700 
  81 0064 03B78700 		ld	a4,8(a5)
  82              		.loc 1 18 39
  83 0068 2338A702 		sd	a0,48(a4)
  84              		.loc 1 18 15
  85 006c 23B4A700 		sd	a0,8(a5)
  86              	.L6:
  19:src/scheduler.cpp **** }
  87              		.loc 1 19 1
  88 0070 03348100 		ld	s0,8(sp)
  89              		.cfi_remember_state
  90              		.cfi_restore 8
  91              		.cfi_def_cfa 2, 16
GAS LISTING /tmp/cca4P2fq.s 			page 3


  92 0074 13010101 		addi	sp,sp,16
  93              		.cfi_def_cfa_offset 0
  94 0078 67800000 		jr	ra
  95              	.L10:
  96              		.cfi_restore_state
  17:src/scheduler.cpp ****     if (!head) head = tail = thread;
  97              		.loc 1 17 16 is_stmt 1 discriminator 1
  17:src/scheduler.cpp ****     if (!head) head = tail = thread;
  98              		.loc 1 17 28 is_stmt 0 discriminator 1
  99 007c 97070000 		lla	a5,.LANCHOR0
  99      93870700 
 100 0084 23B4A700 		sd	a0,8(a5)
  17:src/scheduler.cpp ****     if (!head) head = tail = thread;
 101              		.loc 1 17 21 discriminator 1
 102 0088 23B0A700 		sd	a0,0(a5)
 103 008c 6FF05FFE 		j	.L6
 104              		.cfi_endproc
 105              	.LFE6:
 107              		.align	2
 108              		.globl	_ZN9SchedulernwEm
 110              	_ZN9SchedulernwEm:
 111              	.LFB7:
  20:src/scheduler.cpp **** 
  21:src/scheduler.cpp **** void *Scheduler::operator new(size_t size) {
 112              		.loc 1 21 44 is_stmt 1
 113              		.cfi_startproc
 114              	.LVL4:
 115 0090 130101FF 		addi	sp,sp,-16
 116              		.cfi_def_cfa_offset 16
 117 0094 23341100 		sd	ra,8(sp)
 118 0098 23308100 		sd	s0,0(sp)
 119              		.cfi_offset 1, -8
 120              		.cfi_offset 8, -16
 121 009c 13040101 		addi	s0,sp,16
 122              		.cfi_def_cfa 8, 0
  22:src/scheduler.cpp ****     size_t numOfBlocks=ROUNDUP((size+MemoryAllocator::DBlockSize))/MEM_BLOCK_SIZE;
 123              		.loc 1 22 5
 124              		.loc 1 22 24 is_stmt 0
 125 00a0 97070000 		la	a5,_ZN15MemoryAllocator10DBlockSizeE
 125      83B70700 
 126 00a8 83B70700 		ld	a5,0(a5)
 127 00ac 3385A700 		add	a0,a5,a0
 128              	.LVL5:
 129 00b0 1305F503 		addi	a0,a0,63
 130              	.LVL6:
  23:src/scheduler.cpp ****     return MemoryAllocator::mem_alloc(numOfBlocks);
 131              		.loc 1 23 5 is_stmt 1
 132              		.loc 1 23 38 is_stmt 0
 133 00b4 13556500 		srli	a0,a0,6
 134              	.LVL7:
 135 00b8 97000000 		call	_ZN15MemoryAllocator9mem_allocEm@plt
 135      E7800000 
 136              	.LVL8:
  24:src/scheduler.cpp **** }
 137              		.loc 1 24 1
 138 00c0 83308100 		ld	ra,8(sp)
 139              		.cfi_restore 1
GAS LISTING /tmp/cca4P2fq.s 			page 4


 140 00c4 03340100 		ld	s0,0(sp)
 141              		.cfi_restore 8
 142              		.cfi_def_cfa 2, 16
 143 00c8 13010101 		addi	sp,sp,16
 144              		.cfi_def_cfa_offset 0
 145 00cc 67800000 		jr	ra
 146              		.cfi_endproc
 147              	.LFE7:
 149              		.align	2
 150              		.globl	_ZN9SchedulerdlEPv
 152              	_ZN9SchedulerdlEPv:
 153              	.LFB8:
  25:src/scheduler.cpp **** 
  26:src/scheduler.cpp **** void Scheduler::operator delete(void *ptr) {
 154              		.loc 1 26 44 is_stmt 1
 155              		.cfi_startproc
 156              	.LVL9:
 157 00d0 130101FF 		addi	sp,sp,-16
 158              		.cfi_def_cfa_offset 16
 159 00d4 23341100 		sd	ra,8(sp)
 160 00d8 23308100 		sd	s0,0(sp)
 161              		.cfi_offset 1, -8
 162              		.cfi_offset 8, -16
 163 00dc 13040101 		addi	s0,sp,16
 164              		.cfi_def_cfa 8, 0
  27:src/scheduler.cpp ****     MemoryAllocator::mem_free(ptr);
 165              		.loc 1 27 5
 166              		.loc 1 27 30 is_stmt 0
 167 00e0 97000000 		call	_ZN15MemoryAllocator8mem_freeEPv@plt
 167      E7800000 
 168              	.LVL10:
  28:src/scheduler.cpp **** }
 169              		.loc 1 28 1
 170 00e8 83308100 		ld	ra,8(sp)
 171              		.cfi_restore 1
 172 00ec 03340100 		ld	s0,0(sp)
 173              		.cfi_restore 8
 174              		.cfi_def_cfa 2, 16
 175 00f0 13010101 		addi	sp,sp,16
 176              		.cfi_def_cfa_offset 0
 177 00f4 67800000 		jr	ra
 178              		.cfi_endproc
 179              	.LFE8:
 181              		.globl	_ZN9Scheduler4tailE
 182              		.globl	_ZN9Scheduler4headE
 183              		.bss
 184              		.align	3
 185              		.set	.LANCHOR0,. + 0
 188              	_ZN9Scheduler4headE:
 189 0000 00000000 		.zero	8
 189      00000000 
 192              	_ZN9Scheduler4tailE:
 193 0008 00000000 		.zero	8
 193      00000000 
 194              		.text
 195              	.Letext0:
 196              		.file 2 "src/../h/../lib/hw.h"
GAS LISTING /tmp/cca4P2fq.s 			page 5


 197              		.file 3 "src/../h/memoryAllocator.hpp"
 198              		.file 4 "src/../h/tcb.hpp"
 199              		.file 5 "src/../h/scheduler.hpp"
GAS LISTING /tmp/cca4P2fq.s 			page 6

