GAS LISTING /tmp/cc0y8TpW.s 			page 1


   1              		.file	"sem.cpp"
   2              		.option pic
   3              		.option norelax
   4              		.text
   5              	.Ltext0:
   6              		.align	2
   7              		.globl	_ZN3Sem8sem_waitEPS_
   9              	_ZN3Sem8sem_waitEPS_:
  10              	.LFB17:
  11              		.file 1 "src/sem.cpp"
   1:src/sem.cpp   **** #include "../h/sem.hpp"
   2:src/sem.cpp   **** 
   3:src/sem.cpp   **** int Sem::sem_open(sem_t *handle, unsigned int init) {
   4:src/sem.cpp   ****     *handle = new Sem((int)init);
   5:src/sem.cpp   ****     if (*handle == nullptr) return  -1;
   6:src/sem.cpp   ****     return 0;
   7:src/sem.cpp   **** }
   8:src/sem.cpp   **** 
   9:src/sem.cpp   **** int Sem::sem_close(sem_t handle) {
  10:src/sem.cpp   ****     if (!handle) return -1;
  11:src/sem.cpp   ****     while (handle->blocked.peek()) {
  12:src/sem.cpp   ****         TCB* thread = handle->blocked.get();
  13:src/sem.cpp   ****         thread->blocked=false;
  14:src/sem.cpp   ****         Scheduler::put(thread);
  15:src/sem.cpp   ****     }
  16:src/sem.cpp   ****     delete handle;
  17:src/sem.cpp   ****     return 0;
  18:src/sem.cpp   **** }
  19:src/sem.cpp   **** 
  20:src/sem.cpp   **** int Sem::sem_wait(sem_t handle) {
  12              		.loc 1 20 33
  13              		.cfi_startproc
  14              	.LVL0:
  21:src/sem.cpp   ****     if (!handle) return -1;
  15              		.loc 1 21 5
  16 0000 6300050C 		beqz	a0,.L5
  20:src/sem.cpp   ****     if (!handle) return -1;
  17              		.loc 1 20 33 is_stmt 0
  18 0004 130101FE 		addi	sp,sp,-32
  19              		.cfi_def_cfa_offset 32
  20 0008 233C1100 		sd	ra,24(sp)
  21 000c 23388100 		sd	s0,16(sp)
  22 0010 23349100 		sd	s1,8(sp)
  23 0014 23302101 		sd	s2,0(sp)
  24              		.cfi_offset 1, -8
  25              		.cfi_offset 8, -16
  26              		.cfi_offset 9, -24
  27              		.cfi_offset 18, -32
  28 0018 13040102 		addi	s0,sp,32
  29              		.cfi_def_cfa 8, 0
  30 001c 93040500 		mv	s1,a0
  22:src/sem.cpp   ****     handle->count--;
  31              		.loc 1 22 5 is_stmt 1
  32              		.loc 1 22 13 is_stmt 0
  33 0020 83270500 		lw	a5,0(a0)
  34              		.loc 1 22 18
  35 0024 9B87F7FF 		addiw	a5,a5,-1
GAS LISTING /tmp/cc0y8TpW.s 			page 2


  36 0028 2320F500 		sw	a5,0(a0)
  23:src/sem.cpp   ****     if (handle->count<0) {
  37              		.loc 1 23 5 is_stmt 1
  38              	.LBB33:
  39 002c 13970702 		slli	a4,a5,32
  40 0030 63400702 		bltz	a4,.L11
  41              	.LBE33:
  24:src/sem.cpp   ****         TCB* oldRunning=TCB::running;
  25:src/sem.cpp   ****         oldRunning->setBlocked();
  26:src/sem.cpp   ****         handle->blocked.put(oldRunning);
  27:src/sem.cpp   ****         TCB::running=Scheduler::get();
  28:src/sem.cpp   ****         TCB::yield(oldRunning, TCB::running);
  29:src/sem.cpp   ****         if (!handle) return -1;
  30:src/sem.cpp   ****     }
  31:src/sem.cpp   ****     return 0;
  42              		.loc 1 31 12 is_stmt 0
  43 0034 13050000 		li	a0,0
  44              	.LVL1:
  45              	.L2:
  32:src/sem.cpp   **** }
  46              		.loc 1 32 1
  47 0038 83308101 		ld	ra,24(sp)
  48              		.cfi_remember_state
  49              		.cfi_restore 1
  50 003c 03340101 		ld	s0,16(sp)
  51              		.cfi_restore 8
  52              		.cfi_def_cfa 2, 32
  53 0040 83348100 		ld	s1,8(sp)
  54              		.cfi_restore 9
  55              	.LVL2:
  56 0044 03390100 		ld	s2,0(sp)
  57              		.cfi_restore 18
  58 0048 13010102 		addi	sp,sp,32
  59              		.cfi_def_cfa_offset 0
  60 004c 67800000 		jr	ra
  61              	.LVL3:
  62              	.L11:
  63              		.cfi_restore_state
  64              	.LBB44:
  65              	.LBB34:
  24:src/sem.cpp   ****         TCB* oldRunning=TCB::running;
  66              		.loc 1 24 9 is_stmt 1
  24:src/sem.cpp   ****         TCB* oldRunning=TCB::running;
  67              		.loc 1 24 14 is_stmt 0
  68 0050 97070000 		la	a5,_ZN3TCB7runningE
  68      83B70700 
  69 0058 03B90700 		ld	s2,0(a5)
  70              	.LVL4:
  25:src/sem.cpp   ****         handle->blocked.put(oldRunning);
  71              		.loc 1 25 9 is_stmt 1
  72              	.LBB35:
  73              	.LBB36:
  74              		.file 2 "src/../h/tcb.hpp"
   1:src/../h/tcb.hpp **** #ifndef PROJECT_BASE_V1_1_TCB_HPP
   2:src/../h/tcb.hpp **** #define PROJECT_BASE_V1_1_TCB_HPP
   3:src/../h/tcb.hpp **** 
   4:src/../h/tcb.hpp **** #include "../lib/hw.h"
GAS LISTING /tmp/cc0y8TpW.s 			page 3


   5:src/../h/tcb.hpp **** #include "memoryAllocator.hpp"
   6:src/../h/tcb.hpp **** 
   7:src/../h/tcb.hpp **** using body=void(*)(void*);
   8:src/../h/tcb.hpp **** 
   9:src/../h/tcb.hpp **** class TCB{
  10:src/../h/tcb.hpp **** public:
  11:src/../h/tcb.hpp **** 
  12:src/../h/tcb.hpp ****     friend class Sem;
  13:src/../h/tcb.hpp ****     friend class Riscv;
  14:src/../h/tcb.hpp **** 
  15:src/../h/tcb.hpp ****     static int id;
  16:src/../h/tcb.hpp ****     static TCB* running;
  17:src/../h/tcb.hpp **** 
  18:src/../h/tcb.hpp ****     static int threadCreate(TCB** handle, body routine, void* arg, void* stack);
  19:src/../h/tcb.hpp ****     static int threadExit();
  20:src/../h/tcb.hpp ****     static void dispatch();
  21:src/../h/tcb.hpp ****     static void yield(TCB*, TCB*);
  22:src/../h/tcb.hpp **** 
  23:src/../h/tcb.hpp ****     bool getFinished() { return finished; }
  24:src/../h/tcb.hpp ****     void setFinished() { finished=true; }
  25:src/../h/tcb.hpp ****     bool getBlocked() { return blocked; }
  26:src/../h/tcb.hpp ****     void setBlocked() { blocked=true; }
  75              		.loc 2 26 25
  76              		.loc 2 26 32 is_stmt 0
  77 005c 93071000 		li	a5,1
  78 0060 A308F902 		sb	a5,49(s2)
  79              	.LVL5:
  80              	.LBE36:
  81              	.LBE35:
  26:src/sem.cpp   ****         TCB::running=Scheduler::get();
  82              		.loc 1 26 9 is_stmt 1
  83              	.LBB37:
  84              	.LBB38:
  85              		.file 3 "src/../h/list.hpp"
   1:src/../h/list.hpp **** #ifndef PROJECT_BASE_V1_1_LIST_HPP
   2:src/../h/list.hpp **** #define PROJECT_BASE_V1_1_LIST_HPP
   3:src/../h/list.hpp **** 
   4:src/../h/list.hpp **** template <typename T>
   5:src/../h/list.hpp **** class List{
   6:src/../h/list.hpp **** 
   7:src/../h/list.hpp **** private:
   8:src/../h/list.hpp **** 
   9:src/../h/list.hpp ****     struct Elem{
  10:src/../h/list.hpp ****         T* data;
  11:src/../h/list.hpp ****         Elem *next;
  12:src/../h/list.hpp **** 
  13:src/../h/list.hpp ****         Elem(T* data, Elem* next) : data(data), next(next) {}
  14:src/../h/list.hpp ****     };
  15:src/../h/list.hpp **** 
  16:src/../h/list.hpp ****     Elem *head, *tail;
  17:src/../h/list.hpp **** 
  18:src/../h/list.hpp **** public:
  19:src/../h/list.hpp **** 
  20:src/../h/list.hpp ****     List() : head(nullptr) , tail(nullptr) {}
  21:src/../h/list.hpp ****     List(const List<T> &)=delete;
  22:src/../h/list.hpp ****     List<T> &operator=(const List<T>&)=delete;
  23:src/../h/list.hpp **** 
GAS LISTING /tmp/cc0y8TpW.s 			page 4


  24:src/../h/list.hpp ****     void put(T* data){ //stavlja na kraj
  25:src/../h/list.hpp ****         Elem *elem=new Elem(data, 0);
  86              		.loc 3 25 20 is_stmt 0
  87 0064 13050001 		li	a0,16
  88 0068 97000000 		call	_Znwm@plt
  88      E7800000 
  89              	.LVL6:
  90              	.LBB39:
  91              	.LBB40:
  13:src/../h/list.hpp ****     };
  92              		.loc 3 13 58
  93 0070 23302501 		sd	s2,0(a0)
  94 0074 23340500 		sd	zero,8(a0)
  95              	.LVL7:
  96              	.LBE40:
  97              	.LBE39:
  26:src/../h/list.hpp ****         if(tail){
  98              		.loc 3 26 12
  99 0078 83B70401 		ld	a5,16(s1)
 100              		.loc 3 26 9
 101 007c 638C0702 		beqz	a5,.L3
  27:src/../h/list.hpp ****             tail->next=elem;
 102              		.loc 3 27 13
 103 0080 23B4A700 		sd	a0,8(a5)
  28:src/../h/list.hpp ****             tail=elem;
 104              		.loc 3 28 13
 105 0084 23B8A400 		sd	a0,16(s1)
 106              	.L4:
 107              	.LVL8:
 108              	.LBE38:
 109              	.LBE37:
  27:src/sem.cpp   ****         TCB::yield(oldRunning, TCB::running);
 110              		.loc 1 27 9 is_stmt 1
  27:src/sem.cpp   ****         TCB::yield(oldRunning, TCB::running);
 111              		.loc 1 27 36 is_stmt 0
 112 0088 97000000 		call	_ZN9Scheduler3getEv@plt
 112      E7800000 
 113              	.LVL9:
 114 0090 93050500 		mv	a1,a0
  27:src/sem.cpp   ****         TCB::yield(oldRunning, TCB::running);
 115              		.loc 1 27 21
 116 0094 97070000 		la	a5,_ZN3TCB7runningE
 116      83B70700 
 117 009c 23B0A700 		sd	a0,0(a5)
  28:src/sem.cpp   ****         if (!handle) return -1;
 118              		.loc 1 28 9 is_stmt 1
  28:src/sem.cpp   ****         if (!handle) return -1;
 119              		.loc 1 28 19 is_stmt 0
 120 00a0 13050900 		mv	a0,s2
 121 00a4 97000000 		call	_ZN3TCB5yieldEPS_S0_@plt
 121      E7800000 
 122              	.LVL10:
  29:src/sem.cpp   ****     }
 123              		.loc 1 29 9 is_stmt 1
 124              	.LBE34:
 125              	.LBE44:
  31:src/sem.cpp   **** }
GAS LISTING /tmp/cc0y8TpW.s 			page 5


 126              		.loc 1 31 12 is_stmt 0
 127 00ac 13050000 		li	a0,0
 128              	.LBB45:
 129              	.LBB43:
 130 00b0 6FF09FF8 		j	.L2
 131              	.LVL11:
 132              	.L3:
 133              	.LBB42:
 134              	.LBB41:
  29:src/../h/list.hpp ****         }
  30:src/../h/list.hpp ****         else{
  31:src/../h/list.hpp ****             head=tail=elem;
 135              		.loc 3 31 13
 136 00b4 23B8A400 		sd	a0,16(s1)
 137 00b8 23B4A400 		sd	a0,8(s1)
 138 00bc 6FF0DFFC 		j	.L4
 139              	.LVL12:
 140              	.L5:
 141              		.cfi_def_cfa_register 2
 142              		.cfi_restore 1
 143              		.cfi_restore 8
 144              		.cfi_restore 9
 145              		.cfi_restore 18
 146              	.LBE41:
 147              	.LBE42:
 148              	.LBE43:
 149              	.LBE45:
  21:src/sem.cpp   ****     handle->count--;
 150              		.loc 1 21 26
 151 00c0 1305F0FF 		li	a0,-1
 152              	.LVL13:
 153              		.loc 1 32 1
 154 00c4 67800000 		ret
 155              		.cfi_endproc
 156              	.LFE17:
 158              		.align	2
 159              		.globl	_ZN3Sem10sem_signalEPS_
 161              	_ZN3Sem10sem_signalEPS_:
 162              	.LFB18:
  33:src/sem.cpp   **** 
  34:src/sem.cpp   **** int Sem::sem_signal(sem_t handle) {
 163              		.loc 1 34 35 is_stmt 1
 164              		.cfi_startproc
 165              	.LVL14:
  35:src/sem.cpp   ****     if (!handle) return -1;
 166              		.loc 1 35 5
 167 00c8 63080508 		beqz	a0,.L16
 168 00cc 93070500 		mv	a5,a0
  36:src/sem.cpp   ****     handle->count++;
 169              		.loc 1 36 5
 170              		.loc 1 36 13 is_stmt 0
 171 00d0 03270500 		lw	a4,0(a0)
 172              		.loc 1 36 18
 173 00d4 1B071700 		addiw	a4,a4,1
 174 00d8 9B060700 		sext.w	a3,a4
 175 00dc 2320E500 		sw	a4,0(a0)
  37:src/sem.cpp   ****     if (handle->count <= 0) {
GAS LISTING /tmp/cc0y8TpW.s 			page 6


 176              		.loc 1 37 5 is_stmt 1
 177              	.LBB46:
 178 00e0 6356D000 		blez	a3,.L23
 179              	.LBE46:
  38:src/sem.cpp   ****         TCB* thread = handle->blocked.get();
  39:src/sem.cpp   ****         thread->blocked=false;
  40:src/sem.cpp   ****         Scheduler::put(thread);
  41:src/sem.cpp   ****     }
  42:src/sem.cpp   ****     return 0;
 180              		.loc 1 42 12 is_stmt 0
 181 00e4 13050000 		li	a0,0
 182              	.LVL15:
  43:src/sem.cpp   **** }
 183              		.loc 1 43 1
 184 00e8 67800000 		ret
 185              	.LVL16:
 186              	.L23:
  34:src/sem.cpp   ****     if (!handle) return -1;
 187              		.loc 1 34 35
 188 00ec 130101FE 		addi	sp,sp,-32
 189              		.cfi_def_cfa_offset 32
 190 00f0 233C1100 		sd	ra,24(sp)
 191 00f4 23388100 		sd	s0,16(sp)
 192 00f8 23349100 		sd	s1,8(sp)
 193              		.cfi_offset 1, -8
 194              		.cfi_offset 8, -16
 195              		.cfi_offset 9, -24
 196 00fc 13040102 		addi	s0,sp,32
 197              		.cfi_def_cfa 8, 0
 198              	.LBB53:
 199              	.LBB47:
  38:src/sem.cpp   ****         TCB* thread = handle->blocked.get();
 200              		.loc 1 38 9 is_stmt 1
 201              	.LVL17:
 202              	.LBB48:
 203              	.LBB49:
  32:src/../h/list.hpp ****         }
  33:src/../h/list.hpp ****     }
  34:src/../h/list.hpp **** 
  35:src/../h/list.hpp ****     T* get(){ //uzima s pocetka
  36:src/../h/list.hpp ****         if(!head) return nullptr;
 204              		.loc 3 36 13 is_stmt 0
 205 0100 03358500 		ld	a0,8(a0)
 206              	.LVL18:
 207              		.loc 3 36 9
 208 0104 63060504 		beqz	a0,.L18
 209              	.LVL19:
  37:src/../h/list.hpp ****         Elem *elem=head;
  38:src/../h/list.hpp ****         head=head->next;
 210              		.loc 3 38 20
 211 0108 03378500 		ld	a4,8(a0)
 212              		.loc 3 38 9
 213 010c 23B4E700 		sd	a4,8(a5)
  39:src/../h/list.hpp ****         if(!head) tail=nullptr;
 214              		.loc 3 39 9
 215 0110 630C0702 		beqz	a4,.L24
 216              	.L15:
GAS LISTING /tmp/cc0y8TpW.s 			page 7


  40:src/../h/list.hpp ****         T* ret=elem->data;
 217              		.loc 3 40 12
 218 0114 83340500 		ld	s1,0(a0)
 219              	.LVL20:
  41:src/../h/list.hpp ****         delete elem;
 220              		.loc 3 41 9
 221 0118 97000000 		call	_ZdlPv@plt
 221      E7800000 
 222              	.LVL21:
 223              	.L14:
 224              	.LBE49:
 225              	.LBE48:
  39:src/sem.cpp   ****         Scheduler::put(thread);
 226              		.loc 1 39 9 is_stmt 1
  39:src/sem.cpp   ****         Scheduler::put(thread);
 227              		.loc 1 39 24 is_stmt 0
 228 0120 A3880402 		sb	zero,49(s1)
  40:src/sem.cpp   ****     }
 229              		.loc 1 40 9 is_stmt 1
  40:src/sem.cpp   ****     }
 230              		.loc 1 40 23 is_stmt 0
 231 0124 13850400 		mv	a0,s1
 232 0128 97000000 		call	_ZN9Scheduler3putEP3TCB@plt
 232      E7800000 
 233              	.LVL22:
 234              	.LBE47:
 235              	.LBE53:
  42:src/sem.cpp   **** }
 236              		.loc 1 42 12
 237 0130 13050000 		li	a0,0
 238              		.loc 1 43 1
 239 0134 83308101 		ld	ra,24(sp)
 240              		.cfi_remember_state
 241              		.cfi_restore 1
 242 0138 03340101 		ld	s0,16(sp)
 243              		.cfi_restore 8
 244              		.cfi_def_cfa 2, 32
 245 013c 83348100 		ld	s1,8(sp)
 246              		.cfi_restore 9
 247              	.LVL23:
 248 0140 13010102 		addi	sp,sp,32
 249              		.cfi_def_cfa_offset 0
 250 0144 67800000 		jr	ra
 251              	.LVL24:
 252              	.L24:
 253              		.cfi_restore_state
 254              	.LBB54:
 255              	.LBB52:
 256              	.LBB51:
 257              	.LBB50:
  39:src/../h/list.hpp ****         T* ret=elem->data;
 258              		.loc 3 39 19
 259 0148 23B80700 		sd	zero,16(a5)
 260 014c 6FF09FFC 		j	.L15
 261              	.LVL25:
 262              	.L18:
  36:src/../h/list.hpp ****         Elem *elem=head;
GAS LISTING /tmp/cc0y8TpW.s 			page 8


 263              		.loc 3 36 26
 264 0150 93040500 		mv	s1,a0
 265 0154 6FF0DFFC 		j	.L14
 266              	.LVL26:
 267              	.L16:
 268              		.cfi_def_cfa_register 2
 269              		.cfi_restore 1
 270              		.cfi_restore 8
 271              		.cfi_restore 9
 272              	.LBE50:
 273              	.LBE51:
 274              	.LBE52:
 275              	.LBE54:
  35:src/sem.cpp   ****     handle->count++;
 276              		.loc 1 35 26
 277 0158 1305F0FF 		li	a0,-1
 278              	.LVL27:
 279 015c 67800000 		ret
 280              		.cfi_endproc
 281              	.LFE18:
 283              		.align	2
 284              		.globl	_ZN3Sem11sem_trywaitEPS_
 286              	_ZN3Sem11sem_trywaitEPS_:
 287              	.LFB19:
  44:src/sem.cpp   **** 
  45:src/sem.cpp   **** int Sem::sem_trywait(sem_t handle) {
 288              		.loc 1 45 36 is_stmt 1
 289              		.cfi_startproc
 290              	.LVL28:
  46:src/sem.cpp   ****     if (!handle) return -1;
 291              		.loc 1 46 5
 292 0160 630E0502 		beqz	a0,.L27
  47:src/sem.cpp   ****     if (handle->count>0) return sem_wait(handle);
 293              		.loc 1 47 5
 294              		.loc 1 47 17 is_stmt 0
 295 0164 83270500 		lw	a5,0(a0)
 296              		.loc 1 47 5
 297 0168 6346F000 		bgtz	a5,.L33
  48:src/sem.cpp   ****     return 0;
 298              		.loc 1 48 12
 299 016c 13050000 		li	a0,0
 300              	.LVL29:
  49:src/sem.cpp   **** }
 301              		.loc 1 49 1
 302 0170 67800000 		ret
 303              	.LVL30:
 304              	.L33:
  45:src/sem.cpp   ****     if (!handle) return -1;
 305              		.loc 1 45 36 discriminator 1
 306 0174 130101FF 		addi	sp,sp,-16
 307              		.cfi_def_cfa_offset 16
 308 0178 23341100 		sd	ra,8(sp)
 309 017c 23308100 		sd	s0,0(sp)
 310              		.cfi_offset 1, -8
 311              		.cfi_offset 8, -16
 312 0180 13040101 		addi	s0,sp,16
 313              		.cfi_def_cfa 8, 0
GAS LISTING /tmp/cc0y8TpW.s 			page 9


  47:src/sem.cpp   ****     return 0;
 314              		.loc 1 47 26 is_stmt 1 discriminator 1
  47:src/sem.cpp   ****     return 0;
 315              		.loc 1 47 41 is_stmt 0 discriminator 1
 316 0184 97000000 		call	_ZN3Sem8sem_waitEPS_
 316      E7800000 
 317              	.LVL31:
 318              		.loc 1 49 1 discriminator 1
 319 018c 83308100 		ld	ra,8(sp)
 320              		.cfi_restore 1
 321 0190 03340100 		ld	s0,0(sp)
 322              		.cfi_restore 8
 323              		.cfi_def_cfa 2, 16
 324 0194 13010101 		addi	sp,sp,16
 325              		.cfi_def_cfa_offset 0
 326 0198 67800000 		jr	ra
 327              	.LVL32:
 328              	.L27:
  46:src/sem.cpp   ****     if (handle->count>0) return sem_wait(handle);
 329              		.loc 1 46 26
 330 019c 1305F0FF 		li	a0,-1
 331              	.LVL33:
 332 01a0 67800000 		ret
 333              		.cfi_endproc
 334              	.LFE19:
 336              		.align	2
 337              		.globl	_ZN3SemnwEm
 339              	_ZN3SemnwEm:
 340              	.LFB20:
  50:src/sem.cpp   **** 
  51:src/sem.cpp   **** void *Sem::operator new(size_t size) {
 341              		.loc 1 51 38 is_stmt 1
 342              		.cfi_startproc
 343              	.LVL34:
 344 01a4 130101FF 		addi	sp,sp,-16
 345              		.cfi_def_cfa_offset 16
 346 01a8 23341100 		sd	ra,8(sp)
 347 01ac 23308100 		sd	s0,0(sp)
 348              		.cfi_offset 1, -8
 349              		.cfi_offset 8, -16
 350 01b0 13040101 		addi	s0,sp,16
 351              		.cfi_def_cfa 8, 0
  52:src/sem.cpp   ****     size_t numOfBlocks=ROUNDUP((size+MemoryAllocator::DBlockSize))/MEM_BLOCK_SIZE;
 352              		.loc 1 52 5
 353              		.loc 1 52 24 is_stmt 0
 354 01b4 97070000 		la	a5,_ZN15MemoryAllocator10DBlockSizeE
 354      83B70700 
 355 01bc 83B70700 		ld	a5,0(a5)
 356 01c0 3385A700 		add	a0,a5,a0
 357              	.LVL35:
 358 01c4 1305F503 		addi	a0,a0,63
 359              	.LVL36:
  53:src/sem.cpp   ****     return MemoryAllocator::mem_alloc(numOfBlocks);
 360              		.loc 1 53 5 is_stmt 1
 361              		.loc 1 53 38 is_stmt 0
 362 01c8 13556500 		srli	a0,a0,6
 363              	.LVL37:
GAS LISTING /tmp/cc0y8TpW.s 			page 10


 364 01cc 97000000 		call	_ZN15MemoryAllocator9mem_allocEm@plt
 364      E7800000 
 365              	.LVL38:
  54:src/sem.cpp   **** }
 366              		.loc 1 54 1
 367 01d4 83308100 		ld	ra,8(sp)
 368              		.cfi_restore 1
 369 01d8 03340100 		ld	s0,0(sp)
 370              		.cfi_restore 8
 371              		.cfi_def_cfa 2, 16
 372 01dc 13010101 		addi	sp,sp,16
 373              		.cfi_def_cfa_offset 0
 374 01e0 67800000 		jr	ra
 375              		.cfi_endproc
 376              	.LFE20:
 378              		.align	2
 379              		.globl	_ZN3Sem8sem_openEPPS_j
 381              	_ZN3Sem8sem_openEPPS_j:
 382              	.LFB15:
   3:src/sem.cpp   ****     *handle = new Sem((int)init);
 383              		.loc 1 3 53 is_stmt 1
 384              		.cfi_startproc
 385              	.LVL39:
 386 01e4 130101FE 		addi	sp,sp,-32
 387              		.cfi_def_cfa_offset 32
 388 01e8 233C1100 		sd	ra,24(sp)
 389 01ec 23388100 		sd	s0,16(sp)
 390 01f0 23349100 		sd	s1,8(sp)
 391 01f4 23302101 		sd	s2,0(sp)
 392              		.cfi_offset 1, -8
 393              		.cfi_offset 8, -16
 394              		.cfi_offset 9, -24
 395              		.cfi_offset 18, -32
 396 01f8 13040102 		addi	s0,sp,32
 397              		.cfi_def_cfa 8, 0
 398 01fc 93040500 		mv	s1,a0
 399 0200 13890500 		mv	s2,a1
   4:src/sem.cpp   ****     if (*handle == nullptr) return  -1;
 400              		.loc 1 4 5
   4:src/sem.cpp   ****     if (*handle == nullptr) return  -1;
 401              		.loc 1 4 32 is_stmt 0
 402 0204 13058001 		li	a0,24
 403              	.LVL40:
 404 0208 97000000 		call	_ZN3SemnwEm
 404      E7800000 
 405              	.LVL41:
 406              	.LBB55:
 407              	.LBB56:
 408              		.file 4 "src/../h/sem.hpp"
   1:src/../h/sem.hpp **** #ifndef PROJECT_BASE_V1_1_SEM_HPP
   2:src/../h/sem.hpp **** #define PROJECT_BASE_V1_1_SEM_HPP
   3:src/../h/sem.hpp **** 
   4:src/../h/sem.hpp **** #include "syscallC.hpp"
   5:src/../h/sem.hpp **** #include "../lib/hw.h"
   6:src/../h/sem.hpp **** #include "scheduler.hpp"
   7:src/../h/sem.hpp **** #include "tcb.hpp"
   8:src/../h/sem.hpp **** 
GAS LISTING /tmp/cc0y8TpW.s 			page 11


   9:src/../h/sem.hpp **** class Sem {
  10:src/../h/sem.hpp **** public:
  11:src/../h/sem.hpp **** 
  12:src/../h/sem.hpp ****     friend class Riscv;
  13:src/../h/sem.hpp **** 
  14:src/../h/sem.hpp ****     static int sem_open(sem_t* handle, unsigned init);
  15:src/../h/sem.hpp ****     static int sem_close(sem_t handle);
  16:src/../h/sem.hpp ****     static int sem_wait(sem_t);
  17:src/../h/sem.hpp ****     static int sem_signal(sem_t);
  18:src/../h/sem.hpp ****     static int sem_trywait(sem_t);
  19:src/../h/sem.hpp **** 
  20:src/../h/sem.hpp ****     void* operator new(size_t size);
  21:src/../h/sem.hpp ****     void operator delete(void* ptr);
  22:src/../h/sem.hpp **** 
  23:src/../h/sem.hpp **** private:
  24:src/../h/sem.hpp **** 
  25:src/../h/sem.hpp ****     explicit Sem(int c=1) : count(c), blocked() {}
 409              		.loc 4 25 47
 410 0210 23202501 		sw	s2,0(a0)
 411              	.LVL42:
 412              	.LBB57:
 413              	.LBB58:
  20:src/../h/list.hpp ****     List(const List<T> &)=delete;
 414              		.loc 3 20 42
 415 0214 23340500 		sd	zero,8(a0)
 416 0218 23380500 		sd	zero,16(a0)
 417              	.LVL43:
 418              	.LBE58:
 419              	.LBE57:
 420              	.LBE56:
 421              	.LBE55:
   4:src/sem.cpp   ****     if (*handle == nullptr) return  -1;
 422              		.loc 1 4 13
 423 021c 23B0A400 		sd	a0,0(s1)
   5:src/sem.cpp   ****     return 0;
 424              		.loc 1 5 5 is_stmt 1
 425 0220 63000502 		beqz	a0,.L38
   6:src/sem.cpp   **** }
 426              		.loc 1 6 12 is_stmt 0
 427 0224 13050000 		li	a0,0
 428              	.L37:
   7:src/sem.cpp   **** 
 429              		.loc 1 7 1
 430 0228 83308101 		ld	ra,24(sp)
 431              		.cfi_remember_state
 432              		.cfi_restore 1
 433 022c 03340101 		ld	s0,16(sp)
 434              		.cfi_restore 8
 435              		.cfi_def_cfa 2, 32
 436 0230 83348100 		ld	s1,8(sp)
 437              		.cfi_restore 9
 438              	.LVL44:
 439 0234 03390100 		ld	s2,0(sp)
 440              		.cfi_restore 18
 441 0238 13010102 		addi	sp,sp,32
 442              		.cfi_def_cfa_offset 0
 443 023c 67800000 		jr	ra
GAS LISTING /tmp/cc0y8TpW.s 			page 12


 444              	.LVL45:
 445              	.L38:
 446              		.cfi_restore_state
   5:src/sem.cpp   ****     return 0;
 447              		.loc 1 5 38
 448 0240 1305F0FF 		li	a0,-1
 449 0244 6FF05FFE 		j	.L37
 450              		.cfi_endproc
 451              	.LFE15:
 453              		.align	2
 454              		.globl	_ZN3SemdlEPv
 456              	_ZN3SemdlEPv:
 457              	.LFB21:
  55:src/sem.cpp   **** 
  56:src/sem.cpp   **** void Sem::operator delete(void *ptr) {
 458              		.loc 1 56 38 is_stmt 1
 459              		.cfi_startproc
 460              	.LVL46:
 461 0248 130101FF 		addi	sp,sp,-16
 462              		.cfi_def_cfa_offset 16
 463 024c 23341100 		sd	ra,8(sp)
 464 0250 23308100 		sd	s0,0(sp)
 465              		.cfi_offset 1, -8
 466              		.cfi_offset 8, -16
 467 0254 13040101 		addi	s0,sp,16
 468              		.cfi_def_cfa 8, 0
  57:src/sem.cpp   ****     MemoryAllocator::mem_free(ptr);
 469              		.loc 1 57 5
 470              		.loc 1 57 30 is_stmt 0
 471 0258 97000000 		call	_ZN15MemoryAllocator8mem_freeEPv@plt
 471      E7800000 
 472              	.LVL47:
  58:src/sem.cpp   **** }
 473              		.loc 1 58 1
 474 0260 83308100 		ld	ra,8(sp)
 475              		.cfi_restore 1
 476 0264 03340100 		ld	s0,0(sp)
 477              		.cfi_restore 8
 478              		.cfi_def_cfa 2, 16
 479 0268 13010101 		addi	sp,sp,16
 480              		.cfi_def_cfa_offset 0
 481 026c 67800000 		jr	ra
 482              		.cfi_endproc
 483              	.LFE21:
 485              		.align	2
 486              		.globl	_ZN3Sem9sem_closeEPS_
 488              	_ZN3Sem9sem_closeEPS_:
 489              	.LFB16:
   9:src/sem.cpp   ****     if (!handle) return -1;
 490              		.loc 1 9 34 is_stmt 1
 491              		.cfi_startproc
 492              	.LVL48:
 493 0270 130101FE 		addi	sp,sp,-32
 494              		.cfi_def_cfa_offset 32
 495 0274 233C1100 		sd	ra,24(sp)
 496 0278 23388100 		sd	s0,16(sp)
 497 027c 23349100 		sd	s1,8(sp)
GAS LISTING /tmp/cc0y8TpW.s 			page 13


 498 0280 23302101 		sd	s2,0(sp)
 499              		.cfi_offset 1, -8
 500              		.cfi_offset 8, -16
 501              		.cfi_offset 9, -24
 502              		.cfi_offset 18, -32
 503 0284 13040102 		addi	s0,sp,32
 504              		.cfi_def_cfa 8, 0
 505 0288 93040500 		mv	s1,a0
  10:src/sem.cpp   ****     while (handle->blocked.peek()) {
 506              		.loc 1 10 5
 507 028c 63160502 		bnez	a0,.L46
  10:src/sem.cpp   ****     while (handle->blocked.peek()) {
 508              		.loc 1 10 26 is_stmt 0
 509 0290 1305F0FF 		li	a0,-1
 510              	.LVL49:
 511 0294 6F004005 		j	.L43
 512              	.LVL50:
 513              	.L49:
 514              	.LBB59:
 515              	.LBB60:
 516              	.LBB61:
  39:src/../h/list.hpp ****         T* ret=elem->data;
 517              		.loc 3 39 19
 518 0298 23B80400 		sd	zero,16(s1)
 519              	.L45:
  40:src/../h/list.hpp ****         delete elem;
 520              		.loc 3 40 12
 521 029c 03390500 		ld	s2,0(a0)
 522              	.LVL51:
 523              		.loc 3 41 9
 524 02a0 97000000 		call	_ZdlPv@plt
 524      E7800000 
 525              	.LVL52:
 526              	.LBE61:
 527              	.LBE60:
  13:src/sem.cpp   ****         Scheduler::put(thread);
 528              		.loc 1 13 9 is_stmt 1
  13:src/sem.cpp   ****         Scheduler::put(thread);
 529              		.loc 1 13 24 is_stmt 0
 530 02a8 A3080902 		sb	zero,49(s2)
  14:src/sem.cpp   ****     }
 531              		.loc 1 14 9 is_stmt 1
  14:src/sem.cpp   ****     }
 532              		.loc 1 14 23 is_stmt 0
 533 02ac 13050900 		mv	a0,s2
 534 02b0 97000000 		call	_ZN9Scheduler3putEP3TCB@plt
 534      E7800000 
 535              	.LVL53:
 536              	.L46:
 537              	.LBE59:
  11:src/sem.cpp   ****         TCB* thread = handle->blocked.get();
 538              		.loc 1 11 5 is_stmt 1
  11:src/sem.cpp   ****         TCB* thread = handle->blocked.get();
 539              		.loc 1 11 33
 540              	.LBB64:
 541              	.LBB65:
  42:src/../h/list.hpp ****         return ret;
GAS LISTING /tmp/cc0y8TpW.s 			page 14


  43:src/../h/list.hpp ****     }
  44:src/../h/list.hpp **** 
  45:src/../h/list.hpp ****     T* peek(){
  46:src/../h/list.hpp ****         if(!head) return nullptr;
 542              		.loc 3 46 13 is_stmt 0
 543 02b8 03B58400 		ld	a0,8(s1)
 544              		.loc 3 46 9
 545 02bc 630E0500 		beqz	a0,.L44
  47:src/../h/list.hpp ****         return head->data;
 546              		.loc 3 47 22
 547 02c0 83370500 		ld	a5,0(a0)
 548              	.LVL54:
 549              	.LBE65:
 550              	.LBE64:
  11:src/sem.cpp   ****         TCB* thread = handle->blocked.get();
 551              		.loc 1 11 33
 552 02c4 638A0700 		beqz	a5,.L44
 553              	.LBB66:
  12:src/sem.cpp   ****         thread->blocked=false;
 554              		.loc 1 12 9 is_stmt 1
 555              	.LVL55:
 556              	.LBB63:
 557              	.LBB62:
  38:src/../h/list.hpp ****         if(!head) tail=nullptr;
 558              		.loc 3 38 20 is_stmt 0
 559 02c8 83378500 		ld	a5,8(a0)
  38:src/../h/list.hpp ****         if(!head) tail=nullptr;
 560              		.loc 3 38 9
 561 02cc 23B4F400 		sd	a5,8(s1)
  39:src/../h/list.hpp ****         T* ret=elem->data;
 562              		.loc 3 39 9
 563 02d0 E39607FC 		bnez	a5,.L45
 564 02d4 6FF05FFC 		j	.L49
 565              	.LVL56:
 566              	.L44:
 567              	.LBE62:
 568              	.LBE63:
 569              	.LBE66:
  16:src/sem.cpp   ****     return 0;
 570              		.loc 1 16 5 is_stmt 1 discriminator 1
  16:src/sem.cpp   ****     return 0;
 571              		.loc 1 16 12 is_stmt 0 discriminator 1
 572 02d8 13850400 		mv	a0,s1
 573 02dc 97000000 		call	_ZN3SemdlEPv
 573      E7800000 
 574              	.LVL57:
  17:src/sem.cpp   **** }
 575              		.loc 1 17 5 is_stmt 1 discriminator 1
  17:src/sem.cpp   **** }
 576              		.loc 1 17 12 is_stmt 0 discriminator 1
 577 02e4 13050000 		li	a0,0
 578              	.L43:
  18:src/sem.cpp   **** 
 579              		.loc 1 18 1
 580 02e8 83308101 		ld	ra,24(sp)
 581              		.cfi_restore 1
 582 02ec 03340101 		ld	s0,16(sp)
GAS LISTING /tmp/cc0y8TpW.s 			page 15


 583              		.cfi_restore 8
 584              		.cfi_def_cfa 2, 32
 585 02f0 83348100 		ld	s1,8(sp)
 586              		.cfi_restore 9
 587              	.LVL58:
 588 02f4 03390100 		ld	s2,0(sp)
 589              		.cfi_restore 18
 590 02f8 13010102 		addi	sp,sp,32
 591              		.cfi_def_cfa_offset 0
 592 02fc 67800000 		jr	ra
 593              		.cfi_endproc
 594              	.LFE16:
 596              	.Letext0:
 597              		.file 5 "src/../h/../lib/hw.h"
 598              		.file 6 "src/../h/syscallC.hpp"
 599              		.file 7 "src/../h/memoryAllocator.hpp"
 600              		.file 8 "src/../h/scheduler.hpp"
GAS LISTING /tmp/cc0y8TpW.s 			page 16


DEFINED SYMBOLS
                            *ABS*:0000000000000000 sem.cpp
     /tmp/cc0y8TpW.s:9      .text:0000000000000000 _ZN3Sem8sem_waitEPS_
     /tmp/cc0y8TpW.s:13     .text:0000000000000000 .L0 
     /tmp/cc0y8TpW.s:15     .text:0000000000000000 .L0 
     /tmp/cc0y8TpW.s:16     .text:0000000000000000 .L0 
     /tmp/cc0y8TpW.s:18     .text:0000000000000004 .L0 
     /tmp/cc0y8TpW.s:19     .text:0000000000000008 .L0 
     /tmp/cc0y8TpW.s:24     .text:0000000000000018 .L0 
     /tmp/cc0y8TpW.s:25     .text:0000000000000018 .L0 
     /tmp/cc0y8TpW.s:26     .text:0000000000000018 .L0 
     /tmp/cc0y8TpW.s:27     .text:0000000000000018 .L0 
     /tmp/cc0y8TpW.s:29     .text:000000000000001c .L0 
     /tmp/cc0y8TpW.s:32     .text:0000000000000020 .L0 
     /tmp/cc0y8TpW.s:33     .text:0000000000000020 .L0 
     /tmp/cc0y8TpW.s:35     .text:0000000000000024 .L0 
     /tmp/cc0y8TpW.s:39     .text:000000000000002c .L0 
     /tmp/cc0y8TpW.s:43     .text:0000000000000034 .L0 
     /tmp/cc0y8TpW.s:47     .text:0000000000000038 .L0 
     /tmp/cc0y8TpW.s:48     .text:000000000000003c .L0 
     /tmp/cc0y8TpW.s:49     .text:000000000000003c .L0 
     /tmp/cc0y8TpW.s:51     .text:0000000000000040 .L0 
     /tmp/cc0y8TpW.s:52     .text:0000000000000040 .L0 
     /tmp/cc0y8TpW.s:54     .text:0000000000000044 .L0 
     /tmp/cc0y8TpW.s:57     .text:0000000000000048 .L0 
     /tmp/cc0y8TpW.s:59     .text:000000000000004c .L0 
     /tmp/cc0y8TpW.s:63     .text:0000000000000050 .L0 
     /tmp/cc0y8TpW.s:67     .text:0000000000000050 .L0 
     /tmp/cc0y8TpW.s:68     .text:0000000000000050 .L0 
     /tmp/cc0y8TpW.s:75     .text:000000000000005c .L0 
     /tmp/cc0y8TpW.s:76     .text:000000000000005c .L0 
     /tmp/cc0y8TpW.s:77     .text:000000000000005c .L0 
     /tmp/cc0y8TpW.s:86     .text:0000000000000064 .L0 
     /tmp/cc0y8TpW.s:87     .text:0000000000000064 .L0 
     /tmp/cc0y8TpW.s:93     .text:0000000000000070 .L0 
     /tmp/cc0y8TpW.s:99     .text:0000000000000078 .L0 
     /tmp/cc0y8TpW.s:101    .text:000000000000007c .L0 
     /tmp/cc0y8TpW.s:103    .text:0000000000000080 .L0 
     /tmp/cc0y8TpW.s:105    .text:0000000000000084 .L0 
     /tmp/cc0y8TpW.s:111    .text:0000000000000088 .L0 
     /tmp/cc0y8TpW.s:112    .text:0000000000000088 .L0 
     /tmp/cc0y8TpW.s:116    .text:0000000000000094 .L0 
     /tmp/cc0y8TpW.s:119    .text:00000000000000a0 .L0 
     /tmp/cc0y8TpW.s:120    .text:00000000000000a0 .L0 
     /tmp/cc0y8TpW.s:126    .text:00000000000000ac .L0 
     /tmp/cc0y8TpW.s:127    .text:00000000000000ac .L0 
     /tmp/cc0y8TpW.s:136    .text:00000000000000b4 .L0 
     /tmp/cc0y8TpW.s:141    .text:00000000000000c0 .L0 
     /tmp/cc0y8TpW.s:142    .text:00000000000000c0 .L0 
     /tmp/cc0y8TpW.s:143    .text:00000000000000c0 .L0 
     /tmp/cc0y8TpW.s:144    .text:00000000000000c0 .L0 
     /tmp/cc0y8TpW.s:145    .text:00000000000000c0 .L0 
     /tmp/cc0y8TpW.s:151    .text:00000000000000c0 .L0 
     /tmp/cc0y8TpW.s:154    .text:00000000000000c4 .L0 
     /tmp/cc0y8TpW.s:155    .text:00000000000000c8 .L0 
     /tmp/cc0y8TpW.s:161    .text:00000000000000c8 _ZN3Sem10sem_signalEPS_
     /tmp/cc0y8TpW.s:164    .text:00000000000000c8 .L0 
GAS LISTING /tmp/cc0y8TpW.s 			page 17


     /tmp/cc0y8TpW.s:166    .text:00000000000000c8 .L0 
     /tmp/cc0y8TpW.s:167    .text:00000000000000c8 .L0 
     /tmp/cc0y8TpW.s:170    .text:00000000000000d0 .L0 
     /tmp/cc0y8TpW.s:171    .text:00000000000000d0 .L0 
     /tmp/cc0y8TpW.s:173    .text:00000000000000d4 .L0 
     /tmp/cc0y8TpW.s:178    .text:00000000000000e0 .L0 
     /tmp/cc0y8TpW.s:181    .text:00000000000000e4 .L0 
     /tmp/cc0y8TpW.s:184    .text:00000000000000e8 .L0 
     /tmp/cc0y8TpW.s:188    .text:00000000000000ec .L0 
     /tmp/cc0y8TpW.s:189    .text:00000000000000f0 .L0 
     /tmp/cc0y8TpW.s:193    .text:00000000000000fc .L0 
     /tmp/cc0y8TpW.s:194    .text:00000000000000fc .L0 
     /tmp/cc0y8TpW.s:195    .text:00000000000000fc .L0 
     /tmp/cc0y8TpW.s:197    .text:0000000000000100 .L0 
     /tmp/cc0y8TpW.s:204    .text:0000000000000100 .L0 
     /tmp/cc0y8TpW.s:205    .text:0000000000000100 .L0 
     /tmp/cc0y8TpW.s:208    .text:0000000000000104 .L0 
     /tmp/cc0y8TpW.s:211    .text:0000000000000108 .L0 
     /tmp/cc0y8TpW.s:213    .text:000000000000010c .L0 
     /tmp/cc0y8TpW.s:215    .text:0000000000000110 .L0 
     /tmp/cc0y8TpW.s:218    .text:0000000000000114 .L0 
     /tmp/cc0y8TpW.s:221    .text:0000000000000118 .L0 
     /tmp/cc0y8TpW.s:227    .text:0000000000000120 .L0 
     /tmp/cc0y8TpW.s:228    .text:0000000000000120 .L0 
     /tmp/cc0y8TpW.s:230    .text:0000000000000124 .L0 
     /tmp/cc0y8TpW.s:231    .text:0000000000000124 .L0 
     /tmp/cc0y8TpW.s:237    .text:0000000000000130 .L0 
     /tmp/cc0y8TpW.s:239    .text:0000000000000134 .L0 
     /tmp/cc0y8TpW.s:240    .text:0000000000000138 .L0 
     /tmp/cc0y8TpW.s:241    .text:0000000000000138 .L0 
     /tmp/cc0y8TpW.s:243    .text:000000000000013c .L0 
     /tmp/cc0y8TpW.s:244    .text:000000000000013c .L0 
     /tmp/cc0y8TpW.s:246    .text:0000000000000140 .L0 
     /tmp/cc0y8TpW.s:249    .text:0000000000000144 .L0 
     /tmp/cc0y8TpW.s:253    .text:0000000000000148 .L0 
     /tmp/cc0y8TpW.s:259    .text:0000000000000148 .L0 
     /tmp/cc0y8TpW.s:264    .text:0000000000000150 .L0 
     /tmp/cc0y8TpW.s:268    .text:0000000000000158 .L0 
     /tmp/cc0y8TpW.s:269    .text:0000000000000158 .L0 
     /tmp/cc0y8TpW.s:270    .text:0000000000000158 .L0 
     /tmp/cc0y8TpW.s:271    .text:0000000000000158 .L0 
     /tmp/cc0y8TpW.s:277    .text:0000000000000158 .L0 
     /tmp/cc0y8TpW.s:280    .text:0000000000000160 .L0 
     /tmp/cc0y8TpW.s:286    .text:0000000000000160 _ZN3Sem11sem_trywaitEPS_
     /tmp/cc0y8TpW.s:289    .text:0000000000000160 .L0 
     /tmp/cc0y8TpW.s:291    .text:0000000000000160 .L0 
     /tmp/cc0y8TpW.s:292    .text:0000000000000160 .L0 
     /tmp/cc0y8TpW.s:294    .text:0000000000000164 .L0 
     /tmp/cc0y8TpW.s:295    .text:0000000000000164 .L0 
     /tmp/cc0y8TpW.s:297    .text:0000000000000168 .L0 
     /tmp/cc0y8TpW.s:299    .text:000000000000016c .L0 
     /tmp/cc0y8TpW.s:302    .text:0000000000000170 .L0 
     /tmp/cc0y8TpW.s:306    .text:0000000000000174 .L0 
     /tmp/cc0y8TpW.s:307    .text:0000000000000178 .L0 
     /tmp/cc0y8TpW.s:310    .text:0000000000000180 .L0 
     /tmp/cc0y8TpW.s:311    .text:0000000000000180 .L0 
     /tmp/cc0y8TpW.s:313    .text:0000000000000184 .L0 
GAS LISTING /tmp/cc0y8TpW.s 			page 18


     /tmp/cc0y8TpW.s:315    .text:0000000000000184 .L0 
     /tmp/cc0y8TpW.s:316    .text:0000000000000184 .L0 
     /tmp/cc0y8TpW.s:319    .text:000000000000018c .L0 
     /tmp/cc0y8TpW.s:320    .text:0000000000000190 .L0 
     /tmp/cc0y8TpW.s:322    .text:0000000000000194 .L0 
     /tmp/cc0y8TpW.s:323    .text:0000000000000194 .L0 
     /tmp/cc0y8TpW.s:325    .text:0000000000000198 .L0 
     /tmp/cc0y8TpW.s:330    .text:000000000000019c .L0 
     /tmp/cc0y8TpW.s:333    .text:00000000000001a4 .L0 
     /tmp/cc0y8TpW.s:339    .text:00000000000001a4 _ZN3SemnwEm
     /tmp/cc0y8TpW.s:342    .text:00000000000001a4 .L0 
     /tmp/cc0y8TpW.s:344    .text:00000000000001a4 .L0 
     /tmp/cc0y8TpW.s:345    .text:00000000000001a8 .L0 
     /tmp/cc0y8TpW.s:348    .text:00000000000001b0 .L0 
     /tmp/cc0y8TpW.s:349    .text:00000000000001b0 .L0 
     /tmp/cc0y8TpW.s:351    .text:00000000000001b4 .L0 
     /tmp/cc0y8TpW.s:353    .text:00000000000001b4 .L0 
     /tmp/cc0y8TpW.s:354    .text:00000000000001b4 .L0 
     /tmp/cc0y8TpW.s:361    .text:00000000000001c8 .L0 
     /tmp/cc0y8TpW.s:362    .text:00000000000001c8 .L0 
     /tmp/cc0y8TpW.s:367    .text:00000000000001d4 .L0 
     /tmp/cc0y8TpW.s:368    .text:00000000000001d8 .L0 
     /tmp/cc0y8TpW.s:370    .text:00000000000001dc .L0 
     /tmp/cc0y8TpW.s:371    .text:00000000000001dc .L0 
     /tmp/cc0y8TpW.s:373    .text:00000000000001e0 .L0 
     /tmp/cc0y8TpW.s:375    .text:00000000000001e4 .L0 
     /tmp/cc0y8TpW.s:381    .text:00000000000001e4 _ZN3Sem8sem_openEPPS_j
     /tmp/cc0y8TpW.s:384    .text:00000000000001e4 .L0 
     /tmp/cc0y8TpW.s:386    .text:00000000000001e4 .L0 
     /tmp/cc0y8TpW.s:387    .text:00000000000001e8 .L0 
     /tmp/cc0y8TpW.s:392    .text:00000000000001f8 .L0 
     /tmp/cc0y8TpW.s:393    .text:00000000000001f8 .L0 
     /tmp/cc0y8TpW.s:394    .text:00000000000001f8 .L0 
     /tmp/cc0y8TpW.s:395    .text:00000000000001f8 .L0 
     /tmp/cc0y8TpW.s:397    .text:00000000000001fc .L0 
     /tmp/cc0y8TpW.s:401    .text:0000000000000204 .L0 
     /tmp/cc0y8TpW.s:402    .text:0000000000000204 .L0 
     /tmp/cc0y8TpW.s:410    .text:0000000000000210 .L0 
     /tmp/cc0y8TpW.s:415    .text:0000000000000214 .L0 
     /tmp/cc0y8TpW.s:423    .text:000000000000021c .L0 
     /tmp/cc0y8TpW.s:425    .text:0000000000000220 .L0 
     /tmp/cc0y8TpW.s:427    .text:0000000000000224 .L0 
     /tmp/cc0y8TpW.s:430    .text:0000000000000228 .L0 
     /tmp/cc0y8TpW.s:431    .text:000000000000022c .L0 
     /tmp/cc0y8TpW.s:432    .text:000000000000022c .L0 
     /tmp/cc0y8TpW.s:434    .text:0000000000000230 .L0 
     /tmp/cc0y8TpW.s:435    .text:0000000000000230 .L0 
     /tmp/cc0y8TpW.s:437    .text:0000000000000234 .L0 
     /tmp/cc0y8TpW.s:440    .text:0000000000000238 .L0 
     /tmp/cc0y8TpW.s:442    .text:000000000000023c .L0 
     /tmp/cc0y8TpW.s:446    .text:0000000000000240 .L0 
     /tmp/cc0y8TpW.s:448    .text:0000000000000240 .L0 
     /tmp/cc0y8TpW.s:450    .text:0000000000000248 .L0 
     /tmp/cc0y8TpW.s:456    .text:0000000000000248 _ZN3SemdlEPv
     /tmp/cc0y8TpW.s:459    .text:0000000000000248 .L0 
     /tmp/cc0y8TpW.s:461    .text:0000000000000248 .L0 
     /tmp/cc0y8TpW.s:462    .text:000000000000024c .L0 
GAS LISTING /tmp/cc0y8TpW.s 			page 19


     /tmp/cc0y8TpW.s:465    .text:0000000000000254 .L0 
     /tmp/cc0y8TpW.s:466    .text:0000000000000254 .L0 
     /tmp/cc0y8TpW.s:468    .text:0000000000000258 .L0 
     /tmp/cc0y8TpW.s:470    .text:0000000000000258 .L0 
     /tmp/cc0y8TpW.s:471    .text:0000000000000258 .L0 
     /tmp/cc0y8TpW.s:474    .text:0000000000000260 .L0 
     /tmp/cc0y8TpW.s:475    .text:0000000000000264 .L0 
     /tmp/cc0y8TpW.s:477    .text:0000000000000268 .L0 
     /tmp/cc0y8TpW.s:478    .text:0000000000000268 .L0 
     /tmp/cc0y8TpW.s:480    .text:000000000000026c .L0 
     /tmp/cc0y8TpW.s:482    .text:0000000000000270 .L0 
     /tmp/cc0y8TpW.s:488    .text:0000000000000270 _ZN3Sem9sem_closeEPS_
     /tmp/cc0y8TpW.s:491    .text:0000000000000270 .L0 
     /tmp/cc0y8TpW.s:493    .text:0000000000000270 .L0 
     /tmp/cc0y8TpW.s:494    .text:0000000000000274 .L0 
     /tmp/cc0y8TpW.s:499    .text:0000000000000284 .L0 
     /tmp/cc0y8TpW.s:500    .text:0000000000000284 .L0 
     /tmp/cc0y8TpW.s:501    .text:0000000000000284 .L0 
     /tmp/cc0y8TpW.s:502    .text:0000000000000284 .L0 
     /tmp/cc0y8TpW.s:504    .text:0000000000000288 .L0 
     /tmp/cc0y8TpW.s:507    .text:000000000000028c .L0 
     /tmp/cc0y8TpW.s:509    .text:0000000000000290 .L0 
     /tmp/cc0y8TpW.s:518    .text:0000000000000298 .L0 
     /tmp/cc0y8TpW.s:521    .text:000000000000029c .L0 
     /tmp/cc0y8TpW.s:524    .text:00000000000002a0 .L0 
     /tmp/cc0y8TpW.s:529    .text:00000000000002a8 .L0 
     /tmp/cc0y8TpW.s:530    .text:00000000000002a8 .L0 
     /tmp/cc0y8TpW.s:532    .text:00000000000002ac .L0 
     /tmp/cc0y8TpW.s:533    .text:00000000000002ac .L0 
     /tmp/cc0y8TpW.s:539    .text:00000000000002b8 .L0 
     /tmp/cc0y8TpW.s:542    .text:00000000000002b8 .L0 
     /tmp/cc0y8TpW.s:543    .text:00000000000002b8 .L0 
     /tmp/cc0y8TpW.s:545    .text:00000000000002bc .L0 
     /tmp/cc0y8TpW.s:547    .text:00000000000002c0 .L0 
     /tmp/cc0y8TpW.s:552    .text:00000000000002c4 .L0 
     /tmp/cc0y8TpW.s:558    .text:00000000000002c8 .L0 
     /tmp/cc0y8TpW.s:559    .text:00000000000002c8 .L0 
     /tmp/cc0y8TpW.s:561    .text:00000000000002cc .L0 
     /tmp/cc0y8TpW.s:563    .text:00000000000002d0 .L0 
     /tmp/cc0y8TpW.s:571    .text:00000000000002d8 .L0 
     /tmp/cc0y8TpW.s:572    .text:00000000000002d8 .L0 
     /tmp/cc0y8TpW.s:576    .text:00000000000002e4 .L0 
     /tmp/cc0y8TpW.s:577    .text:00000000000002e4 .L0 
     /tmp/cc0y8TpW.s:580    .text:00000000000002e8 .L0 
     /tmp/cc0y8TpW.s:581    .text:00000000000002ec .L0 
     /tmp/cc0y8TpW.s:583    .text:00000000000002f0 .L0 
     /tmp/cc0y8TpW.s:584    .text:00000000000002f0 .L0 
     /tmp/cc0y8TpW.s:586    .text:00000000000002f4 .L0 
     /tmp/cc0y8TpW.s:589    .text:00000000000002f8 .L0 
     /tmp/cc0y8TpW.s:591    .text:00000000000002fc .L0 
     /tmp/cc0y8TpW.s:593    .text:0000000000000300 .L0 
     /tmp/cc0y8TpW.s:601    .text:0000000000000300 .L0 
     /tmp/cc0y8TpW.s:68     .text:0000000000000050 .L0 
     /tmp/cc0y8TpW.s:116    .text:0000000000000094 .L0 
     /tmp/cc0y8TpW.s:354    .text:00000000000001b4 .L0 
     /tmp/cc0y8TpW.s:140    .text:00000000000000c0 .L5
     /tmp/cc0y8TpW.s:62     .text:0000000000000050 .L11
GAS LISTING /tmp/cc0y8TpW.s 			page 20


     /tmp/cc0y8TpW.s:132    .text:00000000000000b4 .L3
     /tmp/cc0y8TpW.s:45     .text:0000000000000038 .L2
     /tmp/cc0y8TpW.s:106    .text:0000000000000088 .L4
     /tmp/cc0y8TpW.s:267    .text:0000000000000158 .L16
     /tmp/cc0y8TpW.s:186    .text:00000000000000ec .L23
     /tmp/cc0y8TpW.s:262    .text:0000000000000150 .L18
     /tmp/cc0y8TpW.s:252    .text:0000000000000148 .L24
     /tmp/cc0y8TpW.s:216    .text:0000000000000114 .L15
     /tmp/cc0y8TpW.s:223    .text:0000000000000120 .L14
     /tmp/cc0y8TpW.s:328    .text:000000000000019c .L27
     /tmp/cc0y8TpW.s:304    .text:0000000000000174 .L33
     /tmp/cc0y8TpW.s:445    .text:0000000000000240 .L38
     /tmp/cc0y8TpW.s:428    .text:0000000000000228 .L37
     /tmp/cc0y8TpW.s:536    .text:00000000000002b8 .L46
     /tmp/cc0y8TpW.s:578    .text:00000000000002e8 .L43
     /tmp/cc0y8TpW.s:566    .text:00000000000002d8 .L44
     /tmp/cc0y8TpW.s:519    .text:000000000000029c .L45
     /tmp/cc0y8TpW.s:513    .text:0000000000000298 .L49
     /tmp/cc0y8TpW.s:2183   .debug_abbrev:0000000000000000 .Ldebug_abbrev0
     /tmp/cc0y8TpW.s:3982   .debug_str:0000000000000693 .LASF131
     /tmp/cc0y8TpW.s:3826   .debug_str:0000000000000249 .LASF132
     /tmp/cc0y8TpW.s:3794   .debug_str:0000000000000142 .LASF133
     /tmp/cc0y8TpW.s:5      .text:0000000000000000 .Ltext0
     /tmp/cc0y8TpW.s:596    .text:0000000000000300 .Letext0
     /tmp/cc0y8TpW.s:3750   .debug_line:0000000000000000 .Ldebug_line0
     /tmp/cc0y8TpW.s:3908   .debug_str:00000000000004a3 .LASF0
     /tmp/cc0y8TpW.s:3924   .debug_str:000000000000051b .LASF1
     /tmp/cc0y8TpW.s:3886   .debug_str:000000000000040b .LASF2
     /tmp/cc0y8TpW.s:3852   .debug_str:000000000000031b .LASF4
     /tmp/cc0y8TpW.s:3964   .debug_str:000000000000060a .LASF3
     /tmp/cc0y8TpW.s:3770   .debug_str:0000000000000087 .LASF5
     /tmp/cc0y8TpW.s:3926   .debug_str:000000000000052e .LASF6
     /tmp/cc0y8TpW.s:3906   .debug_str:0000000000000490 .LASF7
     /tmp/cc0y8TpW.s:3998   .debug_str:00000000000007d0 .LASF8
     /tmp/cc0y8TpW.s:3836   .debug_str:0000000000000281 .LASF9
     /tmp/cc0y8TpW.s:3940   .debug_str:0000000000000575 .LASF10
     /tmp/cc0y8TpW.s:3986   .debug_str:0000000000000762 .LASF11
     /tmp/cc0y8TpW.s:3774   .debug_str:00000000000000a1 .LASF12
     /tmp/cc0y8TpW.s:3754   .debug_str:0000000000000008 .LASF13
     /tmp/cc0y8TpW.s:3782   .debug_str:00000000000000ed .LASF14
     /tmp/cc0y8TpW.s:3956   .debug_str:00000000000005d1 .LASF15
     /tmp/cc0y8TpW.s:3796   .debug_str:0000000000000165 .LASF16
     /tmp/cc0y8TpW.s:3970   .debug_str:000000000000062f .LASF17
     /tmp/cc0y8TpW.s:3950   .debug_str:00000000000005a4 .LASF18
     /tmp/cc0y8TpW.s:3872   .debug_str:0000000000000396 .LASF19
     /tmp/cc0y8TpW.s:3816   .debug_str:000000000000020e .LASF20
     /tmp/cc0y8TpW.s:3786   .debug_str:00000000000000fe .LASF21
     /tmp/cc0y8TpW.s:3996   .debug_str:00000000000007c7 .LASF22
     /tmp/cc0y8TpW.s:3866   .debug_str:000000000000036d .LASF23
     /tmp/cc0y8TpW.s:3968   .debug_str:0000000000000626 .LASF24
     /tmp/cc0y8TpW.s:3776   .debug_str:00000000000000b1 .LASF25
     /tmp/cc0y8TpW.s:3834   .debug_str:0000000000000275 .LASF26
     /tmp/cc0y8TpW.s:3766   .debug_str:000000000000006a .LASF27
     /tmp/cc0y8TpW.s:4022   .debug_str:0000000000000877 .LASF28
     /tmp/cc0y8TpW.s:3760   .debug_str:000000000000003b .LASF69
     /tmp/cc0y8TpW.s:3822   .debug_str:0000000000000236 .LASF29
     /tmp/cc0y8TpW.s:3758   .debug_str:000000000000002e .LASF30
GAS LISTING /tmp/cc0y8TpW.s 			page 21


     /tmp/cc0y8TpW.s:3810   .debug_str:00000000000001c9 .LASF32
     /tmp/cc0y8TpW.s:4014   .debug_str:0000000000000840 .LASF97
     /tmp/cc0y8TpW.s:3838   .debug_str:000000000000028f .LASF134
     /tmp/cc0y8TpW.s:3910   .debug_str:00000000000004b0 .LASF74
     /tmp/cc0y8TpW.s:3828   .debug_str:0000000000000255 .LASF76
     /tmp/cc0y8TpW.s:3958   .debug_str:00000000000005e7 .LASF44
     /tmp/cc0y8TpW.s:3778   .debug_str:00000000000000bc .LASF46
     /tmp/cc0y8TpW.s:3934   .debug_str:0000000000000559 .LASF34
     /tmp/cc0y8TpW.s:3960   .debug_str:00000000000005ed .LASF36
     /tmp/cc0y8TpW.s:3888   .debug_str:0000000000000419 .LASF31
     /tmp/cc0y8TpW.s:3876   .debug_str:00000000000003d0 .LASF33
     /tmp/cc0y8TpW.s:3980   .debug_str:0000000000000688 .LASF35
     /tmp/cc0y8TpW.s:3756   .debug_str:0000000000000018 .LASF37
     /tmp/cc0y8TpW.s:3856   .debug_str:0000000000000343 .LASF38
     /tmp/cc0y8TpW.s:4010   .debug_str:0000000000000821 .LASF39
     /tmp/cc0y8TpW.s:3814   .debug_str:0000000000000209 .LASF40
     /tmp/cc0y8TpW.s:3946   .debug_str:0000000000000593 .LASF41
     /tmp/cc0y8TpW.s:4006   .debug_str:000000000000080a .LASF42
     /tmp/cc0y8TpW.s:3976   .debug_str:0000000000000664 .LASF43
     /tmp/cc0y8TpW.s:3798   .debug_str:000000000000017b .LASF45
     /tmp/cc0y8TpW.s:3952   .debug_str:00000000000005ad .LASF47
     /tmp/cc0y8TpW.s:4020   .debug_str:0000000000000860 .LASF98
     /tmp/cc0y8TpW.s:4012   .debug_str:0000000000000837 .LASF48
     /tmp/cc0y8TpW.s:3832   .debug_str:000000000000026d .LASF49
     /tmp/cc0y8TpW.s:3914   .debug_str:00000000000004be .LASF50
     /tmp/cc0y8TpW.s:3862   .debug_str:000000000000035c .LASF51
     /tmp/cc0y8TpW.s:3858   .debug_str:000000000000034e .LASF52
     /tmp/cc0y8TpW.s:3752   .debug_str:0000000000000000 .LASF53
     /tmp/cc0y8TpW.s:3880   .debug_str:00000000000003f1 .LASF135
     /tmp/cc0y8TpW.s:3842   .debug_str:00000000000002bc .LASF136
     /tmp/cc0y8TpW.s:4004   .debug_str:00000000000007fc .LASF90
     /tmp/cc0y8TpW.s:3848   .debug_str:00000000000002ee .LASF92
     /tmp/cc0y8TpW.s:3820   .debug_str:0000000000000230 .LASF54
     /tmp/cc0y8TpW.s:4002   .debug_str:00000000000007f3 .LASF55
     /tmp/cc0y8TpW.s:3808   .debug_str:00000000000001b2 .LASF56
     /tmp/cc0y8TpW.s:3974   .debug_str:000000000000065a .LASF57
     /tmp/cc0y8TpW.s:3918   .debug_str:00000000000004d9 .LASF58
     /tmp/cc0y8TpW.s:3788   .debug_str:000000000000010e .LASF59
     /tmp/cc0y8TpW.s:3916   .debug_str:00000000000004c4 .LASF60
     /tmp/cc0y8TpW.s:3800   .debug_str:000000000000018b .LASF61
     /tmp/cc0y8TpW.s:3978   .debug_str:0000000000000670 .LASF62
     /tmp/cc0y8TpW.s:3992   .debug_str:000000000000079f .LASF63
     /tmp/cc0y8TpW.s:3988   .debug_str:0000000000000771 .LASF64
     /tmp/cc0y8TpW.s:3922   .debug_str:000000000000050f .LASF65
     /tmp/cc0y8TpW.s:4028   .debug_str:000000000000089d .LASF66
     /tmp/cc0y8TpW.s:3792   .debug_str:0000000000000136 .LASF116
     /tmp/cc0y8TpW.s:3944   .debug_str:000000000000058d .LASF67
     /tmp/cc0y8TpW.s:3904   .debug_str:0000000000000480 .LASF68
     /tmp/cc0y8TpW.s:4030   .debug_str:00000000000008aa .LASF70
     /tmp/cc0y8TpW.s:3844   .debug_str:00000000000002d5 .LASF71
     /tmp/cc0y8TpW.s:4026   .debug_str:0000000000000898 .LASF72
     /tmp/cc0y8TpW.s:3896   .debug_str:000000000000043a .LASF73
     /tmp/cc0y8TpW.s:3932   .debug_str:0000000000000554 .LASF75
     /tmp/cc0y8TpW.s:4024   .debug_str:000000000000087c .LASF77
     /tmp/cc0y8TpW.s:3966   .debug_str:000000000000061c .LASF78
     /tmp/cc0y8TpW.s:3972   .debug_str:0000000000000639 .LASF79
     /tmp/cc0y8TpW.s:3942   .debug_str:0000000000000584 .LASF80
GAS LISTING /tmp/cc0y8TpW.s 			page 22


     /tmp/cc0y8TpW.s:3854   .debug_str:0000000000000322 .LASF81
     /tmp/cc0y8TpW.s:3994   .debug_str:00000000000007ab .LASF82
     /tmp/cc0y8TpW.s:3902   .debug_str:0000000000000476 .LASF113
     /tmp/cc0y8TpW.s:3780   .debug_str:00000000000000d1 .LASF114
     /tmp/cc0y8TpW.s:3864   .debug_str:0000000000000364 .LASF83
     /tmp/cc0y8TpW.s:3920   .debug_str:00000000000004ef .LASF84
     /tmp/cc0y8TpW.s:3984   .debug_str:0000000000000757 .LASF85
     /tmp/cc0y8TpW.s:3812   .debug_str:00000000000001f0 .LASF86
     /tmp/cc0y8TpW.s:3890   .debug_str:0000000000000425 .LASF87
     /tmp/cc0y8TpW.s:4016   .debug_str:000000000000084b .LASF88
     /tmp/cc0y8TpW.s:4018   .debug_str:0000000000000854 .LASF89
     /tmp/cc0y8TpW.s:4008   .debug_str:0000000000000817 .LASF91
     /tmp/cc0y8TpW.s:3874   .debug_str:00000000000003a4 .LASF93
     /tmp/cc0y8TpW.s:3830   .debug_str:0000000000000268 .LASF94
     /tmp/cc0y8TpW.s:3860   .debug_str:0000000000000357 .LASF95
     /tmp/cc0y8TpW.s:3938   .debug_str:000000000000056b .LASF96
     /tmp/cc0y8TpW.s:3846   .debug_str:00000000000002da .LASF137
     /tmp/cc0y8TpW.s:3768   .debug_str:000000000000006f .LASF99
     /tmp/cc0y8TpW.s:3806   .debug_str:00000000000001a0 .LASF100
     /tmp/cc0y8TpW.s:3870   .debug_str:0000000000000383 .LASF101
     /tmp/cc0y8TpW.s:3990   .debug_str:000000000000078a .LASF102
     /tmp/cc0y8TpW.s:3762   .debug_str:0000000000000043 .LASF103
     /tmp/cc0y8TpW.s:3936   .debug_str:0000000000000565 .LASF104
     /tmp/cc0y8TpW.s:3878   .debug_str:00000000000003e7 .LASF105
     /tmp/cc0y8TpW.s:3804   .debug_str:000000000000019b .LASF106
     /tmp/cc0y8TpW.s:3784   .debug_str:00000000000000f9 .LASF107
     /tmp/cc0y8TpW.s:3900   .debug_str:0000000000000457 .LASF138
     /tmp/cc0y8TpW.s:3802   .debug_str:0000000000000196 .LASF108
     /tmp/cc0y8TpW.s:3894   .debug_str:0000000000000435 .LASF109
     /tmp/cc0y8TpW.s:3850   .debug_str:0000000000000316 .LASF110
     /tmp/cc0y8TpW.s:3772   .debug_str:000000000000008e .LASF111
     /tmp/cc0y8TpW.s:3954   .debug_str:00000000000005ba .LASF112
     /tmp/cc0y8TpW.s:3840   .debug_str:00000000000002a5 .LASF115
     /tmp/cc0y8TpW.s:3898   .debug_str:000000000000043f .LASF117
     /tmp/cc0y8TpW.s:3764   .debug_str:0000000000000055 .LASF139
     /tmp/cc0y8TpW.s:3912   .debug_str:00000000000004b9 .LASF118
     /tmp/cc0y8TpW.s:3818   .debug_str:000000000000021a .LASF119
     /tmp/cc0y8TpW.s:3882   .debug_str:00000000000003ff .LASF120
     /tmp/cc0y8TpW.s:3790   .debug_str:0000000000000117 .LASF122
     /tmp/cc0y8TpW.s:3948   .debug_str:000000000000059f .LASF121
     /tmp/cc0y8TpW.s:4000   .debug_str:00000000000007e0 .LASF123
     /tmp/cc0y8TpW.s:457    .text:0000000000000248 .LFB21
     /tmp/cc0y8TpW.s:483    .text:0000000000000270 .LFE21
     /tmp/cc0y8TpW.s:3292   .debug_loc:0000000000000000 .LLST22
     /tmp/cc0y8TpW.s:472    .text:0000000000000260 .LVL47
     /tmp/cc0y8TpW.s:340    .text:00000000000001a4 .LFB20
     /tmp/cc0y8TpW.s:376    .text:00000000000001e4 .LFE20
     /tmp/cc0y8TpW.s:3306   .debug_loc:0000000000000039 .LLST15
     /tmp/cc0y8TpW.s:3928   .debug_str:0000000000000541 .LASF124
     /tmp/cc0y8TpW.s:3320   .debug_loc:0000000000000072 .LLST16
     /tmp/cc0y8TpW.s:365    .text:00000000000001d4 .LVL38
     /tmp/cc0y8TpW.s:287    .text:0000000000000160 .LFB19
     /tmp/cc0y8TpW.s:334    .text:00000000000001a4 .LFE19
     /tmp/cc0y8TpW.s:3892   .debug_str:000000000000042e .LASF125
     /tmp/cc0y8TpW.s:3335   .debug_loc:00000000000000ac .LLST14
     /tmp/cc0y8TpW.s:317    .text:000000000000018c .LVL31
     /tmp/cc0y8TpW.s:162    .text:00000000000000c8 .LFB18
GAS LISTING /tmp/cc0y8TpW.s 			page 23


     /tmp/cc0y8TpW.s:281    .text:0000000000000160 .LFE18
     /tmp/cc0y8TpW.s:3371   .debug_loc:0000000000000137 .LLST9
     /tmp/cc0y8TpW.s:3712   .debug_ranges:0000000000000000 .Ldebug_ranges0
     /tmp/cc0y8TpW.s:3930   .debug_str:000000000000054d .LASF126
     /tmp/cc0y8TpW.s:3412   .debug_loc:00000000000001e5 .LLST10
     /tmp/cc0y8TpW.s:202    .text:0000000000000100 .LBB48
     /tmp/cc0y8TpW.s:3419   .debug_loc:0000000000000208 .LLST11
     /tmp/cc0y8TpW.s:3449   .debug_loc:000000000000026f .LLST12
     /tmp/cc0y8TpW.s:3460   .debug_loc:00000000000002a5 .LLST13
     /tmp/cc0y8TpW.s:222    .text:0000000000000120 .LVL21
     /tmp/cc0y8TpW.s:233    .text:0000000000000130 .LVL22
     /tmp/cc0y8TpW.s:10     .text:0000000000000000 .LFB17
     /tmp/cc0y8TpW.s:156    .text:00000000000000c8 .LFE17
     /tmp/cc0y8TpW.s:3467   .debug_loc:00000000000002c8 .LLST0
     /tmp/cc0y8TpW.s:3824   .debug_str:000000000000023e .LASF127
     /tmp/cc0y8TpW.s:3500   .debug_loc:0000000000000350 .LLST1
     /tmp/cc0y8TpW.s:72     .text:000000000000005c .LBB35
     /tmp/cc0y8TpW.s:81     .text:0000000000000064 .LBE35
     /tmp/cc0y8TpW.s:3507   .debug_loc:0000000000000373 .LLST2
     /tmp/cc0y8TpW.s:83     .text:0000000000000064 .LBB37
     /tmp/cc0y8TpW.s:3514   .debug_loc:0000000000000396 .LLST3
     /tmp/cc0y8TpW.s:3525   .debug_loc:00000000000003cc .LLST4
     /tmp/cc0y8TpW.s:3540   .debug_loc:0000000000000406 .LLST5
     /tmp/cc0y8TpW.s:90     .text:0000000000000070 .LBB39
     /tmp/cc0y8TpW.s:97     .text:0000000000000078 .LBE39
     /tmp/cc0y8TpW.s:3551   .debug_loc:000000000000043c .LLST6
     /tmp/cc0y8TpW.s:3559   .debug_loc:0000000000000460 .LLST7
     /tmp/cc0y8TpW.s:3566   .debug_loc:0000000000000483 .LLST8
     /tmp/cc0y8TpW.s:89     .text:0000000000000070 .LVL6
     /tmp/cc0y8TpW.s:113    .text:0000000000000090 .LVL9
     /tmp/cc0y8TpW.s:122    .text:00000000000000ac .LVL10
     /tmp/cc0y8TpW.s:489    .text:0000000000000270 .LFB16
     /tmp/cc0y8TpW.s:594    .text:0000000000000300 .LFE16
     /tmp/cc0y8TpW.s:3573   .debug_loc:00000000000004a6 .LLST23
     /tmp/cc0y8TpW.s:3591   .debug_loc:00000000000004f2 .LLST24
     /tmp/cc0y8TpW.s:515    .text:0000000000000298 .LBB60
     /tmp/cc0y8TpW.s:3598   .debug_loc:0000000000000515 .LLST25
     /tmp/cc0y8TpW.s:3613   .debug_loc:000000000000054f .LLST26
     /tmp/cc0y8TpW.s:3624   .debug_loc:0000000000000585 .LLST27
     /tmp/cc0y8TpW.s:525    .text:00000000000002a8 .LVL52
     /tmp/cc0y8TpW.s:535    .text:00000000000002b8 .LVL53
     /tmp/cc0y8TpW.s:540    .text:00000000000002b8 .LBB64
     /tmp/cc0y8TpW.s:550    .text:00000000000002c4 .LBE64
     /tmp/cc0y8TpW.s:3631   .debug_loc:00000000000005a8 .LLST28
     /tmp/cc0y8TpW.s:574    .text:00000000000002e4 .LVL57
     /tmp/cc0y8TpW.s:382    .text:00000000000001e4 .LFB15
     /tmp/cc0y8TpW.s:451    .text:0000000000000248 .LFE15
     /tmp/cc0y8TpW.s:3640   .debug_loc:00000000000005cd .LLST17
     /tmp/cc0y8TpW.s:3662   .debug_loc:000000000000062c .LLST18
     /tmp/cc0y8TpW.s:406    .text:0000000000000210 .LBB55
     /tmp/cc0y8TpW.s:421    .text:000000000000021c .LBE55
     /tmp/cc0y8TpW.s:3676   .debug_loc:0000000000000665 .LLST19
     /tmp/cc0y8TpW.s:3683   .debug_loc:0000000000000688 .LLST20
     /tmp/cc0y8TpW.s:412    .text:0000000000000214 .LBB57
     /tmp/cc0y8TpW.s:419    .text:000000000000021c .LBE57
     /tmp/cc0y8TpW.s:3690   .debug_loc:00000000000006ab .LLST21
     /tmp/cc0y8TpW.s:405    .text:0000000000000210 .LVL41
GAS LISTING /tmp/cc0y8TpW.s 			page 24


     /tmp/cc0y8TpW.s:3868   .debug_str:0000000000000377 .LASF128
     /tmp/cc0y8TpW.s:3884   .debug_str:0000000000000404 .LASF129
     /tmp/cc0y8TpW.s:3962   .debug_str:0000000000000604 .LASF130
     /tmp/cc0y8TpW.s:460    .text:0000000000000248 .LVL46
     /tmp/cc0y8TpW.s:343    .text:00000000000001a4 .LVL34
     /tmp/cc0y8TpW.s:357    .text:00000000000001c4 .LVL35
     /tmp/cc0y8TpW.s:359    .text:00000000000001c8 .LVL36
     /tmp/cc0y8TpW.s:363    .text:00000000000001cc .LVL37
     /tmp/cc0y8TpW.s:290    .text:0000000000000160 .LVL28
     /tmp/cc0y8TpW.s:300    .text:0000000000000170 .LVL29
     /tmp/cc0y8TpW.s:303    .text:0000000000000174 .LVL30
     /tmp/cc0y8TpW.s:327    .text:000000000000019c .LVL32
     /tmp/cc0y8TpW.s:331    .text:00000000000001a0 .LVL33
     /tmp/cc0y8TpW.s:165    .text:00000000000000c8 .LVL14
     /tmp/cc0y8TpW.s:182    .text:00000000000000e8 .LVL15
     /tmp/cc0y8TpW.s:185    .text:00000000000000ec .LVL16
     /tmp/cc0y8TpW.s:206    .text:0000000000000104 .LVL18
     /tmp/cc0y8TpW.s:251    .text:0000000000000148 .LVL24
     /tmp/cc0y8TpW.s:266    .text:0000000000000158 .LVL26
     /tmp/cc0y8TpW.s:278    .text:000000000000015c .LVL27
     /tmp/cc0y8TpW.s:247    .text:0000000000000140 .LVL23
     /tmp/cc0y8TpW.s:201    .text:0000000000000100 .LVL17
     /tmp/cc0y8TpW.s:209    .text:0000000000000108 .LVL19
     /tmp/cc0y8TpW.s:261    .text:0000000000000150 .LVL25
     /tmp/cc0y8TpW.s:219    .text:0000000000000118 .LVL20
     /tmp/cc0y8TpW.s:14     .text:0000000000000000 .LVL0
     /tmp/cc0y8TpW.s:44     .text:0000000000000038 .LVL1
     /tmp/cc0y8TpW.s:55     .text:0000000000000044 .LVL2
     /tmp/cc0y8TpW.s:61     .text:0000000000000050 .LVL3
     /tmp/cc0y8TpW.s:139    .text:00000000000000c0 .LVL12
     /tmp/cc0y8TpW.s:152    .text:00000000000000c4 .LVL13
     /tmp/cc0y8TpW.s:70     .text:000000000000005c .LVL4
     /tmp/cc0y8TpW.s:79     .text:0000000000000064 .LVL5
     /tmp/cc0y8TpW.s:107    .text:0000000000000088 .LVL8
     /tmp/cc0y8TpW.s:131    .text:00000000000000b4 .LVL11
     /tmp/cc0y8TpW.s:95     .text:0000000000000078 .LVL7
     /tmp/cc0y8TpW.s:492    .text:0000000000000270 .LVL48
     /tmp/cc0y8TpW.s:510    .text:0000000000000294 .LVL49
     /tmp/cc0y8TpW.s:587    .text:00000000000002f4 .LVL58
     /tmp/cc0y8TpW.s:512    .text:0000000000000298 .LVL50
     /tmp/cc0y8TpW.s:555    .text:00000000000002c8 .LVL55
     /tmp/cc0y8TpW.s:565    .text:00000000000002d8 .LVL56
     /tmp/cc0y8TpW.s:522    .text:00000000000002a0 .LVL51
     /tmp/cc0y8TpW.s:548    .text:00000000000002c4 .LVL54
     /tmp/cc0y8TpW.s:385    .text:00000000000001e4 .LVL39
     /tmp/cc0y8TpW.s:403    .text:0000000000000208 .LVL40
     /tmp/cc0y8TpW.s:438    .text:0000000000000234 .LVL44
     /tmp/cc0y8TpW.s:444    .text:0000000000000240 .LVL45
     /tmp/cc0y8TpW.s:417    .text:000000000000021c .LVL43
     /tmp/cc0y8TpW.s:411    .text:0000000000000214 .LVL42
     /tmp/cc0y8TpW.s:602    .debug_info:0000000000000000 .Ldebug_info0
     /tmp/cc0y8TpW.s:65     .text:0000000000000050 .LBB34
     /tmp/cc0y8TpW.s:124    .text:00000000000000ac .LBE34
     /tmp/cc0y8TpW.s:129    .text:00000000000000b0 .LBB43
     /tmp/cc0y8TpW.s:148    .text:00000000000000c0 .LBE43
     /tmp/cc0y8TpW.s:109    .text:0000000000000088 .LBE37
     /tmp/cc0y8TpW.s:133    .text:00000000000000b4 .LBB42
GAS LISTING /tmp/cc0y8TpW.s 			page 25


     /tmp/cc0y8TpW.s:147    .text:00000000000000c0 .LBE42
     /tmp/cc0y8TpW.s:199    .text:0000000000000100 .LBB47
     /tmp/cc0y8TpW.s:234    .text:0000000000000130 .LBE47
     /tmp/cc0y8TpW.s:255    .text:0000000000000148 .LBB52
     /tmp/cc0y8TpW.s:274    .text:0000000000000158 .LBE52
     /tmp/cc0y8TpW.s:225    .text:0000000000000120 .LBE48
     /tmp/cc0y8TpW.s:256    .text:0000000000000148 .LBB51
     /tmp/cc0y8TpW.s:273    .text:0000000000000158 .LBE51
     /tmp/cc0y8TpW.s:514    .text:0000000000000298 .LBB59
     /tmp/cc0y8TpW.s:537    .text:00000000000002b8 .LBE59
     /tmp/cc0y8TpW.s:553    .text:00000000000002c8 .LBB66
     /tmp/cc0y8TpW.s:569    .text:00000000000002d8 .LBE66
     /tmp/cc0y8TpW.s:527    .text:00000000000002a8 .LBE60
     /tmp/cc0y8TpW.s:556    .text:00000000000002c8 .LBB63
     /tmp/cc0y8TpW.s:568    .text:00000000000002d8 .LBE63

UNDEFINED SYMBOLS
_ZN3TCB7runningE
_Znwm
_ZN9Scheduler3getEv
_ZN3TCB5yieldEPS_S0_
_ZdlPv
_ZN9Scheduler3putEP3TCB
_ZN15MemoryAllocator10DBlockSizeE
_ZN15MemoryAllocator9mem_allocEm
_ZN15MemoryAllocator8mem_freeEPv
