GAS LISTING /tmp/ccM6TiB7.s 			page 1


   1              		.file	"syscallC.cpp"
   2              		.option pic
   3              		.option norelax
   4              		.text
   5              	.Ltext0:
   6              		.align	2
   7              		.globl	_Z7syscallmmmmm
   9              	_Z7syscallmmmmm:
  10              	.LFB0:
  11              		.file 1 "src/syscallC.cpp"
   1:src/syscallC.cpp **** #include "../h/syscallC.hpp"
   2:src/syscallC.cpp **** #include "../h/memoryAllocator.hpp"
   3:src/syscallC.cpp **** 
   4:src/syscallC.cpp **** void syscall(uint64 op_code, uint64 arg1 = 0, uint64 arg2 = 0, uint64 arg3 = 0, uint64 arg4 = 0) {
  12              		.loc 1 4 98
  13              		.cfi_startproc
  14              	.LVL0:
  15 0000 130101FF 		addi	sp,sp,-16
  16              		.cfi_def_cfa_offset 16
  17 0004 23348100 		sd	s0,8(sp)
  18              		.cfi_offset 8, -8
  19 0008 13040101 		addi	s0,sp,16
  20              		.cfi_def_cfa 8, 0
   5:src/syscallC.cpp ****     __asm__ volatile("ecall");
  21              		.loc 1 5 5
  22              		.loc 1 5 30 is_stmt 0
  23              	#APP
  24              	# 5 "src/syscallC.cpp" 1
   6              	}
  25              		ecall
  26              	# 0 "" 2
  27              		.loc 1 6 1
  28              	#NO_APP
  29 0010 03348100 		ld	s0,8(sp)
  30              		.cfi_restore 8
  31              		.cfi_def_cfa 2, 16
  32 0014 13010101 		addi	sp,sp,16
  33              		.cfi_def_cfa_offset 0
  34 0018 67800000 		jr	ra
  35              		.cfi_endproc
  36              	.LFE0:
  38              		.align	2
  39              		.globl	_Z9mem_allocm
  41              	_Z9mem_allocm:
  42              	.LFB1:
   7:src/syscallC.cpp **** 
   8:src/syscallC.cpp **** void* mem_alloc (size_t size) {
  43              		.loc 1 8 31 is_stmt 1
  44              		.cfi_startproc
  45              	.LVL1:
   9:src/syscallC.cpp ****     if (size==0) return nullptr;
  46              		.loc 1 9 5
  47 001c 630C0504 		beqz	a0,.L5
   8:src/syscallC.cpp ****     if (size==0) return nullptr;
  48              		.loc 1 8 31 is_stmt 0
  49 0020 130101FF 		addi	sp,sp,-16
  50              		.cfi_def_cfa_offset 16
GAS LISTING /tmp/ccM6TiB7.s 			page 2


  51 0024 23341100 		sd	ra,8(sp)
  52 0028 23308100 		sd	s0,0(sp)
  53              		.cfi_offset 1, -8
  54              		.cfi_offset 8, -16
  55 002c 13040101 		addi	s0,sp,16
  56              		.cfi_def_cfa 8, 0
  10:src/syscallC.cpp ****     void volatile *retVal;
  57              		.loc 1 10 5 is_stmt 1
  11:src/syscallC.cpp ****     uint64 numOfBlocks=ROUNDUP(size+MemoryAllocator::DBlockSize-1)/MEM_BLOCK_SIZE;
  58              		.loc 1 11 5
  59              		.loc 1 11 24 is_stmt 0
  60 0030 97070000 		la	a5,_ZN15MemoryAllocator10DBlockSizeE
  60      83B70700 
  61 0038 83B50700 		ld	a1,0(a5)
  62 003c 3385A500 		add	a0,a1,a0
  63              	.LVL2:
  64 0040 9305E503 		addi	a1,a0,62
  65              	.LVL3:
  12:src/syscallC.cpp ****     syscall(MEM_ALLOC, numOfBlocks);
  66              		.loc 1 12 5 is_stmt 1
  67              		.loc 1 12 12 is_stmt 0
  68 0044 13070000 		li	a4,0
  69 0048 93060000 		li	a3,0
  70 004c 13060000 		li	a2,0
  71 0050 93D56500 		srli	a1,a1,6
  72              	.LVL4:
  73 0054 13051000 		li	a0,1
  74 0058 97000000 		call	_Z7syscallmmmmm
  74      E7800000 
  75              	.LVL5:
  13:src/syscallC.cpp ****     __asm__ volatile("mv %0, a0" : "=r"(retVal));
  76              		.loc 1 13 5 is_stmt 1
  77              		.loc 1 13 49 is_stmt 0
  78              	#APP
  79              	# 13 "src/syscallC.cpp" 1
  14              	    return (void*)retVal;
  80              		mv a0, a0
  81              	# 0 "" 2
  82              	.LVL6:
  83              		.loc 1 14 5 is_stmt 1
  15:src/syscallC.cpp **** }
  84              		.loc 1 15 1 is_stmt 0
  85              	#NO_APP
  86 0064 83308100 		ld	ra,8(sp)
  87              		.cfi_restore 1
  88 0068 03340100 		ld	s0,0(sp)
  89              		.cfi_restore 8
  90              		.cfi_def_cfa 2, 16
  91 006c 13010101 		addi	sp,sp,16
  92              		.cfi_def_cfa_offset 0
  93 0070 67800000 		jr	ra
  94              	.LVL7:
  95              	.L5:
   9:src/syscallC.cpp ****     void volatile *retVal;
  96              		.loc 1 9 25
  97 0074 13050000 		li	a0,0
  98              	.LVL8:
GAS LISTING /tmp/ccM6TiB7.s 			page 3


  99              		.loc 1 15 1
 100 0078 67800000 		ret
 101              		.cfi_endproc
 102              	.LFE1:
 104              		.align	2
 105              		.globl	_Z8mem_freePv
 107              	_Z8mem_freePv:
 108              	.LFB2:
  16:src/syscallC.cpp **** 
  17:src/syscallC.cpp **** int mem_free(void* ptr) {
 109              		.loc 1 17 25 is_stmt 1
 110              		.cfi_startproc
 111              	.LVL9:
 112 007c 130101FE 		addi	sp,sp,-32
 113              		.cfi_def_cfa_offset 32
 114 0080 233C1100 		sd	ra,24(sp)
 115 0084 23388100 		sd	s0,16(sp)
 116              		.cfi_offset 1, -8
 117              		.cfi_offset 8, -16
 118 0088 13040102 		addi	s0,sp,32
 119              		.cfi_def_cfa 8, 0
 120 008c 93050500 		mv	a1,a0
  18:src/syscallC.cpp ****     syscall(MEM_FREE, (uint64)ptr);
 121              		.loc 1 18 5
 122              		.loc 1 18 12 is_stmt 0
 123 0090 13070000 		li	a4,0
 124 0094 93060000 		li	a3,0
 125 0098 13060000 		li	a2,0
 126 009c 13052000 		li	a0,2
 127              	.LVL10:
 128 00a0 97000000 		call	_Z7syscallmmmmm
 128      E7800000 
 129              	.LVL11:
  19:src/syscallC.cpp ****     int volatile retVal;
 130              		.loc 1 19 5 is_stmt 1
  20:src/syscallC.cpp ****     __asm__ volatile("mv %0, a0" : "=r"(retVal));
 131              		.loc 1 20 5
 132              		.loc 1 20 49 is_stmt 0
 133              	#APP
 134              	# 20 "src/syscallC.cpp" 1
  21              	    return retVal;
 135              		mv a5, a0
 136              	# 0 "" 2
 137              	#NO_APP
 138 00ac 2326F4FE 		sw	a5,-20(s0)
 139              		.loc 1 21 5 is_stmt 1
 140              		.loc 1 21 12 is_stmt 0
 141 00b0 0325C4FE 		lw	a0,-20(s0)
  22:src/syscallC.cpp **** }
 142              		.loc 1 22 1
 143 00b4 1B050500 		sext.w	a0,a0
 144 00b8 83308101 		ld	ra,24(sp)
 145              		.cfi_restore 1
 146 00bc 03340101 		ld	s0,16(sp)
 147              		.cfi_restore 8
 148              		.cfi_def_cfa 2, 32
 149 00c0 13010102 		addi	sp,sp,32
GAS LISTING /tmp/ccM6TiB7.s 			page 4


 150              		.cfi_def_cfa_offset 0
 151 00c4 67800000 		jr	ra
 152              		.cfi_endproc
 153              	.LFE2:
 155              		.align	2
 156              		.globl	_Z13thread_createPP3TCBPFvPvES2_
 158              	_Z13thread_createPP3TCBPFvPvES2_:
 159              	.LFB3:
  23:src/syscallC.cpp **** 
  24:src/syscallC.cpp **** int thread_create(thread_t *handle, void (*routine)(void *), void *arg) {
 160              		.loc 1 24 73 is_stmt 1
 161              		.cfi_startproc
 162              	.LVL12:
 163 00c8 130101FD 		addi	sp,sp,-48
 164              		.cfi_def_cfa_offset 48
 165 00cc 23341102 		sd	ra,40(sp)
 166 00d0 23308102 		sd	s0,32(sp)
 167 00d4 233C9100 		sd	s1,24(sp)
 168 00d8 23382101 		sd	s2,16(sp)
 169 00dc 23343101 		sd	s3,8(sp)
 170              		.cfi_offset 1, -8
 171              		.cfi_offset 8, -16
 172              		.cfi_offset 9, -24
 173              		.cfi_offset 18, -32
 174              		.cfi_offset 19, -40
 175 00e0 13040103 		addi	s0,sp,48
 176              		.cfi_def_cfa 8, 0
 177 00e4 13090500 		mv	s2,a0
 178 00e8 93840500 		mv	s1,a1
 179 00ec 93090600 		mv	s3,a2
  25:src/syscallC.cpp ****     void* stack=nullptr;
 180              		.loc 1 25 5
 181              	.LVL13:
  26:src/syscallC.cpp ****     if (routine) {
 182              		.loc 1 26 5
 183 00f0 638A0504 		beqz	a1,.L15
  27:src/syscallC.cpp ****         stack=mem_alloc(DEFAULT_STACK_SIZE);
 184              		.loc 1 27 9
 185              		.loc 1 27 24 is_stmt 0
 186 00f4 37150000 		li	a0,4096
 187              	.LVL14:
 188 00f8 97000000 		call	_Z9mem_allocm
 188      E7800000 
 189              	.LVL15:
 190 0100 13070500 		mv	a4,a0
 191              	.LVL16:
  28:src/syscallC.cpp ****         if (!stack) return -1;
 192              		.loc 1 28 9 is_stmt 1
 193 0104 63040504 		beqz	a0,.L18
 194              	.LVL17:
 195              	.L13:
  29:src/syscallC.cpp ****     }
  30:src/syscallC.cpp ****     syscall(THREAD_CREATE, (uint64)handle, (uint64)routine, (uint64)arg, (uint64)stack);
 196              		.loc 1 30 5
 197              		.loc 1 30 12 is_stmt 0
 198 0108 93860900 		mv	a3,s3
 199 010c 13860400 		mv	a2,s1
GAS LISTING /tmp/ccM6TiB7.s 			page 5


 200 0110 93050900 		mv	a1,s2
 201 0114 13051001 		li	a0,17
 202 0118 97000000 		call	_Z7syscallmmmmm
 202      E7800000 
 203              	.LVL18:
  31:src/syscallC.cpp ****     int retVal;
 204              		.loc 1 31 5 is_stmt 1
  32:src/syscallC.cpp ****     __asm__ volatile("mv %0, a0" : "=r"(retVal));
 205              		.loc 1 32 5
 206              		.loc 1 32 49 is_stmt 0
 207              	#APP
 208              	# 32 "src/syscallC.cpp" 1
  33              	    return retVal;
 209              		mv a0, a0
 210              	# 0 "" 2
 211              	#NO_APP
 212 0124 1B050500 		sext.w	a0,a0
 213              	.LVL19:
 214              		.loc 1 33 5 is_stmt 1
 215              	.L14:
  34:src/syscallC.cpp **** }
 216              		.loc 1 34 1 is_stmt 0
 217 0128 83308102 		ld	ra,40(sp)
 218              		.cfi_remember_state
 219              		.cfi_restore 1
 220 012c 03340102 		ld	s0,32(sp)
 221              		.cfi_restore 8
 222              		.cfi_def_cfa 2, 48
 223 0130 83348101 		ld	s1,24(sp)
 224              		.cfi_restore 9
 225              	.LVL20:
 226 0134 03390101 		ld	s2,16(sp)
 227              		.cfi_restore 18
 228              	.LVL21:
 229 0138 83398100 		ld	s3,8(sp)
 230              		.cfi_restore 19
 231              	.LVL22:
 232 013c 13010103 		addi	sp,sp,48
 233              		.cfi_def_cfa_offset 0
 234 0140 67800000 		jr	ra
 235              	.LVL23:
 236              	.L15:
 237              		.cfi_restore_state
  25:src/syscallC.cpp ****     if (routine) {
 238              		.loc 1 25 11
 239 0144 13070000 		li	a4,0
 240 0148 6FF01FFC 		j	.L13
 241              	.LVL24:
 242              	.L18:
  28:src/syscallC.cpp ****     }
 243              		.loc 1 28 29
 244 014c 1305F0FF 		li	a0,-1
 245              	.LVL25:
 246 0150 6FF09FFD 		j	.L14
 247              		.cfi_endproc
 248              	.LFE3:
 250              		.align	2
GAS LISTING /tmp/ccM6TiB7.s 			page 6


 251              		.globl	_Z11thread_exitv
 253              	_Z11thread_exitv:
 254              	.LFB4:
  35:src/syscallC.cpp **** 
  36:src/syscallC.cpp **** int thread_exit() {
 255              		.loc 1 36 19 is_stmt 1
 256              		.cfi_startproc
 257 0154 130101FF 		addi	sp,sp,-16
 258              		.cfi_def_cfa_offset 16
 259 0158 23341100 		sd	ra,8(sp)
 260 015c 23308100 		sd	s0,0(sp)
 261              		.cfi_offset 1, -8
 262              		.cfi_offset 8, -16
 263 0160 13040101 		addi	s0,sp,16
 264              		.cfi_def_cfa 8, 0
  37:src/syscallC.cpp ****     syscall(THREAD_EXIT);
 265              		.loc 1 37 5
 266              		.loc 1 37 12 is_stmt 0
 267 0164 13070000 		li	a4,0
 268 0168 93060000 		li	a3,0
 269 016c 13060000 		li	a2,0
 270 0170 93050000 		li	a1,0
 271 0174 13052001 		li	a0,18
 272 0178 97000000 		call	_Z7syscallmmmmm
 272      E7800000 
 273              	.LVL26:
  38:src/syscallC.cpp ****     int retVal;
 274              		.loc 1 38 5 is_stmt 1
  39:src/syscallC.cpp ****     __asm__ volatile("mv %0, a0" : "=r"(retVal));
 275              		.loc 1 39 5
 276              		.loc 1 39 49 is_stmt 0
 277              	#APP
 278              	# 39 "src/syscallC.cpp" 1
  40              	    return retVal;
 279              		mv a0, a0
 280              	# 0 "" 2
 281              	.LVL27:
 282              		.loc 1 40 5 is_stmt 1
  41:src/syscallC.cpp **** }
 283              		.loc 1 41 1 is_stmt 0
 284              	#NO_APP
 285 0184 1B050500 		sext.w	a0,a0
 286 0188 83308100 		ld	ra,8(sp)
 287              		.cfi_restore 1
 288 018c 03340100 		ld	s0,0(sp)
 289              		.cfi_restore 8
 290              		.cfi_def_cfa 2, 16
 291 0190 13010101 		addi	sp,sp,16
 292              		.cfi_def_cfa_offset 0
 293 0194 67800000 		jr	ra
 294              		.cfi_endproc
 295              	.LFE4:
 297              		.align	2
 298              		.globl	_Z15thread_dispatchv
 300              	_Z15thread_dispatchv:
 301              	.LFB5:
  42:src/syscallC.cpp **** 
GAS LISTING /tmp/ccM6TiB7.s 			page 7


  43:src/syscallC.cpp **** void thread_dispatch() {
 302              		.loc 1 43 24 is_stmt 1
 303              		.cfi_startproc
 304 0198 130101FF 		addi	sp,sp,-16
 305              		.cfi_def_cfa_offset 16
 306 019c 23341100 		sd	ra,8(sp)
 307 01a0 23308100 		sd	s0,0(sp)
 308              		.cfi_offset 1, -8
 309              		.cfi_offset 8, -16
 310 01a4 13040101 		addi	s0,sp,16
 311              		.cfi_def_cfa 8, 0
  44:src/syscallC.cpp ****     syscall(THREAD_DISPATCH);
 312              		.loc 1 44 5
 313              		.loc 1 44 12 is_stmt 0
 314 01a8 13070000 		li	a4,0
 315 01ac 93060000 		li	a3,0
 316 01b0 13060000 		li	a2,0
 317 01b4 93050000 		li	a1,0
 318 01b8 13053001 		li	a0,19
 319 01bc 97000000 		call	_Z7syscallmmmmm
 319      E7800000 
 320              	.LVL28:
  45:src/syscallC.cpp **** }
 321              		.loc 1 45 1
 322 01c4 83308100 		ld	ra,8(sp)
 323              		.cfi_restore 1
 324 01c8 03340100 		ld	s0,0(sp)
 325              		.cfi_restore 8
 326              		.cfi_def_cfa 2, 16
 327 01cc 13010101 		addi	sp,sp,16
 328              		.cfi_def_cfa_offset 0
 329 01d0 67800000 		jr	ra
 330              		.cfi_endproc
 331              	.LFE5:
 333              		.align	2
 334              		.globl	_Z8sem_openPP3Semj
 336              	_Z8sem_openPP3Semj:
 337              	.LFB6:
  46:src/syscallC.cpp **** 
  47:src/syscallC.cpp **** int sem_open(sem_t* handle, unsigned init) {
 338              		.loc 1 47 44 is_stmt 1
 339              		.cfi_startproc
 340              	.LVL29:
 341 01d4 130101FF 		addi	sp,sp,-16
 342              		.cfi_def_cfa_offset 16
 343 01d8 23341100 		sd	ra,8(sp)
 344 01dc 23308100 		sd	s0,0(sp)
 345              		.cfi_offset 1, -8
 346              		.cfi_offset 8, -16
 347 01e0 13040101 		addi	s0,sp,16
 348              		.cfi_def_cfa 8, 0
  48:src/syscallC.cpp ****     syscall(SEM_OPEN, (uint64)handle, init);
 349              		.loc 1 48 5
 350              		.loc 1 48 12 is_stmt 0
 351 01e4 13070000 		li	a4,0
 352 01e8 93060000 		li	a3,0
 353 01ec 13960502 		slli	a2,a1,32
GAS LISTING /tmp/ccM6TiB7.s 			page 8


 354 01f0 13560602 		srli	a2,a2,32
 355 01f4 93050500 		mv	a1,a0
 356              	.LVL30:
 357 01f8 13051002 		li	a0,33
 358              	.LVL31:
 359 01fc 97000000 		call	_Z7syscallmmmmm
 359      E7800000 
 360              	.LVL32:
  49:src/syscallC.cpp ****     int retVal;
 361              		.loc 1 49 5 is_stmt 1
  50:src/syscallC.cpp ****     __asm__ volatile("mv %0, a0" : "=r"(retVal));
 362              		.loc 1 50 5
 363              		.loc 1 50 49 is_stmt 0
 364              	#APP
 365              	# 50 "src/syscallC.cpp" 1
  51              	    return retVal;
 366              		mv a0, a0
 367              	# 0 "" 2
 368              	.LVL33:
 369              		.loc 1 51 5 is_stmt 1
  52:src/syscallC.cpp **** }
 370              		.loc 1 52 1 is_stmt 0
 371              	#NO_APP
 372 0208 1B050500 		sext.w	a0,a0
 373 020c 83308100 		ld	ra,8(sp)
 374              		.cfi_restore 1
 375 0210 03340100 		ld	s0,0(sp)
 376              		.cfi_restore 8
 377              		.cfi_def_cfa 2, 16
 378 0214 13010101 		addi	sp,sp,16
 379              		.cfi_def_cfa_offset 0
 380 0218 67800000 		jr	ra
 381              		.cfi_endproc
 382              	.LFE6:
 384              		.align	2
 385              		.globl	_Z9sem_closeP3Sem
 387              	_Z9sem_closeP3Sem:
 388              	.LFB7:
  53:src/syscallC.cpp **** 
  54:src/syscallC.cpp **** int sem_close(sem_t handle) {
 389              		.loc 1 54 29 is_stmt 1
 390              		.cfi_startproc
 391              	.LVL34:
 392 021c 130101FF 		addi	sp,sp,-16
 393              		.cfi_def_cfa_offset 16
 394 0220 23341100 		sd	ra,8(sp)
 395 0224 23308100 		sd	s0,0(sp)
 396              		.cfi_offset 1, -8
 397              		.cfi_offset 8, -16
 398 0228 13040101 		addi	s0,sp,16
 399              		.cfi_def_cfa 8, 0
 400 022c 93050500 		mv	a1,a0
  55:src/syscallC.cpp ****     //NESTO
  56:src/syscallC.cpp ****     syscall(SEM_CLOSE, (uint64)handle);
 401              		.loc 1 56 5
 402              		.loc 1 56 12 is_stmt 0
 403 0230 13070000 		li	a4,0
GAS LISTING /tmp/ccM6TiB7.s 			page 9


 404 0234 93060000 		li	a3,0
 405 0238 13060000 		li	a2,0
 406 023c 13052002 		li	a0,34
 407              	.LVL35:
 408 0240 97000000 		call	_Z7syscallmmmmm
 408      E7800000 
 409              	.LVL36:
  57:src/syscallC.cpp ****     int retVal;
 410              		.loc 1 57 5 is_stmt 1
  58:src/syscallC.cpp ****     __asm__ volatile("mv %0, a0" : "=r"(retVal));
 411              		.loc 1 58 5
 412              		.loc 1 58 49 is_stmt 0
 413              	#APP
 414              	# 58 "src/syscallC.cpp" 1
  59              	    return retVal;
 415              		mv a0, a0
 416              	# 0 "" 2
 417              	.LVL37:
 418              		.loc 1 59 5 is_stmt 1
  60:src/syscallC.cpp **** }
 419              		.loc 1 60 1 is_stmt 0
 420              	#NO_APP
 421 024c 1B050500 		sext.w	a0,a0
 422 0250 83308100 		ld	ra,8(sp)
 423              		.cfi_restore 1
 424 0254 03340100 		ld	s0,0(sp)
 425              		.cfi_restore 8
 426              		.cfi_def_cfa 2, 16
 427 0258 13010101 		addi	sp,sp,16
 428              		.cfi_def_cfa_offset 0
 429 025c 67800000 		jr	ra
 430              		.cfi_endproc
 431              	.LFE7:
 433              		.align	2
 434              		.globl	_Z8sem_waitP3Sem
 436              	_Z8sem_waitP3Sem:
 437              	.LFB8:
  61:src/syscallC.cpp **** 
  62:src/syscallC.cpp **** int sem_wait(sem_t id) {
 438              		.loc 1 62 24 is_stmt 1
 439              		.cfi_startproc
 440              	.LVL38:
 441 0260 130101FF 		addi	sp,sp,-16
 442              		.cfi_def_cfa_offset 16
 443 0264 23341100 		sd	ra,8(sp)
 444 0268 23308100 		sd	s0,0(sp)
 445              		.cfi_offset 1, -8
 446              		.cfi_offset 8, -16
 447 026c 13040101 		addi	s0,sp,16
 448              		.cfi_def_cfa 8, 0
 449 0270 93050500 		mv	a1,a0
  63:src/syscallC.cpp ****     syscall(SEM_WAIT, (uint64)id);
 450              		.loc 1 63 5
 451              		.loc 1 63 12 is_stmt 0
 452 0274 13070000 		li	a4,0
 453 0278 93060000 		li	a3,0
 454 027c 13060000 		li	a2,0
GAS LISTING /tmp/ccM6TiB7.s 			page 10


 455 0280 13053002 		li	a0,35
 456              	.LVL39:
 457 0284 97000000 		call	_Z7syscallmmmmm
 457      E7800000 
 458              	.LVL40:
  64:src/syscallC.cpp ****     int retVal;
 459              		.loc 1 64 5 is_stmt 1
  65:src/syscallC.cpp ****     __asm__ volatile("mv %0, a0" : "=r"(retVal));
 460              		.loc 1 65 5
 461              		.loc 1 65 49 is_stmt 0
 462              	#APP
 463              	# 65 "src/syscallC.cpp" 1
  66              	    return retVal;
 464              		mv a0, a0
 465              	# 0 "" 2
 466              	.LVL41:
 467              		.loc 1 66 5 is_stmt 1
  67:src/syscallC.cpp **** }
 468              		.loc 1 67 1 is_stmt 0
 469              	#NO_APP
 470 0290 1B050500 		sext.w	a0,a0
 471 0294 83308100 		ld	ra,8(sp)
 472              		.cfi_restore 1
 473 0298 03340100 		ld	s0,0(sp)
 474              		.cfi_restore 8
 475              		.cfi_def_cfa 2, 16
 476 029c 13010101 		addi	sp,sp,16
 477              		.cfi_def_cfa_offset 0
 478 02a0 67800000 		jr	ra
 479              		.cfi_endproc
 480              	.LFE8:
 482              		.align	2
 483              		.globl	_Z11sem_trywaitP3Sem
 485              	_Z11sem_trywaitP3Sem:
 486              	.LFB9:
  68:src/syscallC.cpp **** 
  69:src/syscallC.cpp **** int sem_trywait(sem_t id) {
 487              		.loc 1 69 27 is_stmt 1
 488              		.cfi_startproc
 489              	.LVL42:
 490 02a4 130101FF 		addi	sp,sp,-16
 491              		.cfi_def_cfa_offset 16
 492 02a8 23341100 		sd	ra,8(sp)
 493 02ac 23308100 		sd	s0,0(sp)
 494              		.cfi_offset 1, -8
 495              		.cfi_offset 8, -16
 496 02b0 13040101 		addi	s0,sp,16
 497              		.cfi_def_cfa 8, 0
 498 02b4 93050500 		mv	a1,a0
  70:src/syscallC.cpp ****     syscall(SEM_TRYWAIT, (uint64)id);
 499              		.loc 1 70 5
 500              		.loc 1 70 12 is_stmt 0
 501 02b8 13070000 		li	a4,0
 502 02bc 93060000 		li	a3,0
 503 02c0 13060000 		li	a2,0
 504 02c4 13056002 		li	a0,38
 505              	.LVL43:
GAS LISTING /tmp/ccM6TiB7.s 			page 11


 506 02c8 97000000 		call	_Z7syscallmmmmm
 506      E7800000 
 507              	.LVL44:
  71:src/syscallC.cpp ****     int retVal;
 508              		.loc 1 71 5 is_stmt 1
  72:src/syscallC.cpp ****     __asm__ volatile("mv %0, a0" : "=r"(retVal));
 509              		.loc 1 72 5
 510              		.loc 1 72 49 is_stmt 0
 511              	#APP
 512              	# 72 "src/syscallC.cpp" 1
  73              	    return retVal;
 513              		mv a0, a0
 514              	# 0 "" 2
 515              	.LVL45:
 516              		.loc 1 73 5 is_stmt 1
  74:src/syscallC.cpp **** }
 517              		.loc 1 74 1 is_stmt 0
 518              	#NO_APP
 519 02d4 1B050500 		sext.w	a0,a0
 520 02d8 83308100 		ld	ra,8(sp)
 521              		.cfi_restore 1
 522 02dc 03340100 		ld	s0,0(sp)
 523              		.cfi_restore 8
 524              		.cfi_def_cfa 2, 16
 525 02e0 13010101 		addi	sp,sp,16
 526              		.cfi_def_cfa_offset 0
 527 02e4 67800000 		jr	ra
 528              		.cfi_endproc
 529              	.LFE9:
 531              		.align	2
 532              		.globl	_Z10sem_signalP3Sem
 534              	_Z10sem_signalP3Sem:
 535              	.LFB10:
  75:src/syscallC.cpp **** 
  76:src/syscallC.cpp **** int sem_signal(sem_t id) {
 536              		.loc 1 76 26 is_stmt 1
 537              		.cfi_startproc
 538              	.LVL46:
 539 02e8 130101FF 		addi	sp,sp,-16
 540              		.cfi_def_cfa_offset 16
 541 02ec 23341100 		sd	ra,8(sp)
 542 02f0 23308100 		sd	s0,0(sp)
 543              		.cfi_offset 1, -8
 544              		.cfi_offset 8, -16
 545 02f4 13040101 		addi	s0,sp,16
 546              		.cfi_def_cfa 8, 0
 547 02f8 93050500 		mv	a1,a0
  77:src/syscallC.cpp ****     syscall(SEM_SIGNAL, (uint64)id);
 548              		.loc 1 77 5
 549              		.loc 1 77 12 is_stmt 0
 550 02fc 13070000 		li	a4,0
 551 0300 93060000 		li	a3,0
 552 0304 13060000 		li	a2,0
 553 0308 13054002 		li	a0,36
 554              	.LVL47:
 555 030c 97000000 		call	_Z7syscallmmmmm
 555      E7800000 
GAS LISTING /tmp/ccM6TiB7.s 			page 12


 556              	.LVL48:
  78:src/syscallC.cpp ****     int retVal;
 557              		.loc 1 78 5 is_stmt 1
  79:src/syscallC.cpp ****     __asm__ volatile("mv %0, a0" : "=r"(retVal));
 558              		.loc 1 79 5
 559              		.loc 1 79 49 is_stmt 0
 560              	#APP
 561              	# 79 "src/syscallC.cpp" 1
  80              	    return retVal;
 562              		mv a0, a0
 563              	# 0 "" 2
 564              	.LVL49:
 565              		.loc 1 80 5 is_stmt 1
  81:src/syscallC.cpp **** }
 566              		.loc 1 81 1 is_stmt 0
 567              	#NO_APP
 568 0318 1B050500 		sext.w	a0,a0
 569 031c 83308100 		ld	ra,8(sp)
 570              		.cfi_restore 1
 571 0320 03340100 		ld	s0,0(sp)
 572              		.cfi_restore 8
 573              		.cfi_def_cfa 2, 16
 574 0324 13010101 		addi	sp,sp,16
 575              		.cfi_def_cfa_offset 0
 576 0328 67800000 		jr	ra
 577              		.cfi_endproc
 578              	.LFE10:
 580              		.align	2
 581              		.globl	_Z4getcv
 583              	_Z4getcv:
 584              	.LFB11:
  82:src/syscallC.cpp **** 
  83:src/syscallC.cpp **** char getc() {
 585              		.loc 1 83 13 is_stmt 1
 586              		.cfi_startproc
 587 032c 130101FF 		addi	sp,sp,-16
 588              		.cfi_def_cfa_offset 16
 589 0330 23341100 		sd	ra,8(sp)
 590 0334 23308100 		sd	s0,0(sp)
 591              		.cfi_offset 1, -8
 592              		.cfi_offset 8, -16
 593 0338 13040101 		addi	s0,sp,16
 594              		.cfi_def_cfa 8, 0
  84:src/syscallC.cpp ****     syscall(GETC);
 595              		.loc 1 84 5
 596              		.loc 1 84 12 is_stmt 0
 597 033c 13070000 		li	a4,0
 598 0340 93060000 		li	a3,0
 599 0344 13060000 		li	a2,0
 600 0348 93050000 		li	a1,0
 601 034c 13051004 		li	a0,65
 602 0350 97000000 		call	_Z7syscallmmmmm
 602      E7800000 
 603              	.LVL50:
  85:src/syscallC.cpp ****     char retVal;
 604              		.loc 1 85 5 is_stmt 1
  86:src/syscallC.cpp ****     __asm__ volatile("mv %0, a0" : "=r"(retVal));
GAS LISTING /tmp/ccM6TiB7.s 			page 13


 605              		.loc 1 86 5
 606              		.loc 1 86 49 is_stmt 0
 607              	#APP
 608              	# 86 "src/syscallC.cpp" 1
  87              	    return retVal;
 609              		mv a0, a0
 610              	# 0 "" 2
 611              	.LVL51:
 612              		.loc 1 87 5 is_stmt 1
  88:src/syscallC.cpp **** }
 613              		.loc 1 88 1 is_stmt 0
 614              	#NO_APP
 615 035c 1375F50F 		andi	a0,a0,0xff
 616 0360 83308100 		ld	ra,8(sp)
 617              		.cfi_restore 1
 618 0364 03340100 		ld	s0,0(sp)
 619              		.cfi_restore 8
 620              		.cfi_def_cfa 2, 16
 621 0368 13010101 		addi	sp,sp,16
 622              		.cfi_def_cfa_offset 0
 623 036c 67800000 		jr	ra
 624              		.cfi_endproc
 625              	.LFE11:
 627              		.align	2
 628              		.globl	_Z4putcc
 630              	_Z4putcc:
 631              	.LFB12:
  89:src/syscallC.cpp **** 
  90:src/syscallC.cpp **** void putc(char c) {
 632              		.loc 1 90 19 is_stmt 1
 633              		.cfi_startproc
 634              	.LVL52:
 635 0370 130101FF 		addi	sp,sp,-16
 636              		.cfi_def_cfa_offset 16
 637 0374 23341100 		sd	ra,8(sp)
 638 0378 23308100 		sd	s0,0(sp)
 639              		.cfi_offset 1, -8
 640              		.cfi_offset 8, -16
 641 037c 13040101 		addi	s0,sp,16
 642              		.cfi_def_cfa 8, 0
 643 0380 93050500 		mv	a1,a0
  91:src/syscallC.cpp ****     syscall(PUTC, c);
 644              		.loc 1 91 5
 645              		.loc 1 91 12 is_stmt 0
 646 0384 13070000 		li	a4,0
 647 0388 93060000 		li	a3,0
 648 038c 13060000 		li	a2,0
 649 0390 13052004 		li	a0,66
 650              	.LVL53:
 651 0394 97000000 		call	_Z7syscallmmmmm
 651      E7800000 
 652              	.LVL54:
  92:src/syscallC.cpp **** }...
 653              		.loc 1 92 1
 654 039c 83308100 		ld	ra,8(sp)
 655              		.cfi_restore 1
 656 03a0 03340100 		ld	s0,0(sp)
GAS LISTING /tmp/ccM6TiB7.s 			page 14


 657              		.cfi_restore 8
 658              		.cfi_def_cfa 2, 16
 659 03a4 13010101 		addi	sp,sp,16
 660              		.cfi_def_cfa_offset 0
 661 03a8 67800000 		jr	ra
 662              		.cfi_endproc
 663              	.LFE12:
 665              	.Letext0:
 666              		.file 2 "src/../h/../lib/hw.h"
 667              		.file 3 "src/../h/syscallC.hpp"
GAS LISTING /tmp/ccM6TiB7.s 			page 15


DEFINED SYMBOLS
                            *ABS*:0000000000000000 syscallC.cpp
     /tmp/ccM6TiB7.s:9      .text:0000000000000000 _Z7syscallmmmmm
     /tmp/ccM6TiB7.s:13     .text:0000000000000000 .L0 
     /tmp/ccM6TiB7.s:15     .text:0000000000000000 .L0 
     /tmp/ccM6TiB7.s:16     .text:0000000000000004 .L0 
     /tmp/ccM6TiB7.s:18     .text:0000000000000008 .L0 
     /tmp/ccM6TiB7.s:20     .text:000000000000000c .L0 
     /tmp/ccM6TiB7.s:22     .text:000000000000000c .L0 
    src/syscallC.cpp:5      .text:000000000000000c .L0 
     /tmp/ccM6TiB7.s:29     .text:0000000000000010 .L0 
     /tmp/ccM6TiB7.s:30     .text:0000000000000014 .L0 
     /tmp/ccM6TiB7.s:31     .text:0000000000000014 .L0 
     /tmp/ccM6TiB7.s:33     .text:0000000000000018 .L0 
     /tmp/ccM6TiB7.s:35     .text:000000000000001c .L0 
     /tmp/ccM6TiB7.s:41     .text:000000000000001c _Z9mem_allocm
     /tmp/ccM6TiB7.s:44     .text:000000000000001c .L0 
     /tmp/ccM6TiB7.s:46     .text:000000000000001c .L0 
     /tmp/ccM6TiB7.s:47     .text:000000000000001c .L0 
     /tmp/ccM6TiB7.s:49     .text:0000000000000020 .L0 
     /tmp/ccM6TiB7.s:50     .text:0000000000000024 .L0 
     /tmp/ccM6TiB7.s:53     .text:000000000000002c .L0 
     /tmp/ccM6TiB7.s:54     .text:000000000000002c .L0 
     /tmp/ccM6TiB7.s:56     .text:0000000000000030 .L0 
     /tmp/ccM6TiB7.s:58     .text:0000000000000030 .L0 
     /tmp/ccM6TiB7.s:59     .text:0000000000000030 .L0 
     /tmp/ccM6TiB7.s:60     .text:0000000000000030 .L0 
     /tmp/ccM6TiB7.s:67     .text:0000000000000044 .L0 
     /tmp/ccM6TiB7.s:68     .text:0000000000000044 .L0 
     /tmp/ccM6TiB7.s:77     .text:0000000000000060 .L0 
    src/syscallC.cpp:13     .text:0000000000000060 .L0 
     /tmp/ccM6TiB7.s:84     .text:0000000000000064 .L0 
     /tmp/ccM6TiB7.s:86     .text:0000000000000064 .L0 
     /tmp/ccM6TiB7.s:87     .text:0000000000000068 .L0 
     /tmp/ccM6TiB7.s:89     .text:000000000000006c .L0 
     /tmp/ccM6TiB7.s:90     .text:000000000000006c .L0 
     /tmp/ccM6TiB7.s:92     .text:0000000000000070 .L0 
     /tmp/ccM6TiB7.s:97     .text:0000000000000074 .L0 
     /tmp/ccM6TiB7.s:100    .text:0000000000000078 .L0 
     /tmp/ccM6TiB7.s:101    .text:000000000000007c .L0 
     /tmp/ccM6TiB7.s:107    .text:000000000000007c _Z8mem_freePv
     /tmp/ccM6TiB7.s:110    .text:000000000000007c .L0 
     /tmp/ccM6TiB7.s:112    .text:000000000000007c .L0 
     /tmp/ccM6TiB7.s:113    .text:0000000000000080 .L0 
     /tmp/ccM6TiB7.s:116    .text:0000000000000088 .L0 
     /tmp/ccM6TiB7.s:117    .text:0000000000000088 .L0 
     /tmp/ccM6TiB7.s:119    .text:000000000000008c .L0 
     /tmp/ccM6TiB7.s:122    .text:0000000000000090 .L0 
     /tmp/ccM6TiB7.s:123    .text:0000000000000090 .L0 
     /tmp/ccM6TiB7.s:131    .text:00000000000000a8 .L0 
     /tmp/ccM6TiB7.s:132    .text:00000000000000a8 .L0 
    src/syscallC.cpp:20     .text:00000000000000a8 .L0 
     /tmp/ccM6TiB7.s:140    .text:00000000000000b0 .L0 
     /tmp/ccM6TiB7.s:141    .text:00000000000000b0 .L0 
     /tmp/ccM6TiB7.s:143    .text:00000000000000b4 .L0 
     /tmp/ccM6TiB7.s:145    .text:00000000000000bc .L0 
     /tmp/ccM6TiB7.s:147    .text:00000000000000c0 .L0 
GAS LISTING /tmp/ccM6TiB7.s 			page 16


     /tmp/ccM6TiB7.s:148    .text:00000000000000c0 .L0 
     /tmp/ccM6TiB7.s:150    .text:00000000000000c4 .L0 
     /tmp/ccM6TiB7.s:152    .text:00000000000000c8 .L0 
     /tmp/ccM6TiB7.s:158    .text:00000000000000c8 _Z13thread_createPP3TCBPFvPvES2_
     /tmp/ccM6TiB7.s:161    .text:00000000000000c8 .L0 
     /tmp/ccM6TiB7.s:163    .text:00000000000000c8 .L0 
     /tmp/ccM6TiB7.s:164    .text:00000000000000cc .L0 
     /tmp/ccM6TiB7.s:170    .text:00000000000000e0 .L0 
     /tmp/ccM6TiB7.s:171    .text:00000000000000e0 .L0 
     /tmp/ccM6TiB7.s:172    .text:00000000000000e0 .L0 
     /tmp/ccM6TiB7.s:173    .text:00000000000000e0 .L0 
     /tmp/ccM6TiB7.s:174    .text:00000000000000e0 .L0 
     /tmp/ccM6TiB7.s:176    .text:00000000000000e4 .L0 
     /tmp/ccM6TiB7.s:182    .text:00000000000000f0 .L0 
     /tmp/ccM6TiB7.s:183    .text:00000000000000f0 .L0 
     /tmp/ccM6TiB7.s:185    .text:00000000000000f4 .L0 
     /tmp/ccM6TiB7.s:186    .text:00000000000000f4 .L0 
     /tmp/ccM6TiB7.s:193    .text:0000000000000104 .L0 
     /tmp/ccM6TiB7.s:197    .text:0000000000000108 .L0 
     /tmp/ccM6TiB7.s:198    .text:0000000000000108 .L0 
     /tmp/ccM6TiB7.s:205    .text:0000000000000120 .L0 
     /tmp/ccM6TiB7.s:206    .text:0000000000000120 .L0 
    src/syscallC.cpp:32     .text:0000000000000120 .L0 
     /tmp/ccM6TiB7.s:216    .text:0000000000000128 .L0 
     /tmp/ccM6TiB7.s:217    .text:0000000000000128 .L0 
     /tmp/ccM6TiB7.s:218    .text:000000000000012c .L0 
     /tmp/ccM6TiB7.s:219    .text:000000000000012c .L0 
     /tmp/ccM6TiB7.s:221    .text:0000000000000130 .L0 
     /tmp/ccM6TiB7.s:222    .text:0000000000000130 .L0 
     /tmp/ccM6TiB7.s:224    .text:0000000000000134 .L0 
     /tmp/ccM6TiB7.s:227    .text:0000000000000138 .L0 
     /tmp/ccM6TiB7.s:230    .text:000000000000013c .L0 
     /tmp/ccM6TiB7.s:233    .text:0000000000000140 .L0 
     /tmp/ccM6TiB7.s:237    .text:0000000000000144 .L0 
     /tmp/ccM6TiB7.s:239    .text:0000000000000144 .L0 
     /tmp/ccM6TiB7.s:244    .text:000000000000014c .L0 
     /tmp/ccM6TiB7.s:247    .text:0000000000000154 .L0 
     /tmp/ccM6TiB7.s:253    .text:0000000000000154 _Z11thread_exitv
     /tmp/ccM6TiB7.s:256    .text:0000000000000154 .L0 
     /tmp/ccM6TiB7.s:257    .text:0000000000000154 .L0 
     /tmp/ccM6TiB7.s:258    .text:0000000000000158 .L0 
     /tmp/ccM6TiB7.s:261    .text:0000000000000160 .L0 
     /tmp/ccM6TiB7.s:262    .text:0000000000000160 .L0 
     /tmp/ccM6TiB7.s:264    .text:0000000000000164 .L0 
     /tmp/ccM6TiB7.s:266    .text:0000000000000164 .L0 
     /tmp/ccM6TiB7.s:267    .text:0000000000000164 .L0 
     /tmp/ccM6TiB7.s:275    .text:0000000000000180 .L0 
     /tmp/ccM6TiB7.s:276    .text:0000000000000180 .L0 
    src/syscallC.cpp:39     .text:0000000000000180 .L0 
     /tmp/ccM6TiB7.s:283    .text:0000000000000184 .L0 
     /tmp/ccM6TiB7.s:285    .text:0000000000000184 .L0 
     /tmp/ccM6TiB7.s:287    .text:000000000000018c .L0 
     /tmp/ccM6TiB7.s:289    .text:0000000000000190 .L0 
     /tmp/ccM6TiB7.s:290    .text:0000000000000190 .L0 
     /tmp/ccM6TiB7.s:292    .text:0000000000000194 .L0 
     /tmp/ccM6TiB7.s:294    .text:0000000000000198 .L0 
     /tmp/ccM6TiB7.s:300    .text:0000000000000198 _Z15thread_dispatchv
GAS LISTING /tmp/ccM6TiB7.s 			page 17


     /tmp/ccM6TiB7.s:303    .text:0000000000000198 .L0 
     /tmp/ccM6TiB7.s:304    .text:0000000000000198 .L0 
     /tmp/ccM6TiB7.s:305    .text:000000000000019c .L0 
     /tmp/ccM6TiB7.s:308    .text:00000000000001a4 .L0 
     /tmp/ccM6TiB7.s:309    .text:00000000000001a4 .L0 
     /tmp/ccM6TiB7.s:311    .text:00000000000001a8 .L0 
     /tmp/ccM6TiB7.s:313    .text:00000000000001a8 .L0 
     /tmp/ccM6TiB7.s:314    .text:00000000000001a8 .L0 
     /tmp/ccM6TiB7.s:322    .text:00000000000001c4 .L0 
     /tmp/ccM6TiB7.s:323    .text:00000000000001c8 .L0 
     /tmp/ccM6TiB7.s:325    .text:00000000000001cc .L0 
     /tmp/ccM6TiB7.s:326    .text:00000000000001cc .L0 
     /tmp/ccM6TiB7.s:328    .text:00000000000001d0 .L0 
     /tmp/ccM6TiB7.s:330    .text:00000000000001d4 .L0 
     /tmp/ccM6TiB7.s:336    .text:00000000000001d4 _Z8sem_openPP3Semj
     /tmp/ccM6TiB7.s:339    .text:00000000000001d4 .L0 
     /tmp/ccM6TiB7.s:341    .text:00000000000001d4 .L0 
     /tmp/ccM6TiB7.s:342    .text:00000000000001d8 .L0 
     /tmp/ccM6TiB7.s:345    .text:00000000000001e0 .L0 
     /tmp/ccM6TiB7.s:346    .text:00000000000001e0 .L0 
     /tmp/ccM6TiB7.s:348    .text:00000000000001e4 .L0 
     /tmp/ccM6TiB7.s:350    .text:00000000000001e4 .L0 
     /tmp/ccM6TiB7.s:351    .text:00000000000001e4 .L0 
     /tmp/ccM6TiB7.s:362    .text:0000000000000204 .L0 
     /tmp/ccM6TiB7.s:363    .text:0000000000000204 .L0 
    src/syscallC.cpp:50     .text:0000000000000204 .L0 
     /tmp/ccM6TiB7.s:370    .text:0000000000000208 .L0 
     /tmp/ccM6TiB7.s:372    .text:0000000000000208 .L0 
     /tmp/ccM6TiB7.s:374    .text:0000000000000210 .L0 
     /tmp/ccM6TiB7.s:376    .text:0000000000000214 .L0 
     /tmp/ccM6TiB7.s:377    .text:0000000000000214 .L0 
     /tmp/ccM6TiB7.s:379    .text:0000000000000218 .L0 
     /tmp/ccM6TiB7.s:381    .text:000000000000021c .L0 
     /tmp/ccM6TiB7.s:387    .text:000000000000021c _Z9sem_closeP3Sem
     /tmp/ccM6TiB7.s:390    .text:000000000000021c .L0 
     /tmp/ccM6TiB7.s:392    .text:000000000000021c .L0 
     /tmp/ccM6TiB7.s:393    .text:0000000000000220 .L0 
     /tmp/ccM6TiB7.s:396    .text:0000000000000228 .L0 
     /tmp/ccM6TiB7.s:397    .text:0000000000000228 .L0 
     /tmp/ccM6TiB7.s:399    .text:000000000000022c .L0 
     /tmp/ccM6TiB7.s:402    .text:0000000000000230 .L0 
     /tmp/ccM6TiB7.s:403    .text:0000000000000230 .L0 
     /tmp/ccM6TiB7.s:411    .text:0000000000000248 .L0 
     /tmp/ccM6TiB7.s:412    .text:0000000000000248 .L0 
    src/syscallC.cpp:58     .text:0000000000000248 .L0 
     /tmp/ccM6TiB7.s:419    .text:000000000000024c .L0 
     /tmp/ccM6TiB7.s:421    .text:000000000000024c .L0 
     /tmp/ccM6TiB7.s:423    .text:0000000000000254 .L0 
     /tmp/ccM6TiB7.s:425    .text:0000000000000258 .L0 
     /tmp/ccM6TiB7.s:426    .text:0000000000000258 .L0 
     /tmp/ccM6TiB7.s:428    .text:000000000000025c .L0 
     /tmp/ccM6TiB7.s:430    .text:0000000000000260 .L0 
     /tmp/ccM6TiB7.s:436    .text:0000000000000260 _Z8sem_waitP3Sem
     /tmp/ccM6TiB7.s:439    .text:0000000000000260 .L0 
     /tmp/ccM6TiB7.s:441    .text:0000000000000260 .L0 
     /tmp/ccM6TiB7.s:442    .text:0000000000000264 .L0 
     /tmp/ccM6TiB7.s:445    .text:000000000000026c .L0 
GAS LISTING /tmp/ccM6TiB7.s 			page 18


     /tmp/ccM6TiB7.s:446    .text:000000000000026c .L0 
     /tmp/ccM6TiB7.s:448    .text:0000000000000270 .L0 
     /tmp/ccM6TiB7.s:451    .text:0000000000000274 .L0 
     /tmp/ccM6TiB7.s:452    .text:0000000000000274 .L0 
     /tmp/ccM6TiB7.s:460    .text:000000000000028c .L0 
     /tmp/ccM6TiB7.s:461    .text:000000000000028c .L0 
    src/syscallC.cpp:65     .text:000000000000028c .L0 
     /tmp/ccM6TiB7.s:468    .text:0000000000000290 .L0 
     /tmp/ccM6TiB7.s:470    .text:0000000000000290 .L0 
     /tmp/ccM6TiB7.s:472    .text:0000000000000298 .L0 
     /tmp/ccM6TiB7.s:474    .text:000000000000029c .L0 
     /tmp/ccM6TiB7.s:475    .text:000000000000029c .L0 
     /tmp/ccM6TiB7.s:477    .text:00000000000002a0 .L0 
     /tmp/ccM6TiB7.s:479    .text:00000000000002a4 .L0 
     /tmp/ccM6TiB7.s:485    .text:00000000000002a4 _Z11sem_trywaitP3Sem
     /tmp/ccM6TiB7.s:488    .text:00000000000002a4 .L0 
     /tmp/ccM6TiB7.s:490    .text:00000000000002a4 .L0 
     /tmp/ccM6TiB7.s:491    .text:00000000000002a8 .L0 
     /tmp/ccM6TiB7.s:494    .text:00000000000002b0 .L0 
     /tmp/ccM6TiB7.s:495    .text:00000000000002b0 .L0 
     /tmp/ccM6TiB7.s:497    .text:00000000000002b4 .L0 
     /tmp/ccM6TiB7.s:500    .text:00000000000002b8 .L0 
     /tmp/ccM6TiB7.s:501    .text:00000000000002b8 .L0 
     /tmp/ccM6TiB7.s:509    .text:00000000000002d0 .L0 
     /tmp/ccM6TiB7.s:510    .text:00000000000002d0 .L0 
    src/syscallC.cpp:72     .text:00000000000002d0 .L0 
     /tmp/ccM6TiB7.s:517    .text:00000000000002d4 .L0 
     /tmp/ccM6TiB7.s:519    .text:00000000000002d4 .L0 
     /tmp/ccM6TiB7.s:521    .text:00000000000002dc .L0 
     /tmp/ccM6TiB7.s:523    .text:00000000000002e0 .L0 
     /tmp/ccM6TiB7.s:524    .text:00000000000002e0 .L0 
     /tmp/ccM6TiB7.s:526    .text:00000000000002e4 .L0 
     /tmp/ccM6TiB7.s:528    .text:00000000000002e8 .L0 
     /tmp/ccM6TiB7.s:534    .text:00000000000002e8 _Z10sem_signalP3Sem
     /tmp/ccM6TiB7.s:537    .text:00000000000002e8 .L0 
     /tmp/ccM6TiB7.s:539    .text:00000000000002e8 .L0 
     /tmp/ccM6TiB7.s:540    .text:00000000000002ec .L0 
     /tmp/ccM6TiB7.s:543    .text:00000000000002f4 .L0 
     /tmp/ccM6TiB7.s:544    .text:00000000000002f4 .L0 
     /tmp/ccM6TiB7.s:546    .text:00000000000002f8 .L0 
     /tmp/ccM6TiB7.s:549    .text:00000000000002fc .L0 
     /tmp/ccM6TiB7.s:550    .text:00000000000002fc .L0 
     /tmp/ccM6TiB7.s:558    .text:0000000000000314 .L0 
     /tmp/ccM6TiB7.s:559    .text:0000000000000314 .L0 
    src/syscallC.cpp:79     .text:0000000000000314 .L0 
     /tmp/ccM6TiB7.s:566    .text:0000000000000318 .L0 
     /tmp/ccM6TiB7.s:568    .text:0000000000000318 .L0 
     /tmp/ccM6TiB7.s:570    .text:0000000000000320 .L0 
     /tmp/ccM6TiB7.s:572    .text:0000000000000324 .L0 
     /tmp/ccM6TiB7.s:573    .text:0000000000000324 .L0 
     /tmp/ccM6TiB7.s:575    .text:0000000000000328 .L0 
     /tmp/ccM6TiB7.s:577    .text:000000000000032c .L0 
     /tmp/ccM6TiB7.s:583    .text:000000000000032c _Z4getcv
     /tmp/ccM6TiB7.s:586    .text:000000000000032c .L0 
     /tmp/ccM6TiB7.s:587    .text:000000000000032c .L0 
     /tmp/ccM6TiB7.s:588    .text:0000000000000330 .L0 
     /tmp/ccM6TiB7.s:591    .text:0000000000000338 .L0 
GAS LISTING /tmp/ccM6TiB7.s 			page 19


     /tmp/ccM6TiB7.s:592    .text:0000000000000338 .L0 
     /tmp/ccM6TiB7.s:594    .text:000000000000033c .L0 
     /tmp/ccM6TiB7.s:596    .text:000000000000033c .L0 
     /tmp/ccM6TiB7.s:597    .text:000000000000033c .L0 
     /tmp/ccM6TiB7.s:605    .text:0000000000000358 .L0 
     /tmp/ccM6TiB7.s:606    .text:0000000000000358 .L0 
    src/syscallC.cpp:86     .text:0000000000000358 .L0 
     /tmp/ccM6TiB7.s:613    .text:000000000000035c .L0 
     /tmp/ccM6TiB7.s:615    .text:000000000000035c .L0 
     /tmp/ccM6TiB7.s:617    .text:0000000000000364 .L0 
     /tmp/ccM6TiB7.s:619    .text:0000000000000368 .L0 
     /tmp/ccM6TiB7.s:620    .text:0000000000000368 .L0 
     /tmp/ccM6TiB7.s:622    .text:000000000000036c .L0 
     /tmp/ccM6TiB7.s:624    .text:0000000000000370 .L0 
     /tmp/ccM6TiB7.s:630    .text:0000000000000370 _Z4putcc
     /tmp/ccM6TiB7.s:633    .text:0000000000000370 .L0 
     /tmp/ccM6TiB7.s:635    .text:0000000000000370 .L0 
     /tmp/ccM6TiB7.s:636    .text:0000000000000374 .L0 
     /tmp/ccM6TiB7.s:639    .text:000000000000037c .L0 
     /tmp/ccM6TiB7.s:640    .text:000000000000037c .L0 
     /tmp/ccM6TiB7.s:642    .text:0000000000000380 .L0 
     /tmp/ccM6TiB7.s:645    .text:0000000000000384 .L0 
     /tmp/ccM6TiB7.s:646    .text:0000000000000384 .L0 
     /tmp/ccM6TiB7.s:654    .text:000000000000039c .L0 
     /tmp/ccM6TiB7.s:655    .text:00000000000003a0 .L0 
     /tmp/ccM6TiB7.s:657    .text:00000000000003a4 .L0 
     /tmp/ccM6TiB7.s:658    .text:00000000000003a4 .L0 
     /tmp/ccM6TiB7.s:660    .text:00000000000003a8 .L0 
     /tmp/ccM6TiB7.s:662    .text:00000000000003ac .L0 
     /tmp/ccM6TiB7.s:668    .text:00000000000003ac .L0 
     /tmp/ccM6TiB7.s:60     .text:0000000000000030 .L0 
     /tmp/ccM6TiB7.s:95     .text:0000000000000074 .L5
     /tmp/ccM6TiB7.s:236    .text:0000000000000144 .L15
     /tmp/ccM6TiB7.s:242    .text:000000000000014c .L18
     /tmp/ccM6TiB7.s:195    .text:0000000000000108 .L13
     /tmp/ccM6TiB7.s:215    .text:0000000000000128 .L14
     /tmp/ccM6TiB7.s:1674   .debug_abbrev:0000000000000000 .Ldebug_abbrev0
     /tmp/ccM6TiB7.s:2508   .debug_str:000000000000032b .LASF69
     /tmp/ccM6TiB7.s:2482   .debug_str:0000000000000280 .LASF70
     /tmp/ccM6TiB7.s:2410   .debug_str:00000000000000ae .LASF71
     /tmp/ccM6TiB7.s:5      .text:0000000000000000 .Ltext0
     /tmp/ccM6TiB7.s:665    .text:00000000000003ac .Letext0
     /tmp/ccM6TiB7.s:2378   .debug_line:0000000000000000 .Ldebug_line0
     /tmp/ccM6TiB7.s:2464   .debug_str:00000000000001fd .LASF0
     /tmp/ccM6TiB7.s:2468   .debug_str:0000000000000212 .LASF1
     /tmp/ccM6TiB7.s:2458   .debug_str:00000000000001d7 .LASF2
     /tmp/ccM6TiB7.s:2450   .debug_str:00000000000001ae .LASF4
     /tmp/ccM6TiB7.s:2496   .debug_str:00000000000002f0 .LASF3
     /tmp/ccM6TiB7.s:2394   .debug_str:0000000000000049 .LASF5
     /tmp/ccM6TiB7.s:2472   .debug_str:0000000000000236 .LASF6
     /tmp/ccM6TiB7.s:2462   .debug_str:00000000000001ea .LASF7
     /tmp/ccM6TiB7.s:2516   .debug_str:0000000000000413 .LASF8
     /tmp/ccM6TiB7.s:2444   .debug_str:0000000000000192 .LASF9
     /tmp/ccM6TiB7.s:2484   .debug_str:0000000000000291 .LASF10
     /tmp/ccM6TiB7.s:2510   .debug_str:00000000000003ef .LASF11
     /tmp/ccM6TiB7.s:2396   .debug_str:0000000000000050 .LASF12
     /tmp/ccM6TiB7.s:2382   .debug_str:0000000000000009 .LASF13
GAS LISTING /tmp/ccM6TiB7.s 			page 20


     /tmp/ccM6TiB7.s:2402   .debug_str:000000000000007b .LASF14
     /tmp/ccM6TiB7.s:2492   .debug_str:00000000000002c6 .LASF15
     /tmp/ccM6TiB7.s:2412   .debug_str:00000000000000d1 .LASF16
     /tmp/ccM6TiB7.s:2502   .debug_str:0000000000000315 .LASF17
     /tmp/ccM6TiB7.s:2490   .debug_str:00000000000002bd .LASF18
     /tmp/ccM6TiB7.s:2456   .debug_str:00000000000001c9 .LASF19
     /tmp/ccM6TiB7.s:2420   .debug_str:0000000000000109 .LASF20
     /tmp/ccM6TiB7.s:2404   .debug_str:0000000000000087 .LASF21
     /tmp/ccM6TiB7.s:2514   .debug_str:000000000000040a .LASF22
     /tmp/ccM6TiB7.s:2454   .debug_str:00000000000001bf .LASF23
     /tmp/ccM6TiB7.s:2500   .debug_str:000000000000030c .LASF24
     /tmp/ccM6TiB7.s:2398   .debug_str:0000000000000060 .LASF25
     /tmp/ccM6TiB7.s:2442   .debug_str:0000000000000186 .LASF26
     /tmp/ccM6TiB7.s:2392   .debug_str:0000000000000044 .LASF27
     /tmp/ccM6TiB7.s:2526   .debug_str:0000000000000442 .LASF28
     /tmp/ccM6TiB7.s:2380   .debug_str:0000000000000000 .LASF29
     /tmp/ccM6TiB7.s:2424   .debug_str:0000000000000127 .LASF30
     /tmp/ccM6TiB7.s:2430   .debug_str:0000000000000149 .LASF31
     /tmp/ccM6TiB7.s:2460   .debug_str:00000000000001e5 .LASF48
     /tmp/ccM6TiB7.s:2432   .debug_str:000000000000014e .LASF50
     /tmp/ccM6TiB7.s:631    .text:0000000000000370 .LFB12
     /tmp/ccM6TiB7.s:663    .text:00000000000003ac .LFE12
     /tmp/ccM6TiB7.s:2079   .debug_loc:0000000000000000 .LLST14
     /tmp/ccM6TiB7.s:652    .text:000000000000039c .LVL54
     /tmp/ccM6TiB7.s:2476   .debug_str:0000000000000255 .LASF32
     /tmp/ccM6TiB7.s:2384   .debug_str:0000000000000019 .LASF34
     /tmp/ccM6TiB7.s:2390   .debug_str:000000000000003b .LASF36
     /tmp/ccM6TiB7.s:584    .text:000000000000032c .LFB11
     /tmp/ccM6TiB7.s:625    .text:0000000000000370 .LFE11
     /tmp/ccM6TiB7.s:2518   .debug_str:0000000000000423 .LASF33
     /tmp/ccM6TiB7.s:603    .text:0000000000000358 .LVL50
     /tmp/ccM6TiB7.s:2414   .debug_str:00000000000000e7 .LASF35
     /tmp/ccM6TiB7.s:2494   .debug_str:00000000000002dc .LASF37
     /tmp/ccM6TiB7.s:535    .text:00000000000002e8 .LFB10
     /tmp/ccM6TiB7.s:578    .text:000000000000032c .LFE10
     /tmp/ccM6TiB7.s:2093   .debug_loc:0000000000000039 .LLST13
     /tmp/ccM6TiB7.s:556    .text:0000000000000314 .LVL48
     /tmp/ccM6TiB7.s:2512   .debug_str:00000000000003fe .LASF38
     /tmp/ccM6TiB7.s:2438   .debug_str:000000000000016c .LASF39
     /tmp/ccM6TiB7.s:486    .text:00000000000002a4 .LFB9
     /tmp/ccM6TiB7.s:529    .text:00000000000002e8 .LFE9
     /tmp/ccM6TiB7.s:2111   .debug_loc:0000000000000085 .LLST12
     /tmp/ccM6TiB7.s:507    .text:00000000000002d0 .LVL44
     /tmp/ccM6TiB7.s:2406   .debug_str:0000000000000097 .LASF40
     /tmp/ccM6TiB7.s:2386   .debug_str:000000000000001e .LASF41
     /tmp/ccM6TiB7.s:437    .text:0000000000000260 .LFB8
     /tmp/ccM6TiB7.s:480    .text:00000000000002a4 .LFE8
     /tmp/ccM6TiB7.s:2129   .debug_loc:00000000000000d1 .LLST11
     /tmp/ccM6TiB7.s:458    .text:000000000000028c .LVL40
     /tmp/ccM6TiB7.s:2452   .debug_str:00000000000001b5 .LASF42
     /tmp/ccM6TiB7.s:2422   .debug_str:0000000000000115 .LASF43
     /tmp/ccM6TiB7.s:388    .text:000000000000021c .LFB7
     /tmp/ccM6TiB7.s:431    .text:0000000000000260 .LFE7
     /tmp/ccM6TiB7.s:2504   .debug_str:000000000000031f .LASF44
     /tmp/ccM6TiB7.s:2147   .debug_loc:000000000000011d .LLST10
     /tmp/ccM6TiB7.s:409    .text:0000000000000248 .LVL36
     /tmp/ccM6TiB7.s:2428   .debug_str:0000000000000140 .LASF45
GAS LISTING /tmp/ccM6TiB7.s 			page 21


     /tmp/ccM6TiB7.s:2426   .debug_str:000000000000012d .LASF46
     /tmp/ccM6TiB7.s:337    .text:00000000000001d4 .LFB6
     /tmp/ccM6TiB7.s:382    .text:000000000000021c .LFE6
     /tmp/ccM6TiB7.s:2165   .debug_loc:0000000000000169 .LLST8
     /tmp/ccM6TiB7.s:2478   .debug_str:000000000000025a .LASF47
     /tmp/ccM6TiB7.s:2183   .debug_loc:00000000000001b5 .LLST9
     /tmp/ccM6TiB7.s:360    .text:0000000000000204 .LVL32
     /tmp/ccM6TiB7.s:2434   .debug_str:0000000000000157 .LASF49
     /tmp/ccM6TiB7.s:2486   .debug_str:00000000000002a0 .LASF51
     /tmp/ccM6TiB7.s:301    .text:0000000000000198 .LFB5
     /tmp/ccM6TiB7.s:331    .text:00000000000001d4 .LFE5
     /tmp/ccM6TiB7.s:320    .text:00000000000001c4 .LVL28
     /tmp/ccM6TiB7.s:2388   .debug_str:000000000000002f .LASF52
     /tmp/ccM6TiB7.s:2470   .debug_str:0000000000000225 .LASF53
     /tmp/ccM6TiB7.s:254    .text:0000000000000154 .LFB4
     /tmp/ccM6TiB7.s:295    .text:0000000000000198 .LFE4
     /tmp/ccM6TiB7.s:273    .text:0000000000000180 .LVL26
     /tmp/ccM6TiB7.s:2416   .debug_str:00000000000000f2 .LASF54
     /tmp/ccM6TiB7.s:2480   .debug_str:000000000000025f .LASF55
     /tmp/ccM6TiB7.s:159    .text:00000000000000c8 .LFB3
     /tmp/ccM6TiB7.s:248    .text:0000000000000154 .LFE3
     /tmp/ccM6TiB7.s:2197   .debug_loc:00000000000001ee .LLST4
     /tmp/ccM6TiB7.s:2446   .debug_str:00000000000001a0 .LASF56
     /tmp/ccM6TiB7.s:2223   .debug_loc:0000000000000260 .LLST5
     /tmp/ccM6TiB7.s:2245   .debug_loc:00000000000002bf .LLST6
     /tmp/ccM6TiB7.s:2448   .debug_str:00000000000001a8 .LASF57
     /tmp/ccM6TiB7.s:2271   .debug_loc:0000000000000331 .LLST7
     /tmp/ccM6TiB7.s:189    .text:0000000000000100 .LVL15
     /tmp/ccM6TiB7.s:203    .text:0000000000000120 .LVL18
     /tmp/ccM6TiB7.s:2418   .debug_str:0000000000000100 .LASF58
     /tmp/ccM6TiB7.s:2524   .debug_str:0000000000000434 .LASF59
     /tmp/ccM6TiB7.s:108    .text:000000000000007c .LFB2
     /tmp/ccM6TiB7.s:153    .text:00000000000000c8 .LFE2
     /tmp/ccM6TiB7.s:2300   .debug_loc:00000000000003b5 .LLST3
     /tmp/ccM6TiB7.s:129    .text:00000000000000a8 .LVL11
     /tmp/ccM6TiB7.s:2498   .debug_str:0000000000000302 .LASF60
     /tmp/ccM6TiB7.s:2408   .debug_str:00000000000000a0 .LASF61
     /tmp/ccM6TiB7.s:42     .text:000000000000001c .LFB1
     /tmp/ccM6TiB7.s:102    .text:000000000000007c .LFE1
     /tmp/ccM6TiB7.s:2506   .debug_str:0000000000000326 .LASF62
     /tmp/ccM6TiB7.s:2318   .debug_loc:0000000000000401 .LLST0
     /tmp/ccM6TiB7.s:2343   .debug_loc:0000000000000463 .LLST1
     /tmp/ccM6TiB7.s:2474   .debug_str:0000000000000249 .LASF63
     /tmp/ccM6TiB7.s:2350   .debug_loc:0000000000000486 .LLST2
     /tmp/ccM6TiB7.s:75     .text:0000000000000060 .LVL5
     /tmp/ccM6TiB7.s:2466   .debug_str:000000000000020a .LASF72
     /tmp/ccM6TiB7.s:2400   .debug_str:000000000000006b .LASF73
     /tmp/ccM6TiB7.s:10     .text:0000000000000000 .LFB0
     /tmp/ccM6TiB7.s:36     .text:000000000000001c .LFE0
     /tmp/ccM6TiB7.s:2488   .debug_str:00000000000002b5 .LASF64
     /tmp/ccM6TiB7.s:2520   .debug_str:000000000000042a .LASF65
     /tmp/ccM6TiB7.s:2436   .debug_str:0000000000000167 .LASF66
     /tmp/ccM6TiB7.s:2522   .debug_str:000000000000042f .LASF67
     /tmp/ccM6TiB7.s:2440   .debug_str:0000000000000181 .LASF68
     /tmp/ccM6TiB7.s:634    .text:0000000000000370 .LVL52
     /tmp/ccM6TiB7.s:650    .text:0000000000000394 .LVL53
     /tmp/ccM6TiB7.s:538    .text:00000000000002e8 .LVL46
GAS LISTING /tmp/ccM6TiB7.s 			page 22


     /tmp/ccM6TiB7.s:554    .text:000000000000030c .LVL47
     /tmp/ccM6TiB7.s:489    .text:00000000000002a4 .LVL42
     /tmp/ccM6TiB7.s:505    .text:00000000000002c8 .LVL43
     /tmp/ccM6TiB7.s:440    .text:0000000000000260 .LVL38
     /tmp/ccM6TiB7.s:456    .text:0000000000000284 .LVL39
     /tmp/ccM6TiB7.s:391    .text:000000000000021c .LVL34
     /tmp/ccM6TiB7.s:407    .text:0000000000000240 .LVL35
     /tmp/ccM6TiB7.s:340    .text:00000000000001d4 .LVL29
     /tmp/ccM6TiB7.s:358    .text:00000000000001fc .LVL31
     /tmp/ccM6TiB7.s:356    .text:00000000000001f8 .LVL30
     /tmp/ccM6TiB7.s:162    .text:00000000000000c8 .LVL12
     /tmp/ccM6TiB7.s:187    .text:00000000000000f8 .LVL14
     /tmp/ccM6TiB7.s:228    .text:0000000000000138 .LVL21
     /tmp/ccM6TiB7.s:235    .text:0000000000000144 .LVL23
     /tmp/ccM6TiB7.s:241    .text:000000000000014c .LVL24
     /tmp/ccM6TiB7.s:225    .text:0000000000000134 .LVL20
     /tmp/ccM6TiB7.s:231    .text:000000000000013c .LVL22
     /tmp/ccM6TiB7.s:181    .text:00000000000000f0 .LVL13
     /tmp/ccM6TiB7.s:191    .text:0000000000000104 .LVL16
     /tmp/ccM6TiB7.s:194    .text:0000000000000108 .LVL17
     /tmp/ccM6TiB7.s:245    .text:0000000000000150 .LVL25
     /tmp/ccM6TiB7.s:111    .text:000000000000007c .LVL9
     /tmp/ccM6TiB7.s:127    .text:00000000000000a0 .LVL10
     /tmp/ccM6TiB7.s:45     .text:000000000000001c .LVL1
     /tmp/ccM6TiB7.s:63     .text:0000000000000040 .LVL2
     /tmp/ccM6TiB7.s:94     .text:0000000000000074 .LVL7
     /tmp/ccM6TiB7.s:98     .text:0000000000000078 .LVL8
     /tmp/ccM6TiB7.s:82     .text:0000000000000064 .LVL6
     /tmp/ccM6TiB7.s:65     .text:0000000000000044 .LVL3
     /tmp/ccM6TiB7.s:72     .text:0000000000000054 .LVL4
     /tmp/ccM6TiB7.s:669    .debug_info:0000000000000000 .Ldebug_info0

UNDEFINED SYMBOLS
_ZN15MemoryAllocator10DBlockSizeE
