GAS LISTING /tmp/ccD3XCSx.s 			page 1


   1              		.file	"syscallCpp.cpp"
   2              		.option pic
   3              		.option norelax
   4              		.text
   5              	.Ltext0:
   6              		.section	.text._ZN6Thread3runEv,"axG",@progbits,_ZN6Thread3runEv,comdat
   7              		.align	2
   8              		.weak	_ZN6Thread3runEv
  10              	_ZN6Thread3runEv:
  11              	.LFB0:
  12              		.file 1 "src/../h/syscallCpp.hpp"
   1:src/../h/syscallCpp.hpp **** #ifndef PROJECT_BASE_V1_1_SYSCALLCPP_HPP
   2:src/../h/syscallCpp.hpp **** #define PROJECT_BASE_V1_1_SYSCALLCPP_HPP
   3:src/../h/syscallCpp.hpp **** 
   4:src/../h/syscallCpp.hpp **** #include "syscallC.hpp"
   5:src/../h/syscallCpp.hpp **** 
   6:src/../h/syscallCpp.hpp **** class Thread {
   7:src/../h/syscallCpp.hpp **** 
   8:src/../h/syscallCpp.hpp **** public:
   9:src/../h/syscallCpp.hpp ****     Thread (void (*body)(void*), void* arg);
  10:src/../h/syscallCpp.hpp ****     virtual ~Thread();
  11:src/../h/syscallCpp.hpp ****     int start();
  12:src/../h/syscallCpp.hpp ****     static void dispatch ();
  13:src/../h/syscallCpp.hpp ****     static int sleep (time_t);
  14:src/../h/syscallCpp.hpp **** 
  15:src/../h/syscallCpp.hpp **** protected:
  16:src/../h/syscallCpp.hpp ****     Thread ();
  17:src/../h/syscallCpp.hpp ****     virtual void run () {};
  13              		.loc 1 17 18
  14              		.cfi_startproc
  15              	.LVL0:
  16 0000 130101FF 		addi	sp,sp,-16
  17              		.cfi_def_cfa_offset 16
  18 0004 23348100 		sd	s0,8(sp)
  19              		.cfi_offset 8, -8
  20 0008 13040101 		addi	s0,sp,16
  21              		.cfi_def_cfa 8, 0
  22              		.loc 1 17 26 is_stmt 0
  23 000c 03348100 		ld	s0,8(sp)
  24              		.cfi_restore 8
  25              		.cfi_def_cfa 2, 16
  26 0010 13010101 		addi	sp,sp,16
  27              		.cfi_def_cfa_offset 0
  28 0014 67800000 		jr	ra
  29              		.cfi_endproc
  30              	.LFE0:
  32              		.text
  33              		.align	2
  34              		.globl	_ZN6Thread7wrapperEPv
  36              	_ZN6Thread7wrapperEPv:
  37              	.LFB20:
  38              		.file 2 "src/syscallCpp.cpp"
   1:src/syscallCpp.cpp **** #include "../h/syscallCpp.hpp"
   2:src/syscallCpp.cpp **** #include "../h/tcb.hpp"
   3:src/syscallCpp.cpp **** 
   4:src/syscallCpp.cpp **** Thread::Thread(void (*body)(void*), void *arg) {
   5:src/syscallCpp.cpp ****     this->myHandle=nullptr;
GAS LISTING /tmp/ccD3XCSx.s 			page 2


   6:src/syscallCpp.cpp ****     this->body=body;
   7:src/syscallCpp.cpp ****     this->arg=arg;
   8:src/syscallCpp.cpp **** }
   9:src/syscallCpp.cpp **** 
  10:src/syscallCpp.cpp **** Thread::Thread() {
  11:src/syscallCpp.cpp ****     this->myHandle=nullptr;
  12:src/syscallCpp.cpp ****     this->body=wrapper;
  13:src/syscallCpp.cpp ****     this->arg=(void*)this;
  14:src/syscallCpp.cpp **** }
  15:src/syscallCpp.cpp **** 
  16:src/syscallCpp.cpp **** Thread::~Thread() {
  17:src/syscallCpp.cpp ****     delete myHandle;
  18:src/syscallCpp.cpp **** }
  19:src/syscallCpp.cpp **** 
  20:src/syscallCpp.cpp **** int Thread::start() {
  21:src/syscallCpp.cpp ****     return thread_create(&myHandle, this->body, this->arg);
  22:src/syscallCpp.cpp **** }
  23:src/syscallCpp.cpp **** 
  24:src/syscallCpp.cpp **** void Thread::dispatch() {
  25:src/syscallCpp.cpp ****     thread_dispatch();
  26:src/syscallCpp.cpp **** }
  27:src/syscallCpp.cpp **** 
  28:src/syscallCpp.cpp **** void Thread::wrapper(void *arg) {
  39              		.loc 2 28 33 is_stmt 1
  40              		.cfi_startproc
  41              	.LVL1:
  42 0000 130101FF 		addi	sp,sp,-16
  43              		.cfi_def_cfa_offset 16
  44 0004 23341100 		sd	ra,8(sp)
  45 0008 23308100 		sd	s0,0(sp)
  46              		.cfi_offset 1, -8
  47              		.cfi_offset 8, -16
  48 000c 13040101 		addi	s0,sp,16
  49              		.cfi_def_cfa 8, 0
  29:src/syscallCpp.cpp ****     Thread* thread=(Thread*)arg;
  50              		.loc 2 29 5
  51              	.LVL2:
  30:src/syscallCpp.cpp ****     thread->run();
  52              		.loc 2 30 5
  53              		.loc 2 30 17 is_stmt 0
  54 0010 83370500 		ld	a5,0(a0)
  55 0014 83B70701 		ld	a5,16(a5)
  56              		.loc 2 30 16
  57 0018 E7800700 		jalr	a5
  58              	.LVL3:
  31:src/syscallCpp.cpp **** }
  59              		.loc 2 31 1
  60 001c 83308100 		ld	ra,8(sp)
  61              		.cfi_restore 1
  62 0020 03340100 		ld	s0,0(sp)
  63              		.cfi_restore 8
  64              		.cfi_def_cfa 2, 16
  65 0024 13010101 		addi	sp,sp,16
  66              		.cfi_def_cfa_offset 0
  67 0028 67800000 		jr	ra
  68              		.cfi_endproc
  69              	.LFE20:
GAS LISTING /tmp/ccD3XCSx.s 			page 3


  71              		.align	2
  72              		.globl	_ZN6ThreadD2Ev
  74              	_ZN6ThreadD2Ev:
  75              	.LFB15:
  16:src/syscallCpp.cpp ****     delete myHandle;
  76              		.loc 2 16 1 is_stmt 1
  77              		.cfi_startproc
  78              		.cfi_personality 0x9b,DW.ref.__gxx_personality_v0
  79              		.cfi_lsda 0x1b,.LLSDA15
  80              	.LVL4:
  81 002c 130101FE 		addi	sp,sp,-32
  82              		.cfi_def_cfa_offset 32
  83 0030 233C1100 		sd	ra,24(sp)
  84 0034 23388100 		sd	s0,16(sp)
  85 0038 23349100 		sd	s1,8(sp)
  86              		.cfi_offset 1, -8
  87              		.cfi_offset 8, -16
  88              		.cfi_offset 9, -24
  89 003c 13040102 		addi	s0,sp,32
  90              		.cfi_def_cfa 8, 0
  91              	.LBB6:
  16:src/syscallCpp.cpp ****     delete myHandle;
  92              		.loc 2 16 17 is_stmt 0
  93 0040 97070000 		lla	a5,_ZTV6Thread+16
  93      93870700 
  94 0048 2330F500 		sd	a5,0(a0)
  17:src/syscallCpp.cpp **** }
  95              		.loc 2 17 5 is_stmt 1
  17:src/syscallCpp.cpp **** }
  96              		.loc 2 17 12 is_stmt 0
  97 004c 83348500 		ld	s1,8(a0)
  17:src/syscallCpp.cpp **** }
  98              		.loc 2 17 20
  99 0050 638E0400 		beqz	s1,.L5
 100              	.LVL5:
 101              	.LBB7:
 102              	.LBB8:
 103              		.file 3 "src/../h/tcb.hpp"
   1:src/../h/tcb.hpp **** #ifndef PROJECT_BASE_V1_1_TCB_HPP
   2:src/../h/tcb.hpp **** #define PROJECT_BASE_V1_1_TCB_HPP
   3:src/../h/tcb.hpp **** 
   4:src/../h/tcb.hpp **** #include "../lib/hw.h"
   5:src/../h/tcb.hpp **** #include "memoryAllocator.hpp"
   6:src/../h/tcb.hpp **** 
   7:src/../h/tcb.hpp **** using body=void(*)(void*);
   8:src/../h/tcb.hpp **** 
   9:src/../h/tcb.hpp **** class TCB{
  10:src/../h/tcb.hpp **** public:
  11:src/../h/tcb.hpp **** 
  12:src/../h/tcb.hpp ****     friend class Sem;
  13:src/../h/tcb.hpp ****     friend class Riscv;
  14:src/../h/tcb.hpp **** 
  15:src/../h/tcb.hpp ****     static int id;
  16:src/../h/tcb.hpp ****     static TCB* running;
  17:src/../h/tcb.hpp **** 
  18:src/../h/tcb.hpp ****     static int threadCreate(TCB** handle, body routine, void* arg, void* stack);
  19:src/../h/tcb.hpp ****     static int threadExit();
GAS LISTING /tmp/ccD3XCSx.s 			page 4


  20:src/../h/tcb.hpp ****     static void dispatch();
  21:src/../h/tcb.hpp ****     static void yield(TCB*, TCB*);
  22:src/../h/tcb.hpp **** 
  23:src/../h/tcb.hpp ****     bool getFinished() { return finished; }
  24:src/../h/tcb.hpp ****     void setFinished() { finished=true; }
  25:src/../h/tcb.hpp ****     bool getBlocked() { return blocked; }
  26:src/../h/tcb.hpp ****     void setBlocked() { blocked=true; }
  27:src/../h/tcb.hpp **** 
  28:src/../h/tcb.hpp ****     ~TCB() { MemoryAllocator::mem_free(this->stack); }
 104              		.loc 3 28 14 is_stmt 1
 105              		.loc 3 28 39 is_stmt 0
 106 0054 03B50401 		ld	a0,16(s1)
 107              	.LVL6:
 108 0058 97000000 		call	_ZN15MemoryAllocator8mem_freeEPv@plt
 108      E7800000 
 109              	.LVL7:
 110              	.LBE8:
 111              	.LBE7:
  17:src/syscallCpp.cpp **** }
 112              		.loc 2 17 12
 113 0060 13850400 		mv	a0,s1
 114 0064 97000000 		call	_ZN3TCBdlEPv@plt
 114      E7800000 
 115              	.LVL8:
 116              	.L5:
 117              	.LBE6:
  18:src/syscallCpp.cpp **** 
 118              		.loc 2 18 1
 119 006c 83308101 		ld	ra,24(sp)
 120              		.cfi_restore 1
 121 0070 03340101 		ld	s0,16(sp)
 122              		.cfi_restore 8
 123              		.cfi_def_cfa 2, 32
 124 0074 83348100 		ld	s1,8(sp)
 125              		.cfi_restore 9
 126 0078 13010102 		addi	sp,sp,32
 127              		.cfi_def_cfa_offset 0
 128 007c 67800000 		jr	ra
 129              		.cfi_endproc
 130              	.LFE15:
 131              		.globl	__gxx_personality_v0
 132              		.section	.gcc_except_table,"a",@progbits
 133              	.LLSDA15:
 134 0000 FF       		.byte	0xff
 135 0001 FF       		.byte	0xff
 136 0002 03       		.byte	0x3
 137 0003 00       		.byte	0
 138              		.text
 140              		.globl	_ZN6ThreadD1Ev
 141              		.set	_ZN6ThreadD1Ev,_ZN6ThreadD2Ev
 142              		.align	2
 143              		.globl	_ZN6ThreadD0Ev
 145              	_ZN6ThreadD0Ev:
 146              	.LFB17:
  16:src/syscallCpp.cpp ****     delete myHandle;
 147              		.loc 2 16 1 is_stmt 1
 148              		.cfi_startproc
GAS LISTING /tmp/ccD3XCSx.s 			page 5


 149              	.LVL9:
 150 0080 130101FE 		addi	sp,sp,-32
 151              		.cfi_def_cfa_offset 32
 152 0084 233C1100 		sd	ra,24(sp)
 153 0088 23388100 		sd	s0,16(sp)
 154 008c 23349100 		sd	s1,8(sp)
 155              		.cfi_offset 1, -8
 156              		.cfi_offset 8, -16
 157              		.cfi_offset 9, -24
 158 0090 13040102 		addi	s0,sp,32
 159              		.cfi_def_cfa 8, 0
 160 0094 93040500 		mv	s1,a0
  18:src/syscallCpp.cpp **** 
 161              		.loc 2 18 1 is_stmt 0
 162 0098 97000000 		call	_ZN6ThreadD1Ev
 162      E7800000 
 163              	.LVL10:
 164 00a0 13850400 		mv	a0,s1
 165 00a4 97000000 		call	_ZdlPv@plt
 165      E7800000 
 166              	.LVL11:
 167 00ac 83308101 		ld	ra,24(sp)
 168              		.cfi_restore 1
 169 00b0 03340101 		ld	s0,16(sp)
 170              		.cfi_restore 8
 171              		.cfi_def_cfa 2, 32
 172 00b4 83348100 		ld	s1,8(sp)
 173              		.cfi_restore 9
 174              	.LVL12:
 175 00b8 13010102 		addi	sp,sp,32
 176              		.cfi_def_cfa_offset 0
 177 00bc 67800000 		jr	ra
 178              		.cfi_endproc
 179              	.LFE17:
 181              		.align	2
 182              		.globl	_ZN9SemaphoreD2Ev
 184              	_ZN9SemaphoreD2Ev:
 185              	.LFB25:
  32:src/syscallCpp.cpp **** 
  33:src/syscallCpp.cpp **** Semaphore::Semaphore(unsigned int init) {
  34:src/syscallCpp.cpp ****     sem_open(&myHandle, init);
  35:src/syscallCpp.cpp **** }
  36:src/syscallCpp.cpp **** 
  37:src/syscallCpp.cpp **** Semaphore::~Semaphore() {
 186              		.loc 2 37 1 is_stmt 1
 187              		.cfi_startproc
 188              		.cfi_personality 0x9b,DW.ref.__gxx_personality_v0
 189              		.cfi_lsda 0x1b,.LLSDA25
 190              	.LVL13:
 191 00c0 130101FF 		addi	sp,sp,-16
 192              		.cfi_def_cfa_offset 16
 193 00c4 23341100 		sd	ra,8(sp)
 194 00c8 23308100 		sd	s0,0(sp)
 195              		.cfi_offset 1, -8
 196              		.cfi_offset 8, -16
 197 00cc 13040101 		addi	s0,sp,16
 198              		.cfi_def_cfa 8, 0
GAS LISTING /tmp/ccD3XCSx.s 			page 6


 199              	.LBB9:
 200              		.loc 2 37 23 is_stmt 0
 201 00d0 97070000 		lla	a5,_ZTV9Semaphore+16
 201      93870700 
 202 00d8 2330F500 		sd	a5,0(a0)
  38:src/syscallCpp.cpp ****     sem_close(myHandle);
 203              		.loc 2 38 5 is_stmt 1
 204              		.loc 2 38 14 is_stmt 0
 205 00dc 03358500 		ld	a0,8(a0)
 206              	.LVL14:
 207 00e0 97000000 		call	_Z9sem_closeP3Sem@plt
 207      E7800000 
 208              	.LVL15:
 209              	.LBE9:
  39:src/syscallCpp.cpp **** }
 210              		.loc 2 39 1
 211 00e8 83308100 		ld	ra,8(sp)
 212              		.cfi_restore 1
 213 00ec 03340100 		ld	s0,0(sp)
 214              		.cfi_restore 8
 215              		.cfi_def_cfa 2, 16
 216 00f0 13010101 		addi	sp,sp,16
 217              		.cfi_def_cfa_offset 0
 218 00f4 67800000 		jr	ra
 219              		.cfi_endproc
 220              	.LFE25:
 221              		.section	.gcc_except_table
 222              	.LLSDA25:
 223 0004 FF       		.byte	0xff
 224 0005 FF       		.byte	0xff
 225 0006 03       		.byte	0x3
 226 0007 00       		.byte	0
 227              		.text
 229              		.globl	_ZN9SemaphoreD1Ev
 230              		.set	_ZN9SemaphoreD1Ev,_ZN9SemaphoreD2Ev
 231              		.align	2
 232              		.globl	_ZN9SemaphoreD0Ev
 234              	_ZN9SemaphoreD0Ev:
 235              	.LFB27:
  37:src/syscallCpp.cpp ****     sem_close(myHandle);
 236              		.loc 2 37 1 is_stmt 1
 237              		.cfi_startproc
 238              	.LVL16:
 239 00f8 130101FE 		addi	sp,sp,-32
 240              		.cfi_def_cfa_offset 32
 241 00fc 233C1100 		sd	ra,24(sp)
 242 0100 23388100 		sd	s0,16(sp)
 243 0104 23349100 		sd	s1,8(sp)
 244              		.cfi_offset 1, -8
 245              		.cfi_offset 8, -16
 246              		.cfi_offset 9, -24
 247 0108 13040102 		addi	s0,sp,32
 248              		.cfi_def_cfa 8, 0
 249 010c 93040500 		mv	s1,a0
 250              		.loc 2 39 1 is_stmt 0
 251 0110 97000000 		call	_ZN9SemaphoreD1Ev
 251      E7800000 
GAS LISTING /tmp/ccD3XCSx.s 			page 7


 252              	.LVL17:
 253 0118 13850400 		mv	a0,s1
 254 011c 97000000 		call	_ZdlPv@plt
 254      E7800000 
 255              	.LVL18:
 256 0124 83308101 		ld	ra,24(sp)
 257              		.cfi_restore 1
 258 0128 03340101 		ld	s0,16(sp)
 259              		.cfi_restore 8
 260              		.cfi_def_cfa 2, 32
 261 012c 83348100 		ld	s1,8(sp)
 262              		.cfi_restore 9
 263              	.LVL19:
 264 0130 13010102 		addi	sp,sp,32
 265              		.cfi_def_cfa_offset 0
 266 0134 67800000 		jr	ra
 267              		.cfi_endproc
 268              	.LFE27:
 270              		.align	2
 271              		.globl	_ZN6ThreadC2EPFvPvES0_
 273              	_ZN6ThreadC2EPFvPvES0_:
 274              	.LFB9:
   4:src/syscallCpp.cpp ****     this->myHandle=nullptr;
 275              		.loc 2 4 1 is_stmt 1
 276              		.cfi_startproc
 277              	.LVL20:
 278 0138 130101FF 		addi	sp,sp,-16
 279              		.cfi_def_cfa_offset 16
 280 013c 23348100 		sd	s0,8(sp)
 281              		.cfi_offset 8, -8
 282 0140 13040101 		addi	s0,sp,16
 283              		.cfi_def_cfa 8, 0
 284              	.LBB10:
   4:src/syscallCpp.cpp ****     this->myHandle=nullptr;
 285              		.loc 2 4 46 is_stmt 0
 286 0144 97070000 		lla	a5,_ZTV6Thread+16
 286      93870700 
 287 014c 2330F500 		sd	a5,0(a0)
   5:src/syscallCpp.cpp ****     this->body=body;
 288              		.loc 2 5 5 is_stmt 1
   5:src/syscallCpp.cpp ****     this->body=body;
 289              		.loc 2 5 19 is_stmt 0
 290 0150 23340500 		sd	zero,8(a0)
   6:src/syscallCpp.cpp ****     this->arg=arg;
 291              		.loc 2 6 5 is_stmt 1
   6:src/syscallCpp.cpp ****     this->arg=arg;
 292              		.loc 2 6 15 is_stmt 0
 293 0154 2338B500 		sd	a1,16(a0)
   7:src/syscallCpp.cpp **** }
 294              		.loc 2 7 5 is_stmt 1
   7:src/syscallCpp.cpp **** }
 295              		.loc 2 7 14 is_stmt 0
 296 0158 233CC500 		sd	a2,24(a0)
 297              	.LBE10:
   8:src/syscallCpp.cpp **** 
 298              		.loc 2 8 1
 299 015c 03348100 		ld	s0,8(sp)
GAS LISTING /tmp/ccD3XCSx.s 			page 8


 300              		.cfi_restore 8
 301              		.cfi_def_cfa 2, 16
 302 0160 13010101 		addi	sp,sp,16
 303              		.cfi_def_cfa_offset 0
 304 0164 67800000 		jr	ra
 305              		.cfi_endproc
 306              	.LFE9:
 308              		.globl	_ZN6ThreadC1EPFvPvES0_
 309              		.set	_ZN6ThreadC1EPFvPvES0_,_ZN6ThreadC2EPFvPvES0_
 310              		.align	2
 311              		.globl	_ZN6ThreadC2Ev
 313              	_ZN6ThreadC2Ev:
 314              	.LFB12:
  10:src/syscallCpp.cpp ****     this->myHandle=nullptr;
 315              		.loc 2 10 1 is_stmt 1
 316              		.cfi_startproc
 317              	.LVL21:
 318 0168 130101FF 		addi	sp,sp,-16
 319              		.cfi_def_cfa_offset 16
 320 016c 23348100 		sd	s0,8(sp)
 321              		.cfi_offset 8, -8
 322 0170 13040101 		addi	s0,sp,16
 323              		.cfi_def_cfa 8, 0
 324              	.LBB11:
  10:src/syscallCpp.cpp ****     this->myHandle=nullptr;
 325              		.loc 2 10 16 is_stmt 0
 326 0174 97070000 		lla	a5,_ZTV6Thread+16
 326      93870700 
 327 017c 2330F500 		sd	a5,0(a0)
  11:src/syscallCpp.cpp ****     this->body=wrapper;
 328              		.loc 2 11 5 is_stmt 1
  11:src/syscallCpp.cpp ****     this->body=wrapper;
 329              		.loc 2 11 19 is_stmt 0
 330 0180 23340500 		sd	zero,8(a0)
  12:src/syscallCpp.cpp ****     this->arg=(void*)this;
 331              		.loc 2 12 5 is_stmt 1
  12:src/syscallCpp.cpp ****     this->arg=(void*)this;
 332              		.loc 2 12 15 is_stmt 0
 333 0184 97070000 		lla	a5,_ZN6Thread7wrapperEPv
 333      93870700 
 334 018c 2338F500 		sd	a5,16(a0)
  13:src/syscallCpp.cpp **** }
 335              		.loc 2 13 5 is_stmt 1
  13:src/syscallCpp.cpp **** }
 336              		.loc 2 13 14 is_stmt 0
 337 0190 233CA500 		sd	a0,24(a0)
 338              	.LBE11:
  14:src/syscallCpp.cpp **** 
 339              		.loc 2 14 1
 340 0194 03348100 		ld	s0,8(sp)
 341              		.cfi_restore 8
 342              		.cfi_def_cfa 2, 16
 343 0198 13010101 		addi	sp,sp,16
 344              		.cfi_def_cfa_offset 0
 345 019c 67800000 		jr	ra
 346              		.cfi_endproc
 347              	.LFE12:
GAS LISTING /tmp/ccD3XCSx.s 			page 9


 349              		.globl	_ZN6ThreadC1Ev
 350              		.set	_ZN6ThreadC1Ev,_ZN6ThreadC2Ev
 351              		.align	2
 352              		.globl	_ZN6Thread5startEv
 354              	_ZN6Thread5startEv:
 355              	.LFB18:
  20:src/syscallCpp.cpp ****     return thread_create(&myHandle, this->body, this->arg);
 356              		.loc 2 20 21 is_stmt 1
 357              		.cfi_startproc
 358              	.LVL22:
 359 01a0 130101FF 		addi	sp,sp,-16
 360              		.cfi_def_cfa_offset 16
 361 01a4 23341100 		sd	ra,8(sp)
 362 01a8 23308100 		sd	s0,0(sp)
 363              		.cfi_offset 1, -8
 364              		.cfi_offset 8, -16
 365 01ac 13040101 		addi	s0,sp,16
 366              		.cfi_def_cfa 8, 0
  21:src/syscallCpp.cpp **** }
 367              		.loc 2 21 5
  21:src/syscallCpp.cpp **** }
 368              		.loc 2 21 25 is_stmt 0
 369 01b0 03368501 		ld	a2,24(a0)
 370 01b4 83350501 		ld	a1,16(a0)
 371 01b8 13058500 		addi	a0,a0,8
 372              	.LVL23:
 373 01bc 97000000 		call	_Z13thread_createPP3TCBPFvPvES2_@plt
 373      E7800000 
 374              	.LVL24:
  22:src/syscallCpp.cpp **** 
 375              		.loc 2 22 1
 376 01c4 83308100 		ld	ra,8(sp)
 377              		.cfi_restore 1
 378 01c8 03340100 		ld	s0,0(sp)
 379              		.cfi_restore 8
 380              		.cfi_def_cfa 2, 16
 381 01cc 13010101 		addi	sp,sp,16
 382              		.cfi_def_cfa_offset 0
 383 01d0 67800000 		jr	ra
 384              		.cfi_endproc
 385              	.LFE18:
 387              		.align	2
 388              		.globl	_ZN6Thread8dispatchEv
 390              	_ZN6Thread8dispatchEv:
 391              	.LFB19:
  24:src/syscallCpp.cpp ****     thread_dispatch();
 392              		.loc 2 24 25 is_stmt 1
 393              		.cfi_startproc
 394 01d4 130101FF 		addi	sp,sp,-16
 395              		.cfi_def_cfa_offset 16
 396 01d8 23341100 		sd	ra,8(sp)
 397 01dc 23308100 		sd	s0,0(sp)
 398              		.cfi_offset 1, -8
 399              		.cfi_offset 8, -16
 400 01e0 13040101 		addi	s0,sp,16
 401              		.cfi_def_cfa 8, 0
  25:src/syscallCpp.cpp **** }
GAS LISTING /tmp/ccD3XCSx.s 			page 10


 402              		.loc 2 25 5
  25:src/syscallCpp.cpp **** }
 403              		.loc 2 25 20 is_stmt 0
 404 01e4 97000000 		call	_Z15thread_dispatchv@plt
 404      E7800000 
 405              	.LVL25:
  26:src/syscallCpp.cpp **** 
 406              		.loc 2 26 1
 407 01ec 83308100 		ld	ra,8(sp)
 408              		.cfi_restore 1
 409 01f0 03340100 		ld	s0,0(sp)
 410              		.cfi_restore 8
 411              		.cfi_def_cfa 2, 16
 412 01f4 13010101 		addi	sp,sp,16
 413              		.cfi_def_cfa_offset 0
 414 01f8 67800000 		jr	ra
 415              		.cfi_endproc
 416              	.LFE19:
 418              		.align	2
 419              		.globl	_ZN9SemaphoreC2Ej
 421              	_ZN9SemaphoreC2Ej:
 422              	.LFB22:
  33:src/syscallCpp.cpp ****     sem_open(&myHandle, init);
 423              		.loc 2 33 1 is_stmt 1
 424              		.cfi_startproc
 425              	.LVL26:
 426 01fc 130101FF 		addi	sp,sp,-16
 427              		.cfi_def_cfa_offset 16
 428 0200 23341100 		sd	ra,8(sp)
 429 0204 23308100 		sd	s0,0(sp)
 430              		.cfi_offset 1, -8
 431              		.cfi_offset 8, -16
 432 0208 13040101 		addi	s0,sp,16
 433              		.cfi_def_cfa 8, 0
 434              	.LBB12:
  33:src/syscallCpp.cpp ****     sem_open(&myHandle, init);
 435              		.loc 2 33 39 is_stmt 0
 436 020c 97070000 		lla	a5,_ZTV9Semaphore+16
 436      93870700 
 437 0214 2330F500 		sd	a5,0(a0)
  34:src/syscallCpp.cpp **** }
 438              		.loc 2 34 5 is_stmt 1
  34:src/syscallCpp.cpp **** }
 439              		.loc 2 34 13 is_stmt 0
 440 0218 13058500 		addi	a0,a0,8
 441              	.LVL27:
 442 021c 97000000 		call	_Z8sem_openPP3Semj@plt
 442      E7800000 
 443              	.LVL28:
 444              	.LBE12:
  35:src/syscallCpp.cpp **** 
 445              		.loc 2 35 1
 446 0224 83308100 		ld	ra,8(sp)
 447              		.cfi_restore 1
 448 0228 03340100 		ld	s0,0(sp)
 449              		.cfi_restore 8
 450              		.cfi_def_cfa 2, 16
GAS LISTING /tmp/ccD3XCSx.s 			page 11


 451 022c 13010101 		addi	sp,sp,16
 452              		.cfi_def_cfa_offset 0
 453 0230 67800000 		jr	ra
 454              		.cfi_endproc
 455              	.LFE22:
 457              		.globl	_ZN9SemaphoreC1Ej
 458              		.set	_ZN9SemaphoreC1Ej,_ZN9SemaphoreC2Ej
 459              		.align	2
 460              		.globl	_ZN9Semaphore4waitEv
 462              	_ZN9Semaphore4waitEv:
 463              	.LFB28:
  40:src/syscallCpp.cpp **** 
  41:src/syscallCpp.cpp **** int Semaphore::wait() {
 464              		.loc 2 41 23 is_stmt 1
 465              		.cfi_startproc
 466              	.LVL29:
 467 0234 130101FF 		addi	sp,sp,-16
 468              		.cfi_def_cfa_offset 16
 469 0238 23341100 		sd	ra,8(sp)
 470 023c 23308100 		sd	s0,0(sp)
 471              		.cfi_offset 1, -8
 472              		.cfi_offset 8, -16
 473 0240 13040101 		addi	s0,sp,16
 474              		.cfi_def_cfa 8, 0
  42:src/syscallCpp.cpp ****     return sem_wait(myHandle);
 475              		.loc 2 42 5
 476              		.loc 2 42 20 is_stmt 0
 477 0244 03358500 		ld	a0,8(a0)
 478              	.LVL30:
 479 0248 97000000 		call	_Z8sem_waitP3Sem@plt
 479      E7800000 
 480              	.LVL31:
  43:src/syscallCpp.cpp **** }
 481              		.loc 2 43 1
 482 0250 83308100 		ld	ra,8(sp)
 483              		.cfi_restore 1
 484 0254 03340100 		ld	s0,0(sp)
 485              		.cfi_restore 8
 486              		.cfi_def_cfa 2, 16
 487 0258 13010101 		addi	sp,sp,16
 488              		.cfi_def_cfa_offset 0
 489 025c 67800000 		jr	ra
 490              		.cfi_endproc
 491              	.LFE28:
 493              		.align	2
 494              		.globl	_ZN9Semaphore6signalEv
 496              	_ZN9Semaphore6signalEv:
 497              	.LFB29:
  44:src/syscallCpp.cpp **** 
  45:src/syscallCpp.cpp **** int Semaphore::signal() {
 498              		.loc 2 45 25 is_stmt 1
 499              		.cfi_startproc
 500              	.LVL32:
 501 0260 130101FF 		addi	sp,sp,-16
 502              		.cfi_def_cfa_offset 16
 503 0264 23341100 		sd	ra,8(sp)
 504 0268 23308100 		sd	s0,0(sp)
GAS LISTING /tmp/ccD3XCSx.s 			page 12


 505              		.cfi_offset 1, -8
 506              		.cfi_offset 8, -16
 507 026c 13040101 		addi	s0,sp,16
 508              		.cfi_def_cfa 8, 0
  46:src/syscallCpp.cpp ****     return sem_signal(myHandle);
 509              		.loc 2 46 5
 510              		.loc 2 46 22 is_stmt 0
 511 0270 03358500 		ld	a0,8(a0)
 512              	.LVL33:
 513 0274 97000000 		call	_Z10sem_signalP3Sem@plt
 513      E7800000 
 514              	.LVL34:
  47:src/syscallCpp.cpp **** }
 515              		.loc 2 47 1
 516 027c 83308100 		ld	ra,8(sp)
 517              		.cfi_restore 1
 518 0280 03340100 		ld	s0,0(sp)
 519              		.cfi_restore 8
 520              		.cfi_def_cfa 2, 16
 521 0284 13010101 		addi	sp,sp,16
 522              		.cfi_def_cfa_offset 0
 523 0288 67800000 		jr	ra
 524              		.cfi_endproc
 525              	.LFE29:
 527              		.align	2
 528              		.globl	_ZN9Semaphore7tryWaitEv
 530              	_ZN9Semaphore7tryWaitEv:
 531              	.LFB30:
  48:src/syscallCpp.cpp **** 
  49:src/syscallCpp.cpp **** int Semaphore::tryWait() {
 532              		.loc 2 49 26 is_stmt 1
 533              		.cfi_startproc
 534              	.LVL35:
 535 028c 130101FF 		addi	sp,sp,-16
 536              		.cfi_def_cfa_offset 16
 537 0290 23341100 		sd	ra,8(sp)
 538 0294 23308100 		sd	s0,0(sp)
 539              		.cfi_offset 1, -8
 540              		.cfi_offset 8, -16
 541 0298 13040101 		addi	s0,sp,16
 542              		.cfi_def_cfa 8, 0
  50:src/syscallCpp.cpp ****     return sem_trywait(myHandle);
 543              		.loc 2 50 5
 544              		.loc 2 50 23 is_stmt 0
 545 029c 03358500 		ld	a0,8(a0)
 546              	.LVL36:
 547 02a0 97000000 		call	_Z11sem_trywaitP3Sem@plt
 547      E7800000 
 548              	.LVL37:
  51:src/syscallCpp.cpp **** }
 549              		.loc 2 51 1
 550 02a8 83308100 		ld	ra,8(sp)
 551              		.cfi_restore 1
 552 02ac 03340100 		ld	s0,0(sp)
 553              		.cfi_restore 8
 554              		.cfi_def_cfa 2, 16
 555 02b0 13010101 		addi	sp,sp,16
GAS LISTING /tmp/ccD3XCSx.s 			page 13


 556              		.cfi_def_cfa_offset 0
 557 02b4 67800000 		jr	ra
 558              		.cfi_endproc
 559              	.LFE30:
 561              		.align	2
 562              		.globl	_ZN7Console4getcEv
 564              	_ZN7Console4getcEv:
 565              	.LFB31:
  52:src/syscallCpp.cpp **** 
  53:src/syscallCpp.cpp **** char Console::getc() {
 566              		.loc 2 53 22 is_stmt 1
 567              		.cfi_startproc
 568 02b8 130101FF 		addi	sp,sp,-16
 569              		.cfi_def_cfa_offset 16
 570 02bc 23341100 		sd	ra,8(sp)
 571 02c0 23308100 		sd	s0,0(sp)
 572              		.cfi_offset 1, -8
 573              		.cfi_offset 8, -16
 574 02c4 13040101 		addi	s0,sp,16
 575              		.cfi_def_cfa 8, 0
  54:src/syscallCpp.cpp ****     return ::getc();
 576              		.loc 2 54 5
 577              		.loc 2 54 18 is_stmt 0
 578 02c8 97000000 		call	_Z4getcv@plt
 578      E7800000 
 579              	.LVL38:
  55:src/syscallCpp.cpp **** }
 580              		.loc 2 55 1
 581 02d0 83308100 		ld	ra,8(sp)
 582              		.cfi_restore 1
 583 02d4 03340100 		ld	s0,0(sp)
 584              		.cfi_restore 8
 585              		.cfi_def_cfa 2, 16
 586 02d8 13010101 		addi	sp,sp,16
 587              		.cfi_def_cfa_offset 0
 588 02dc 67800000 		jr	ra
 589              		.cfi_endproc
 590              	.LFE31:
 592              		.align	2
 593              		.globl	_ZN7Console4putcEc
 595              	_ZN7Console4putcEc:
 596              	.LFB32:
  56:src/syscallCpp.cpp **** 
  57:src/syscallCpp.cpp **** void Console::putc(char c) {
 597              		.loc 2 57 28 is_stmt 1
 598              		.cfi_startproc
 599              	.LVL39:
 600 02e0 130101FF 		addi	sp,sp,-16
 601              		.cfi_def_cfa_offset 16
 602 02e4 23341100 		sd	ra,8(sp)
 603 02e8 23308100 		sd	s0,0(sp)
 604              		.cfi_offset 1, -8
 605              		.cfi_offset 8, -16
 606 02ec 13040101 		addi	s0,sp,16
 607              		.cfi_def_cfa 8, 0
  58:src/syscallCpp.cpp ****     ::putc(c);
 608              		.loc 2 58 5
GAS LISTING /tmp/ccD3XCSx.s 			page 14


 609              		.loc 2 58 11 is_stmt 0
 610 02f0 97000000 		call	_Z4putcc@plt
 610      E7800000 
 611              	.LVL40:
  59:src/syscallCpp.cpp **** }...
 612              		.loc 2 59 1
 613 02f8 83308100 		ld	ra,8(sp)
 614              		.cfi_restore 1
 615 02fc 03340100 		ld	s0,0(sp)
 616              		.cfi_restore 8
 617              		.cfi_def_cfa 2, 16
 618 0300 13010101 		addi	sp,sp,16
 619              		.cfi_def_cfa_offset 0
 620 0304 67800000 		jr	ra
 621              		.cfi_endproc
 622              	.LFE32:
 624              		.weak	_ZTV6Thread
 625              		.section	.data.rel.ro.local._ZTV6Thread,"awG",@progbits,_ZTV6Thread,comdat
 626              		.align	3
 629              	_ZTV6Thread:
 630 0000 00000000 		.dword	0
 630      00000000 
 631 0008 00000000 		.dword	0
 631      00000000 
 632 0010 00000000 		.dword	_ZN6ThreadD1Ev
 632      00000000 
 633 0018 00000000 		.dword	_ZN6ThreadD0Ev
 633      00000000 
 634 0020 00000000 		.dword	_ZN6Thread3runEv
 634      00000000 
 635              		.weak	_ZTV9Semaphore
 636              		.section	.data.rel.ro.local._ZTV9Semaphore,"awG",@progbits,_ZTV9Semaphore,comdat
 637              		.align	3
 640              	_ZTV9Semaphore:
 641 0000 00000000 		.dword	0
 641      00000000 
 642 0008 00000000 		.dword	0
 642      00000000 
 643 0010 00000000 		.dword	_ZN9SemaphoreD1Ev
 643      00000000 
 644 0018 00000000 		.dword	_ZN9SemaphoreD0Ev
 644      00000000 
 645              		.text
 646              	.Letext0:
 647              		.file 4 "src/../h/../lib/hw.h"
 648              		.file 5 "src/../h/syscallC.hpp"
 649              		.file 6 "src/../h/memoryAllocator.hpp"
 3845              		.align	3
 3848              	DW.ref.__gxx_personality_v0:
 3849 0000 00000000 		.dword	__gxx_personality_v0
 3849      00000000 
 3850              		.ident	"GCC: (Ubuntu 9.4.0-1ubuntu1~20.04) 9.4.0"
 3851              		.section	.note.GNU-stack,"",@progbits
GAS LISTING /tmp/ccD3XCSx.s 			page 15

