GAS LISTING /tmp/ccppmPx6.s 			page 1


   1              		.file	"tcb.cpp"
   2              		.option pic
   3              		.option norelax
   4              		.text
   5              	.Ltext0:
   6              		.align	2
   7              		.globl	_ZN3TCBC2EPFvPvES0_S0_
   9              	_ZN3TCBC2EPFvPvES0_S0_:
  10              	.LFB27:
  11              		.file 1 "src/tcb.cpp"
   1:src/tcb.cpp   **** #include "../h/tcb.hpp"
   2:src/tcb.cpp   **** #include "../h/riscv.hpp"
   3:src/tcb.cpp   **** #include "../h/scheduler.hpp"
   4:src/tcb.cpp   **** 
   5:src/tcb.cpp   **** TCB* TCB::running = nullptr;
   6:src/tcb.cpp   **** int TCB::id = 0;
   7:src/tcb.cpp   **** 
   8:src/tcb.cpp   **** TCB::TCB(body routine, void* arg, void * stack) : stack(routine!=nullptr ? new uint64[DEFAULT_STACK
  12              		.loc 1 8 1
  13              		.cfi_startproc
  14              	.LVL0:
  15 0000 130101FD 		addi	sp,sp,-48
  16              		.cfi_def_cfa_offset 48
  17 0004 23341102 		sd	ra,40(sp)
  18 0008 23308102 		sd	s0,32(sp)
  19 000c 233C9100 		sd	s1,24(sp)
  20 0010 23382101 		sd	s2,16(sp)
  21 0014 23343101 		sd	s3,8(sp)
  22              		.cfi_offset 1, -8
  23              		.cfi_offset 8, -16
  24              		.cfi_offset 9, -24
  25              		.cfi_offset 18, -32
  26              		.cfi_offset 19, -40
  27 0018 13040103 		addi	s0,sp,48
  28              		.cfi_def_cfa 8, 0
  29 001c 93040500 		mv	s1,a0
  30 0020 13890500 		mv	s2,a1
  31 0024 93090600 		mv	s3,a2
  32              	.LBB9:
  33              		.loc 1 8 74 is_stmt 0
  34 0028 638C0506 		beqz	a1,.L4
  35              		.loc 1 8 105 discriminator 1
  36 002c 37850000 		li	a0,32768
  37              	.LVL1:
  38 0030 97000000 		call	_Znam@plt
  38      E7800000 
  39              	.LVL2:
  40              	.L2:
  41              		.loc 1 8 116 discriminator 4
  42 0038 23B8A400 		sd	a0,16(s1)
   9:src/tcb.cpp   ****     this->context = {
  43              		.loc 1 9 5 is_stmt 1 discriminator 4
  10:src/tcb.cpp   ****             (uint64)&TCB::threadWrapper, //ra
  11:src/tcb.cpp   ****             routine == nullptr ? 0 : (uint64) &this->stack[ DEFAULT_STACK_SIZE ] //sp
  44              		.loc 1 11 32 is_stmt 0 discriminator 4
  45 003c 63060906 		beqz	s2,.L5
  46              		.loc 1 11 47 discriminator 1
GAS LISTING /tmp/ccppmPx6.s 			page 2


  47 0040 B7870000 		li	a5,32768
  48 0044 3305F500 		add	a0,a0,a5
  49              	.L3:
   9:src/tcb.cpp   ****     this->context = {
  50              		.loc 1 9 19
  51 0048 97070000 		lla	a5,_ZN3TCB13threadWrapperEv
  51      93870700 
  52 0050 23B0F402 		sd	a5,32(s1)
  53 0054 23B4A402 		sd	a0,40(s1)
  12:src/tcb.cpp   ****     };
  13:src/tcb.cpp   ****     this->routine=routine;
  54              		.loc 1 13 5 is_stmt 1
  55              		.loc 1 13 18 is_stmt 0
  56 0058 23B42401 		sd	s2,8(s1)
  14:src/tcb.cpp   ****     this->arg=arg;
  57              		.loc 1 14 5 is_stmt 1
  58              		.loc 1 14 14 is_stmt 0
  59 005c 23BC3401 		sd	s3,24(s1)
  15:src/tcb.cpp   ****     this->finished=false; //menja se u wrapperu
  60              		.loc 1 15 5 is_stmt 1
  61              		.loc 1 15 19 is_stmt 0
  62 0060 23880402 		sb	zero,48(s1)
  16:src/tcb.cpp   ****     this->blocked=false; //menja se u sem
  63              		.loc 1 16 5 is_stmt 1
  64              		.loc 1 16 18 is_stmt 0
  65 0064 A3880402 		sb	zero,49(s1)
  17:src/tcb.cpp   ****     this->threadID=++id;
  66              		.loc 1 17 5 is_stmt 1
  67              		.loc 1 17 20 is_stmt 0
  68 0068 17070000 		lla	a4,.LANCHOR0
  68      13070700 
  69 0070 83270700 		lw	a5,0(a4)
  70 0074 9B871700 		addiw	a5,a5,1
  71 0078 9B860700 		sext.w	a3,a5
  72              		.loc 1 17 19
  73 007c 2320F700 		sw	a5,0(a4)
  74 0080 23B0D400 		sd	a3,0(s1)
  75              	.LBE9:
  18:src/tcb.cpp   **** }
  76              		.loc 1 18 1
  77 0084 83308102 		ld	ra,40(sp)
  78              		.cfi_remember_state
  79              		.cfi_restore 1
  80 0088 03340102 		ld	s0,32(sp)
  81              		.cfi_restore 8
  82              		.cfi_def_cfa 2, 48
  83 008c 83348101 		ld	s1,24(sp)
  84              		.cfi_restore 9
  85              	.LVL3:
  86 0090 03390101 		ld	s2,16(sp)
  87              		.cfi_restore 18
  88              	.LVL4:
  89 0094 83398100 		ld	s3,8(sp)
  90              		.cfi_restore 19
  91              	.LVL5:
  92 0098 13010103 		addi	sp,sp,48
  93              		.cfi_def_cfa_offset 0
GAS LISTING /tmp/ccppmPx6.s 			page 3


  94 009c 67800000 		jr	ra
  95              	.LVL6:
  96              	.L4:
  97              		.cfi_restore_state
  98              	.LBB10:
   8:src/tcb.cpp   ****     this->context = {
  99              		.loc 1 8 74
 100 00a0 13050000 		li	a0,0
 101 00a4 6FF05FF9 		j	.L2
 102              	.LVL7:
 103              	.L5:
  11:src/tcb.cpp   ****     };
 104              		.loc 1 11 32
 105 00a8 13050000 		li	a0,0
 106 00ac 6FF0DFF9 		j	.L3
 107              	.LBE10:
 108              		.cfi_endproc
 109              	.LFE27:
 111              		.globl	_ZN3TCBC1EPFvPvES0_S0_
 112              		.set	_ZN3TCBC1EPFvPvES0_S0_,_ZN3TCBC2EPFvPvES0_S0_
 113              		.align	2
 114              		.globl	_ZN3TCB10threadExitEv
 116              	_ZN3TCB10threadExitEv:
 117              	.LFB30:
  19:src/tcb.cpp   **** 
  20:src/tcb.cpp   **** int TCB::threadCreate(TCB ** handle, body routine, void* arg, void* stack) { //handle je ADRESA ruc
  21:src/tcb.cpp   ****     *handle=new TCB(routine, arg, stack);
  22:src/tcb.cpp   ****     if(!*handle) return -1;
  23:src/tcb.cpp   ****     if(routine) Scheduler::put(*handle);
  24:src/tcb.cpp   ****     return 0;
  25:src/tcb.cpp   **** }
  26:src/tcb.cpp   **** 
  27:src/tcb.cpp   **** int TCB::threadExit() {
 118              		.loc 1 27 23 is_stmt 1
 119              		.cfi_startproc
  28:src/tcb.cpp   ****     if(!running || !running->getFinished()) return -1;
 120              		.loc 1 28 5
 121              		.loc 1 28 8 is_stmt 0
 122 00b0 97070000 		ld	a5,.LANCHOR0+8
 122      83B70700 
 123              		.loc 1 28 17
 124 00b8 638C0702 		beqz	a5,.L9
 125              	.LVL8:
 126              	.LBB11:
 127              	.LBB12:
 128              		.file 2 "src/../h/tcb.hpp"
   1:src/../h/tcb.hpp **** #ifndef PROJECT_BASE_V1_1_TCB_HPP
   2:src/../h/tcb.hpp **** #define PROJECT_BASE_V1_1_TCB_HPP
   3:src/../h/tcb.hpp **** 
   4:src/../h/tcb.hpp **** #include "../lib/hw.h"
   5:src/../h/tcb.hpp **** #include "memoryAllocator.hpp"
   6:src/../h/tcb.hpp **** 
   7:src/../h/tcb.hpp **** using body=void(*)(void*);
   8:src/../h/tcb.hpp **** 
   9:src/../h/tcb.hpp **** class TCB{
  10:src/../h/tcb.hpp **** public:
  11:src/../h/tcb.hpp **** 
GAS LISTING /tmp/ccppmPx6.s 			page 4


  12:src/../h/tcb.hpp ****     friend class Sem;
  13:src/../h/tcb.hpp ****     friend class Riscv;
  14:src/../h/tcb.hpp **** 
  15:src/../h/tcb.hpp ****     static int id;
  16:src/../h/tcb.hpp ****     static TCB* running;
  17:src/../h/tcb.hpp **** 
  18:src/../h/tcb.hpp ****     static int threadCreate(TCB** handle, body routine, void* arg, void* stack);
  19:src/../h/tcb.hpp ****     static int threadExit();
  20:src/../h/tcb.hpp ****     static void dispatch();
  21:src/../h/tcb.hpp ****     static void yield(TCB*, TCB*);
  22:src/../h/tcb.hpp **** 
  23:src/../h/tcb.hpp ****     bool getFinished() { return finished; }
 129              		.loc 2 23 26 is_stmt 1 discriminator 2
 130              		.loc 2 23 33 is_stmt 0 discriminator 2
 131 00bc 83C70703 		lbu	a5,48(a5)
 132              	.LVL9:
 133              	.LBE12:
 134              	.LBE11:
 135              		.loc 1 28 17 discriminator 2
 136 00c0 638C0702 		beqz	a5,.L10
  27:src/tcb.cpp   ****     if(!running || !running->getFinished()) return -1;
 137              		.loc 1 27 23
 138 00c4 130101FF 		addi	sp,sp,-16
 139              		.cfi_def_cfa_offset 16
 140 00c8 23341100 		sd	ra,8(sp)
 141 00cc 23308100 		sd	s0,0(sp)
 142              		.cfi_offset 1, -8
 143              		.cfi_offset 8, -16
 144 00d0 13040101 		addi	s0,sp,16
 145              		.cfi_def_cfa 8, 0
  29:src/tcb.cpp   ****     thread_dispatch();
 146              		.loc 1 29 5 is_stmt 1
 147              		.loc 1 29 20 is_stmt 0
 148 00d4 97000000 		call	_Z15thread_dispatchv@plt
 148      E7800000 
 149              	.LVL10:
  30:src/tcb.cpp   ****     return 0;
 150              		.loc 1 30 5 is_stmt 1
 151              		.loc 1 30 12 is_stmt 0
 152 00dc 13050000 		li	a0,0
  31:src/tcb.cpp   **** }
 153              		.loc 1 31 1
 154 00e0 83308100 		ld	ra,8(sp)
 155              		.cfi_restore 1
 156 00e4 03340100 		ld	s0,0(sp)
 157              		.cfi_restore 8
 158              		.cfi_def_cfa 2, 16
 159 00e8 13010101 		addi	sp,sp,16
 160              		.cfi_def_cfa_offset 0
 161 00ec 67800000 		jr	ra
 162              	.L9:
  28:src/tcb.cpp   ****     thread_dispatch();
 163              		.loc 1 28 53
 164 00f0 1305F0FF 		li	a0,-1
 165 00f4 67800000 		ret
 166              	.L10:
 167 00f8 1305F0FF 		li	a0,-1
GAS LISTING /tmp/ccppmPx6.s 			page 5


 168              		.loc 1 31 1
 169 00fc 67800000 		ret
 170              		.cfi_endproc
 171              	.LFE30:
 173              		.align	2
 174              		.globl	_ZN3TCB13threadWrapperEv
 176              	_ZN3TCB13threadWrapperEv:
 177              	.LFB31:
  32:src/tcb.cpp   **** 
  33:src/tcb.cpp   **** void TCB::threadWrapper() {
 178              		.loc 1 33 27 is_stmt 1
 179              		.cfi_startproc
 180 0100 130101FE 		addi	sp,sp,-32
 181              		.cfi_def_cfa_offset 32
 182 0104 233C1100 		sd	ra,24(sp)
 183 0108 23388100 		sd	s0,16(sp)
 184 010c 23349100 		sd	s1,8(sp)
 185              		.cfi_offset 1, -8
 186              		.cfi_offset 8, -16
 187              		.cfi_offset 9, -24
 188 0110 13040102 		addi	s0,sp,32
 189              		.cfi_def_cfa 8, 0
  34:src/tcb.cpp   ****     if (running->routine) {
 190              		.loc 1 34 5
 191              		.loc 1 34 18 is_stmt 0
 192 0114 97070000 		ld	a5,.LANCHOR0+8
 192      83B70700 
 193 011c 83B78700 		ld	a5,8(a5)
 194              		.loc 1 34 5
 195 0120 63880702 		beqz	a5,.L16
  35:src/tcb.cpp   ****         Riscv::popSppSpie();
 196              		.loc 1 35 9 is_stmt 1
 197              		.loc 1 35 26 is_stmt 0
 198 0124 97000000 		call	_ZN5Riscv10popSppSpieEv@plt
 198      E7800000 
 199              	.LVL11:
  36:src/tcb.cpp   ****         running->routine(running->arg);
 200              		.loc 1 36 9 is_stmt 1
 201              		.loc 1 36 18 is_stmt 0
 202 012c 97040000 		lla	s1,.LANCHOR0
 202      93840400 
 203 0134 83B78400 		ld	a5,8(s1)
 204 0138 03B78700 		ld	a4,8(a5)
 205              		.loc 1 36 25
 206 013c 03B58701 		ld	a0,24(a5)
 207 0140 E7000700 		jalr	a4
 208              	.LVL12:
  37:src/tcb.cpp   ****         running->setFinished();
 209              		.loc 1 37 9 is_stmt 1
 210              		.loc 1 37 29 is_stmt 0
 211 0144 83B78400 		ld	a5,8(s1)
 212              	.LVL13:
 213              	.LBB13:
 214              	.LBB14:
  24:src/../h/tcb.hpp ****     void setFinished() { finished=true; }
 215              		.loc 2 24 26 is_stmt 1
 216              		.loc 2 24 34 is_stmt 0
GAS LISTING /tmp/ccppmPx6.s 			page 6


 217 0148 13071000 		li	a4,1
 218 014c 2388E702 		sb	a4,48(a5)
 219              	.LVL14:
 220              	.L16:
 221              	.LBE14:
 222              	.LBE13:
  38:src/tcb.cpp   ****     }
  39:src/tcb.cpp   ****     TCB::threadExit();
 223              		.loc 1 39 5 is_stmt 1
 224              		.loc 1 39 20 is_stmt 0
 225 0150 97000000 		call	_ZN3TCB10threadExitEv
 225      E7800000 
 226              	.LVL15:
  40:src/tcb.cpp   **** }
 227              		.loc 1 40 1
 228 0158 83308101 		ld	ra,24(sp)
 229              		.cfi_restore 1
 230 015c 03340101 		ld	s0,16(sp)
 231              		.cfi_restore 8
 232              		.cfi_def_cfa 2, 32
 233 0160 83348100 		ld	s1,8(sp)
 234              		.cfi_restore 9
 235 0164 13010102 		addi	sp,sp,32
 236              		.cfi_def_cfa_offset 0
 237 0168 67800000 		jr	ra
 238              		.cfi_endproc
 239              	.LFE31:
 241              		.align	2
 242              		.globl	_ZN3TCB5yieldEPS_S0_
 244              	_ZN3TCB5yieldEPS_S0_:
 245              	.LFB33:
  41:src/tcb.cpp   **** 
  42:src/tcb.cpp   **** void TCB::dispatch(){
  43:src/tcb.cpp   ****     TCB *oldRunning=running;
  44:src/tcb.cpp   ****     if (!running->finished && !running->blocked) {
  45:src/tcb.cpp   ****         Scheduler::put(oldRunning);
  46:src/tcb.cpp   ****     }
  47:src/tcb.cpp   ****     if (running->finished) delete running;
  48:src/tcb.cpp   ****     running=Scheduler::get();
  49:src/tcb.cpp   ****     if(oldRunning!=running) yield(oldRunning, running);
  50:src/tcb.cpp   **** }
  51:src/tcb.cpp   **** 
  52:src/tcb.cpp   **** void TCB::yield(TCB* oldRunning, TCB* newRunning) {
 246              		.loc 1 52 51 is_stmt 1
 247              		.cfi_startproc
 248              	.LVL16:
 249 016c 130101FE 		addi	sp,sp,-32
 250              		.cfi_def_cfa_offset 32
 251 0170 233C1100 		sd	ra,24(sp)
 252 0174 23388100 		sd	s0,16(sp)
 253 0178 23349100 		sd	s1,8(sp)
 254              		.cfi_offset 1, -8
 255              		.cfi_offset 8, -16
 256              		.cfi_offset 9, -24
 257 017c 13040102 		addi	s0,sp,32
 258              		.cfi_def_cfa 8, 0
 259 0180 93040500 		mv	s1,a0
GAS LISTING /tmp/ccppmPx6.s 			page 7


  53:src/tcb.cpp   **** 
  54:src/tcb.cpp   ****     Riscv::push();
 260              		.loc 1 54 5
 261              		.loc 1 54 16 is_stmt 0
 262 0184 97000000 		call	_ZN5Riscv4pushEv@plt
 262      E7800000 
 263              	.LVL17:
  55:src/tcb.cpp   ****     contextSwitch(&oldRunning->context, &running->context);
 264              		.loc 1 55 5 is_stmt 1
 265              		.loc 1 55 18 is_stmt 0
 266 018c 97050000 		ld	a1,.LANCHOR0+8
 266      83B50500 
 267 0194 93850502 		addi	a1,a1,32
 268 0198 13850402 		addi	a0,s1,32
 269 019c 97000000 		call	_ZN3TCB13contextSwitchEPNS_7ContextES1_@plt
 269      E7800000 
 270              	.LVL18:
  56:src/tcb.cpp   ****     Riscv::pop();
 271              		.loc 1 56 5 is_stmt 1
 272              		.loc 1 56 15 is_stmt 0
 273 01a4 97000000 		call	_ZN5Riscv3popEv@plt
 273      E7800000 
 274              	.LVL19:
  57:src/tcb.cpp   **** }
 275              		.loc 1 57 1
 276 01ac 83308101 		ld	ra,24(sp)
 277              		.cfi_restore 1
 278 01b0 03340101 		ld	s0,16(sp)
 279              		.cfi_restore 8
 280              		.cfi_def_cfa 2, 32
 281 01b4 83348100 		ld	s1,8(sp)
 282              		.cfi_restore 9
 283              	.LVL20:
 284 01b8 13010102 		addi	sp,sp,32
 285              		.cfi_def_cfa_offset 0
 286 01bc 67800000 		jr	ra
 287              		.cfi_endproc
 288              	.LFE33:
 290              		.align	2
 291              		.globl	_ZN3TCBnwEm
 293              	_ZN3TCBnwEm:
 294              	.LFB34:
  58:src/tcb.cpp   **** 
  59:src/tcb.cpp   **** void *TCB::operator new(size_t size) {
 295              		.loc 1 59 38 is_stmt 1
 296              		.cfi_startproc
 297              	.LVL21:
 298 01c0 130101FF 		addi	sp,sp,-16
 299              		.cfi_def_cfa_offset 16
 300 01c4 23341100 		sd	ra,8(sp)
 301 01c8 23308100 		sd	s0,0(sp)
 302              		.cfi_offset 1, -8
 303              		.cfi_offset 8, -16
 304 01cc 13040101 		addi	s0,sp,16
 305              		.cfi_def_cfa 8, 0
  60:src/tcb.cpp   ****     size_t numOfBlocks=ROUNDUP((size+MemoryAllocator::DBlockSize))/MEM_BLOCK_SIZE;
 306              		.loc 1 60 5
GAS LISTING /tmp/ccppmPx6.s 			page 8


 307              		.loc 1 60 24 is_stmt 0
 308 01d0 97070000 		la	a5,_ZN15MemoryAllocator10DBlockSizeE
 308      83B70700 
 309 01d8 83B70700 		ld	a5,0(a5)
 310 01dc 3385A700 		add	a0,a5,a0
 311              	.LVL22:
 312 01e0 1305F503 		addi	a0,a0,63
 313              	.LVL23:
  61:src/tcb.cpp   ****     return MemoryAllocator::mem_alloc(numOfBlocks);
 314              		.loc 1 61 5 is_stmt 1
 315              		.loc 1 61 38 is_stmt 0
 316 01e4 13556500 		srli	a0,a0,6
 317              	.LVL24:
 318 01e8 97000000 		call	_ZN15MemoryAllocator9mem_allocEm@plt
 318      E7800000 
 319              	.LVL25:
  62:src/tcb.cpp   **** }
 320              		.loc 1 62 1
 321 01f0 83308100 		ld	ra,8(sp)
 322              		.cfi_restore 1
 323 01f4 03340100 		ld	s0,0(sp)
 324              		.cfi_restore 8
 325              		.cfi_def_cfa 2, 16
 326 01f8 13010101 		addi	sp,sp,16
 327              		.cfi_def_cfa_offset 0
 328 01fc 67800000 		jr	ra
 329              		.cfi_endproc
 330              	.LFE34:
 332              		.align	2
 333              		.globl	_ZN3TCBdlEPv
 335              	_ZN3TCBdlEPv:
 336              	.LFB35:
  63:src/tcb.cpp   **** 
  64:src/tcb.cpp   **** void TCB::operator delete(void *ptr) {
 337              		.loc 1 64 38 is_stmt 1
 338              		.cfi_startproc
 339              	.LVL26:
 340 0200 130101FF 		addi	sp,sp,-16
 341              		.cfi_def_cfa_offset 16
 342 0204 23341100 		sd	ra,8(sp)
 343 0208 23308100 		sd	s0,0(sp)
 344              		.cfi_offset 1, -8
 345              		.cfi_offset 8, -16
 346 020c 13040101 		addi	s0,sp,16
 347              		.cfi_def_cfa 8, 0
  65:src/tcb.cpp   ****     MemoryAllocator::mem_free(ptr);
 348              		.loc 1 65 5
 349              		.loc 1 65 30 is_stmt 0
 350 0210 97000000 		call	_ZN15MemoryAllocator8mem_freeEPv@plt
 350      E7800000 
 351              	.LVL27:
  66:src/tcb.cpp   **** }...
 352              		.loc 1 66 1
 353 0218 83308100 		ld	ra,8(sp)
 354              		.cfi_restore 1
 355 021c 03340100 		ld	s0,0(sp)
 356              		.cfi_restore 8
GAS LISTING /tmp/ccppmPx6.s 			page 9


 357              		.cfi_def_cfa 2, 16
 358 0220 13010101 		addi	sp,sp,16
 359              		.cfi_def_cfa_offset 0
 360 0224 67800000 		jr	ra
 361              		.cfi_endproc
 362              	.LFE35:
 364              		.align	2
 365              		.globl	_ZN3TCB12threadCreateEPPS_PFvPvES2_S2_
 367              	_ZN3TCB12threadCreateEPPS_PFvPvES2_S2_:
 368              	.LFB29:
  20:src/tcb.cpp   **** int TCB::threadCreate(TCB ** handle, body routine, void* arg, void* stack) { //handle je ADRESA ruc
 369              		.loc 1 20 76 is_stmt 1
 370              		.cfi_startproc
 371              		.cfi_personality 0x9b,DW.ref.__gxx_personality_v0
 372              		.cfi_lsda 0x1b,.LLSDA29
 373              	.LVL28:
 374 0228 130101FC 		addi	sp,sp,-64
 375              		.cfi_def_cfa_offset 64
 376 022c 233C1102 		sd	ra,56(sp)
 377 0230 23388102 		sd	s0,48(sp)
 378 0234 23349102 		sd	s1,40(sp)
 379 0238 23302103 		sd	s2,32(sp)
 380 023c 233C3101 		sd	s3,24(sp)
 381 0240 23384101 		sd	s4,16(sp)
 382 0244 23345101 		sd	s5,8(sp)
 383              		.cfi_offset 1, -8
 384              		.cfi_offset 8, -16
 385              		.cfi_offset 9, -24
 386              		.cfi_offset 18, -32
 387              		.cfi_offset 19, -40
 388              		.cfi_offset 20, -48
 389              		.cfi_offset 21, -56
 390 0248 13040104 		addi	s0,sp,64
 391              		.cfi_def_cfa 8, 0
 392 024c 93090500 		mv	s3,a0
 393 0250 13890500 		mv	s2,a1
 394 0254 130A0600 		mv	s4,a2
 395 0258 938A0600 		mv	s5,a3
  21:src/tcb.cpp   ****     *handle=new TCB(routine, arg, stack);
 396              		.loc 1 21 5
  21:src/tcb.cpp   ****     *handle=new TCB(routine, arg, stack);
 397              		.loc 1 21 40 is_stmt 0
 398 025c 13058003 		li	a0,56
 399              	.LVL29:
 400              	.LEHB0:
 401 0260 97000000 		call	_ZN3TCBnwEm
 401      E7800000 
 402              	.LVL30:
 403              	.LEHE0:
 404 0268 93040500 		mv	s1,a0
 405 026c 93860A00 		mv	a3,s5
 406 0270 13060A00 		mv	a2,s4
 407 0274 93050900 		mv	a1,s2
 408              	.LEHB1:
 409 0278 97000000 		call	_ZN3TCBC1EPFvPvES0_S0_
 409      E7800000 
 410              	.LVL31:
GAS LISTING /tmp/ccppmPx6.s 			page 10


 411              	.LEHE1:
  21:src/tcb.cpp   ****     *handle=new TCB(routine, arg, stack);
 412              		.loc 1 21 12 discriminator 2
 413 0280 23B09900 		sd	s1,0(s3)
  22:src/tcb.cpp   ****     if(!*handle) return -1;
 414              		.loc 1 22 5 is_stmt 1 discriminator 2
 415 0284 638E0402 		beqz	s1,.L27
  23:src/tcb.cpp   ****     if(routine) Scheduler::put(*handle);
 416              		.loc 1 23 5
 417 0288 63000904 		beqz	s2,.L28
  23:src/tcb.cpp   ****     if(routine) Scheduler::put(*handle);
 418              		.loc 1 23 17 discriminator 1
  23:src/tcb.cpp   ****     if(routine) Scheduler::put(*handle);
 419              		.loc 1 23 31 is_stmt 0 discriminator 1
 420 028c 13850400 		mv	a0,s1
 421              	.LEHB2:
 422 0290 97000000 		call	_ZN9Scheduler3putEP3TCB@plt
 422      E7800000 
 423              	.LVL32:
 424              	.LEHE2:
  24:src/tcb.cpp   ****     return 0;
 425              		.loc 1 24 12 discriminator 1
 426 0298 13050000 		li	a0,0
 427              	.L30:
  25:src/tcb.cpp   **** }
 428              		.loc 1 25 1
 429 029c 83308103 		ld	ra,56(sp)
 430              		.cfi_remember_state
 431              		.cfi_restore 1
 432 02a0 03340103 		ld	s0,48(sp)
 433              		.cfi_restore 8
 434              		.cfi_def_cfa 2, 64
 435 02a4 83348102 		ld	s1,40(sp)
 436              		.cfi_restore 9
 437 02a8 03390102 		ld	s2,32(sp)
 438              		.cfi_restore 18
 439              	.LVL33:
 440 02ac 83398101 		ld	s3,24(sp)
 441              		.cfi_restore 19
 442              	.LVL34:
 443 02b0 033A0101 		ld	s4,16(sp)
 444              		.cfi_restore 20
 445              	.LVL35:
 446 02b4 833A8100 		ld	s5,8(sp)
 447              		.cfi_restore 21
 448              	.LVL36:
 449 02b8 13010104 		addi	sp,sp,64
 450              		.cfi_def_cfa_offset 0
 451 02bc 67800000 		jr	ra
 452              	.LVL37:
 453              	.L27:
 454              		.cfi_restore_state
  22:src/tcb.cpp   ****     if(!*handle) return -1;
 455              		.loc 1 22 26
 456 02c0 1305F0FF 		li	a0,-1
 457 02c4 6FF09FFD 		j	.L30
 458              	.L28:
GAS LISTING /tmp/ccppmPx6.s 			page 11


  24:src/tcb.cpp   ****     return 0;
 459              		.loc 1 24 12
 460 02c8 13050000 		li	a0,0
 461 02cc 6FF01FFD 		j	.L30
 462              	.L29:
 463 02d0 13090500 		mv	s2,a0
 464              	.LVL38:
  21:src/tcb.cpp   ****     *handle=new TCB(routine, arg, stack);
 465              		.loc 1 21 40
 466 02d4 13850400 		mv	a0,s1
 467 02d8 97000000 		call	_ZN3TCBdlEPv
 467      E7800000 
 468              	.LVL39:
 469 02e0 13050900 		mv	a0,s2
 470              	.LEHB3:
 471 02e4 97000000 		call	_Unwind_Resume@plt
 471      E7800000 
 472              	.LVL40:
 473              	.LEHE3:
 474              		.cfi_endproc
 475              	.LFE29:
 476              		.globl	__gxx_personality_v0
 477              		.section	.gcc_except_table,"a",@progbits
 478              	.LLSDA29:
 479 0000 FF       		.byte	0xff
 480 0001 FF       		.byte	0xff
 481 0002 03       		.byte	0x3
 482 0003 34       		.byte	0x34
 483 0004 00000000 		.4byte	.LEHB0-.LFB29
 484 0008 00000000 		.4byte	.LEHE0-.LEHB0
 485 000c 00000000 		.4byte	0
 486 0010 00       		.byte	0
 487 0011 00000000 		.4byte	.LEHB1-.LFB29
 488 0015 00000000 		.4byte	.LEHE1-.LEHB1
 489 0019 00000000 		.4byte	.L29-.LFB29
 490 001d 00       		.byte	0
 491 001e 00000000 		.4byte	.LEHB2-.LFB29
 492 0022 00000000 		.4byte	.LEHE2-.LEHB2
 493 0026 00000000 		.4byte	0
 494 002a 00       		.byte	0
 495 002b 00000000 		.4byte	.LEHB3-.LFB29
 496 002f 00000000 		.4byte	.LEHE3-.LEHB3
 497 0033 00000000 		.4byte	0
 498 0037 00       		.byte	0
 499              		.text
 501              		.align	2
 502              		.globl	_ZN3TCB8dispatchEv
 504              	_ZN3TCB8dispatchEv:
 505              	.LFB32:
  42:src/tcb.cpp   **** void TCB::dispatch(){
 506              		.loc 1 42 21 is_stmt 1
 507              		.cfi_startproc
 508              		.cfi_personality 0x9b,DW.ref.__gxx_personality_v0
 509              		.cfi_lsda 0x1b,.LLSDA32
 510 02ec 130101FE 		addi	sp,sp,-32
 511              		.cfi_def_cfa_offset 32
 512 02f0 233C1100 		sd	ra,24(sp)
GAS LISTING /tmp/ccppmPx6.s 			page 12


 513 02f4 23388100 		sd	s0,16(sp)
 514 02f8 23349100 		sd	s1,8(sp)
 515 02fc 23302101 		sd	s2,0(sp)
 516              		.cfi_offset 1, -8
 517              		.cfi_offset 8, -16
 518              		.cfi_offset 9, -24
 519              		.cfi_offset 18, -32
 520 0300 13040102 		addi	s0,sp,32
 521              		.cfi_def_cfa 8, 0
  43:src/tcb.cpp   ****     TCB *oldRunning=running;
 522              		.loc 1 43 5
  43:src/tcb.cpp   ****     TCB *oldRunning=running;
 523              		.loc 1 43 10 is_stmt 0
 524 0304 97040000 		ld	s1,.LANCHOR0+8
 524      83B40400 
 525              	.LVL41:
  44:src/tcb.cpp   ****     if (!running->finished && !running->blocked) {
 526              		.loc 1 44 5 is_stmt 1
  44:src/tcb.cpp   ****     if (!running->finished && !running->blocked) {
 527              		.loc 1 44 19 is_stmt 0
 528 030c 83C70403 		lbu	a5,48(s1)
  44:src/tcb.cpp   ****     if (!running->finished && !running->blocked) {
 529              		.loc 1 44 5
 530 0310 63960700 		bnez	a5,.L33
  44:src/tcb.cpp   ****     if (!running->finished && !running->blocked) {
 531              		.loc 1 44 41 discriminator 1
 532 0314 83C71403 		lbu	a5,49(s1)
  44:src/tcb.cpp   ****     if (!running->finished && !running->blocked) {
 533              		.loc 1 44 28 discriminator 1
 534 0318 63860706 		beqz	a5,.L37
 535              	.L33:
  47:src/tcb.cpp   ****     if (running->finished) delete running;
 536              		.loc 1 47 5 is_stmt 1
  47:src/tcb.cpp   ****     if (running->finished) delete running;
 537              		.loc 1 47 18 is_stmt 0
 538 031c 17090000 		ld	s2,.LANCHOR0+8
 538      03390900 
 539 0324 83470903 		lbu	a5,48(s2)
  47:src/tcb.cpp   ****     if (running->finished) delete running;
 540              		.loc 1 47 5
 541 0328 63800702 		beqz	a5,.L34
  47:src/tcb.cpp   ****     if (running->finished) delete running;
 542              		.loc 1 47 28 is_stmt 1 discriminator 1
  47:src/tcb.cpp   ****     if (running->finished) delete running;
 543              		.loc 1 47 42 is_stmt 0 discriminator 1
 544 032c 630E0900 		beqz	s2,.L34
 545              	.LVL42:
 546              	.LBB15:
 547              	.LBB16:
  25:src/../h/tcb.hpp ****     bool getBlocked() { return blocked; }
  26:src/../h/tcb.hpp ****     void setBlocked() { blocked=true; }
  27:src/../h/tcb.hpp **** 
  28:src/../h/tcb.hpp ****     ~TCB() { MemoryAllocator::mem_free(this->stack); }
 548              		.loc 2 28 14 is_stmt 1
 549              		.loc 2 28 39 is_stmt 0
 550 0330 03350901 		ld	a0,16(s2)
 551 0334 97000000 		call	_ZN15MemoryAllocator8mem_freeEPv@plt
GAS LISTING /tmp/ccppmPx6.s 			page 13


 551      E7800000 
 552              	.LVL43:
 553              	.LBE16:
 554              	.LBE15:
  47:src/tcb.cpp   ****     if (running->finished) delete running;
 555              		.loc 1 47 35
 556 033c 13050900 		mv	a0,s2
 557              	.LEHB4:
 558 0340 97000000 		call	_ZN3TCBdlEPv
 558      E7800000 
 559              	.LVL44:
 560              	.L34:
  48:src/tcb.cpp   ****     running=Scheduler::get();
 561              		.loc 1 48 5 is_stmt 1
  48:src/tcb.cpp   ****     running=Scheduler::get();
 562              		.loc 1 48 27 is_stmt 0
 563 0348 97000000 		call	_ZN9Scheduler3getEv@plt
 563      E7800000 
 564              	.LVL45:
 565 0350 93050500 		mv	a1,a0
  48:src/tcb.cpp   ****     running=Scheduler::get();
 566              		.loc 1 48 12
 567 0354 97070000 		sd	a0,.LANCHOR0+8,a5
 567      23B0A700 
  49:src/tcb.cpp   ****     if(oldRunning!=running) yield(oldRunning, running);
 568              		.loc 1 49 5 is_stmt 1
 569 035c 6388A400 		beq	s1,a0,.L32
  49:src/tcb.cpp   ****     if(oldRunning!=running) yield(oldRunning, running);
 570              		.loc 1 49 29 discriminator 1
  49:src/tcb.cpp   ****     if(oldRunning!=running) yield(oldRunning, running);
 571              		.loc 1 49 34 is_stmt 0 discriminator 1
 572 0360 13850400 		mv	a0,s1
 573 0364 97000000 		call	_ZN3TCB5yieldEPS_S0_
 573      E7800000 
 574              	.LVL46:
 575              	.L32:
  50:src/tcb.cpp   **** }
 576              		.loc 1 50 1
 577 036c 83308101 		ld	ra,24(sp)
 578              		.cfi_remember_state
 579              		.cfi_restore 1
 580 0370 03340101 		ld	s0,16(sp)
 581              		.cfi_restore 8
 582              		.cfi_def_cfa 2, 32
 583 0374 83348100 		ld	s1,8(sp)
 584              		.cfi_restore 9
 585              	.LVL47:
 586 0378 03390100 		ld	s2,0(sp)
 587              		.cfi_restore 18
 588 037c 13010102 		addi	sp,sp,32
 589              		.cfi_def_cfa_offset 0
 590 0380 67800000 		jr	ra
 591              	.LVL48:
 592              	.L37:
 593              		.cfi_restore_state
  45:src/tcb.cpp   ****         Scheduler::put(oldRunning);
 594              		.loc 1 45 9 is_stmt 1
GAS LISTING /tmp/ccppmPx6.s 			page 14


  45:src/tcb.cpp   ****         Scheduler::put(oldRunning);
 595              		.loc 1 45 23 is_stmt 0
 596 0384 13850400 		mv	a0,s1
 597 0388 97000000 		call	_ZN9Scheduler3putEP3TCB@plt
 597      E7800000 
 598              	.LVL49:
 599              	.LEHE4:
 600 0390 6FF0DFF8 		j	.L33
 601              		.cfi_endproc
 602              	.LFE32:
 603              		.section	.gcc_except_table
 604              	.LLSDA32:
 605 0038 FF       		.byte	0xff
 606 0039 FF       		.byte	0xff
 607 003a 03       		.byte	0x3
 608 003b 0D       		.byte	0xd
 609 003c 00000000 		.4byte	.LEHB4-.LFB32
 610 0040 00000000 		.4byte	.LEHE4-.LEHB4
 611 0044 00000000 		.4byte	0
 612 0048 00       		.byte	0
 613              		.text
 615              		.globl	_ZN3TCB2idE
 616              		.globl	_ZN3TCB7runningE
 617              		.bss
 618              		.align	3
 619              		.set	.LANCHOR0,. + 0
 622              	_ZN3TCB2idE:
 623 0000 00000000 		.zero	4
 624 0004 00000000 		.zero	4
 627              	_ZN3TCB7runningE:
 628 0008 00000000 		.zero	8
 628      00000000 
 629              		.text
 630              	.Letext0:
 631              		.file 3 "src/../h/../lib/hw.h"
 632              		.file 4 "src/../h/memoryAllocator.hpp"
 633              		.file 5 "src/../h/../h/syscallC.hpp"
 634              		.file 6 "src/../h/riscv.hpp"
 635              		.file 7 "src/../h/scheduler.hpp"
 3811              		.align	3
 3814              	DW.ref.__gxx_personality_v0:
 3815 0000 00000000 		.dword	__gxx_personality_v0
 3815      00000000 
 3816              		.ident	"GCC: (Ubuntu 9.4.0-1ubuntu1~20.04) 9.4.0"
 3817              		.section	.note.GNU-stack,"",@progbits
GAS LISTING /tmp/ccppmPx6.s 			page 15


DEFINED SYMBOLS
                            *ABS*:0000000000000000 tcb.cpp
     /tmp/ccppmPx6.s:9      .text:0000000000000000 _ZN3TCBC2EPFvPvES0_S0_
     /tmp/ccppmPx6.s:13     .text:0000000000000000 .L0 
     /tmp/ccppmPx6.s:15     .text:0000000000000000 .L0 
     /tmp/ccppmPx6.s:16     .text:0000000000000004 .L0 
     /tmp/ccppmPx6.s:22     .text:0000000000000018 .L0 
     /tmp/ccppmPx6.s:23     .text:0000000000000018 .L0 
     /tmp/ccppmPx6.s:24     .text:0000000000000018 .L0 
     /tmp/ccppmPx6.s:25     .text:0000000000000018 .L0 
     /tmp/ccppmPx6.s:26     .text:0000000000000018 .L0 
     /tmp/ccppmPx6.s:28     .text:000000000000001c .L0 
     /tmp/ccppmPx6.s:34     .text:0000000000000028 .L0 
     /tmp/ccppmPx6.s:36     .text:000000000000002c .L0 
     /tmp/ccppmPx6.s:42     .text:0000000000000038 .L0 
     /tmp/ccppmPx6.s:44     .text:000000000000003c .L0 
     /tmp/ccppmPx6.s:45     .text:000000000000003c .L0 
     /tmp/ccppmPx6.s:47     .text:0000000000000040 .L0 
     /tmp/ccppmPx6.s:176    .text:0000000000000100 _ZN3TCB13threadWrapperEv
     /tmp/ccppmPx6.s:51     .text:0000000000000048 .L0 
     /tmp/ccppmPx6.s:55     .text:0000000000000058 .L0 
     /tmp/ccppmPx6.s:56     .text:0000000000000058 .L0 
     /tmp/ccppmPx6.s:58     .text:000000000000005c .L0 
     /tmp/ccppmPx6.s:59     .text:000000000000005c .L0 
     /tmp/ccppmPx6.s:61     .text:0000000000000060 .L0 
     /tmp/ccppmPx6.s:62     .text:0000000000000060 .L0 
     /tmp/ccppmPx6.s:64     .text:0000000000000064 .L0 
     /tmp/ccppmPx6.s:65     .text:0000000000000064 .L0 
     /tmp/ccppmPx6.s:67     .text:0000000000000068 .L0 
     /tmp/ccppmPx6.s:68     .text:0000000000000068 .L0 
     /tmp/ccppmPx6.s:73     .text:000000000000007c .L0 
     /tmp/ccppmPx6.s:77     .text:0000000000000084 .L0 
     /tmp/ccppmPx6.s:78     .text:0000000000000088 .L0 
     /tmp/ccppmPx6.s:79     .text:0000000000000088 .L0 
     /tmp/ccppmPx6.s:81     .text:000000000000008c .L0 
     /tmp/ccppmPx6.s:82     .text:000000000000008c .L0 
     /tmp/ccppmPx6.s:84     .text:0000000000000090 .L0 
     /tmp/ccppmPx6.s:87     .text:0000000000000094 .L0 
     /tmp/ccppmPx6.s:90     .text:0000000000000098 .L0 
     /tmp/ccppmPx6.s:93     .text:000000000000009c .L0 
     /tmp/ccppmPx6.s:97     .text:00000000000000a0 .L0 
     /tmp/ccppmPx6.s:100    .text:00000000000000a0 .L0 
     /tmp/ccppmPx6.s:105    .text:00000000000000a8 .L0 
     /tmp/ccppmPx6.s:108    .text:00000000000000b0 .L0 
     /tmp/ccppmPx6.s:9      .text:0000000000000000 _ZN3TCBC1EPFvPvES0_S0_
     /tmp/ccppmPx6.s:116    .text:00000000000000b0 _ZN3TCB10threadExitEv
     /tmp/ccppmPx6.s:119    .text:00000000000000b0 .L0 
     /tmp/ccppmPx6.s:120    .text:00000000000000b0 .L0 
     /tmp/ccppmPx6.s:121    .text:00000000000000b0 .L0 
     /tmp/ccppmPx6.s:122    .text:00000000000000b0 .L0 
     /tmp/ccppmPx6.s:124    .text:00000000000000b8 .L0 
     /tmp/ccppmPx6.s:130    .text:00000000000000bc .L0 
     /tmp/ccppmPx6.s:131    .text:00000000000000bc .L0 
     /tmp/ccppmPx6.s:136    .text:00000000000000c0 .L0 
     /tmp/ccppmPx6.s:138    .text:00000000000000c4 .L0 
     /tmp/ccppmPx6.s:139    .text:00000000000000c8 .L0 
     /tmp/ccppmPx6.s:142    .text:00000000000000d0 .L0 
GAS LISTING /tmp/ccppmPx6.s 			page 16


     /tmp/ccppmPx6.s:143    .text:00000000000000d0 .L0 
     /tmp/ccppmPx6.s:145    .text:00000000000000d4 .L0 
     /tmp/ccppmPx6.s:147    .text:00000000000000d4 .L0 
     /tmp/ccppmPx6.s:148    .text:00000000000000d4 .L0 
     /tmp/ccppmPx6.s:151    .text:00000000000000dc .L0 
     /tmp/ccppmPx6.s:152    .text:00000000000000dc .L0 
     /tmp/ccppmPx6.s:154    .text:00000000000000e0 .L0 
     /tmp/ccppmPx6.s:155    .text:00000000000000e4 .L0 
     /tmp/ccppmPx6.s:157    .text:00000000000000e8 .L0 
     /tmp/ccppmPx6.s:158    .text:00000000000000e8 .L0 
     /tmp/ccppmPx6.s:160    .text:00000000000000ec .L0 
     /tmp/ccppmPx6.s:164    .text:00000000000000f0 .L0 
     /tmp/ccppmPx6.s:169    .text:00000000000000fc .L0 
     /tmp/ccppmPx6.s:170    .text:0000000000000100 .L0 
     /tmp/ccppmPx6.s:179    .text:0000000000000100 .L0 
     /tmp/ccppmPx6.s:180    .text:0000000000000100 .L0 
     /tmp/ccppmPx6.s:181    .text:0000000000000104 .L0 
     /tmp/ccppmPx6.s:185    .text:0000000000000110 .L0 
     /tmp/ccppmPx6.s:186    .text:0000000000000110 .L0 
     /tmp/ccppmPx6.s:187    .text:0000000000000110 .L0 
     /tmp/ccppmPx6.s:189    .text:0000000000000114 .L0 
     /tmp/ccppmPx6.s:191    .text:0000000000000114 .L0 
     /tmp/ccppmPx6.s:192    .text:0000000000000114 .L0 
     /tmp/ccppmPx6.s:195    .text:0000000000000120 .L0 
     /tmp/ccppmPx6.s:197    .text:0000000000000124 .L0 
     /tmp/ccppmPx6.s:198    .text:0000000000000124 .L0 
     /tmp/ccppmPx6.s:201    .text:000000000000012c .L0 
     /tmp/ccppmPx6.s:202    .text:000000000000012c .L0 
     /tmp/ccppmPx6.s:206    .text:000000000000013c .L0 
     /tmp/ccppmPx6.s:210    .text:0000000000000144 .L0 
     /tmp/ccppmPx6.s:211    .text:0000000000000144 .L0 
     /tmp/ccppmPx6.s:216    .text:0000000000000148 .L0 
     /tmp/ccppmPx6.s:217    .text:0000000000000148 .L0 
     /tmp/ccppmPx6.s:224    .text:0000000000000150 .L0 
     /tmp/ccppmPx6.s:225    .text:0000000000000150 .L0 
     /tmp/ccppmPx6.s:228    .text:0000000000000158 .L0 
     /tmp/ccppmPx6.s:229    .text:000000000000015c .L0 
     /tmp/ccppmPx6.s:231    .text:0000000000000160 .L0 
     /tmp/ccppmPx6.s:232    .text:0000000000000160 .L0 
     /tmp/ccppmPx6.s:234    .text:0000000000000164 .L0 
     /tmp/ccppmPx6.s:236    .text:0000000000000168 .L0 
     /tmp/ccppmPx6.s:238    .text:000000000000016c .L0 
     /tmp/ccppmPx6.s:244    .text:000000000000016c _ZN3TCB5yieldEPS_S0_
     /tmp/ccppmPx6.s:247    .text:000000000000016c .L0 
     /tmp/ccppmPx6.s:249    .text:000000000000016c .L0 
     /tmp/ccppmPx6.s:250    .text:0000000000000170 .L0 
     /tmp/ccppmPx6.s:254    .text:000000000000017c .L0 
     /tmp/ccppmPx6.s:255    .text:000000000000017c .L0 
     /tmp/ccppmPx6.s:256    .text:000000000000017c .L0 
     /tmp/ccppmPx6.s:258    .text:0000000000000180 .L0 
     /tmp/ccppmPx6.s:261    .text:0000000000000184 .L0 
     /tmp/ccppmPx6.s:262    .text:0000000000000184 .L0 
     /tmp/ccppmPx6.s:265    .text:000000000000018c .L0 
     /tmp/ccppmPx6.s:266    .text:000000000000018c .L0 
     /tmp/ccppmPx6.s:272    .text:00000000000001a4 .L0 
     /tmp/ccppmPx6.s:273    .text:00000000000001a4 .L0 
     /tmp/ccppmPx6.s:276    .text:00000000000001ac .L0 
GAS LISTING /tmp/ccppmPx6.s 			page 17


     /tmp/ccppmPx6.s:277    .text:00000000000001b0 .L0 
     /tmp/ccppmPx6.s:279    .text:00000000000001b4 .L0 
     /tmp/ccppmPx6.s:280    .text:00000000000001b4 .L0 
     /tmp/ccppmPx6.s:282    .text:00000000000001b8 .L0 
     /tmp/ccppmPx6.s:285    .text:00000000000001bc .L0 
     /tmp/ccppmPx6.s:287    .text:00000000000001c0 .L0 
     /tmp/ccppmPx6.s:293    .text:00000000000001c0 _ZN3TCBnwEm
     /tmp/ccppmPx6.s:296    .text:00000000000001c0 .L0 
     /tmp/ccppmPx6.s:298    .text:00000000000001c0 .L0 
     /tmp/ccppmPx6.s:299    .text:00000000000001c4 .L0 
     /tmp/ccppmPx6.s:302    .text:00000000000001cc .L0 
     /tmp/ccppmPx6.s:303    .text:00000000000001cc .L0 
     /tmp/ccppmPx6.s:305    .text:00000000000001d0 .L0 
     /tmp/ccppmPx6.s:307    .text:00000000000001d0 .L0 
     /tmp/ccppmPx6.s:308    .text:00000000000001d0 .L0 
     /tmp/ccppmPx6.s:315    .text:00000000000001e4 .L0 
     /tmp/ccppmPx6.s:316    .text:00000000000001e4 .L0 
     /tmp/ccppmPx6.s:321    .text:00000000000001f0 .L0 
     /tmp/ccppmPx6.s:322    .text:00000000000001f4 .L0 
     /tmp/ccppmPx6.s:324    .text:00000000000001f8 .L0 
     /tmp/ccppmPx6.s:325    .text:00000000000001f8 .L0 
     /tmp/ccppmPx6.s:327    .text:00000000000001fc .L0 
     /tmp/ccppmPx6.s:329    .text:0000000000000200 .L0 
     /tmp/ccppmPx6.s:335    .text:0000000000000200 _ZN3TCBdlEPv
     /tmp/ccppmPx6.s:338    .text:0000000000000200 .L0 
     /tmp/ccppmPx6.s:340    .text:0000000000000200 .L0 
     /tmp/ccppmPx6.s:341    .text:0000000000000204 .L0 
     /tmp/ccppmPx6.s:344    .text:000000000000020c .L0 
     /tmp/ccppmPx6.s:345    .text:000000000000020c .L0 
     /tmp/ccppmPx6.s:347    .text:0000000000000210 .L0 
     /tmp/ccppmPx6.s:349    .text:0000000000000210 .L0 
     /tmp/ccppmPx6.s:350    .text:0000000000000210 .L0 
     /tmp/ccppmPx6.s:353    .text:0000000000000218 .L0 
     /tmp/ccppmPx6.s:354    .text:000000000000021c .L0 
     /tmp/ccppmPx6.s:356    .text:0000000000000220 .L0 
     /tmp/ccppmPx6.s:357    .text:0000000000000220 .L0 
     /tmp/ccppmPx6.s:359    .text:0000000000000224 .L0 
     /tmp/ccppmPx6.s:361    .text:0000000000000228 .L0 
     /tmp/ccppmPx6.s:367    .text:0000000000000228 _ZN3TCB12threadCreateEPPS_PFvPvES2_S2_
     /tmp/ccppmPx6.s:370    .text:0000000000000228 .L0 
     /tmp/ccppmPx6.s:3814   .data.rel.local.DW.ref.__gxx_personality_v0:0000000000000000 DW.ref.__gxx_personality_v0
     /tmp/ccppmPx6.s:374    .text:0000000000000228 .L0 
     /tmp/ccppmPx6.s:375    .text:000000000000022c .L0 
     /tmp/ccppmPx6.s:383    .text:0000000000000248 .L0 
     /tmp/ccppmPx6.s:384    .text:0000000000000248 .L0 
     /tmp/ccppmPx6.s:385    .text:0000000000000248 .L0 
     /tmp/ccppmPx6.s:386    .text:0000000000000248 .L0 
     /tmp/ccppmPx6.s:387    .text:0000000000000248 .L0 
     /tmp/ccppmPx6.s:388    .text:0000000000000248 .L0 
     /tmp/ccppmPx6.s:389    .text:0000000000000248 .L0 
     /tmp/ccppmPx6.s:391    .text:000000000000024c .L0 
     /tmp/ccppmPx6.s:397    .text:000000000000025c .L0 
     /tmp/ccppmPx6.s:398    .text:000000000000025c .L0 
     /tmp/ccppmPx6.s:413    .text:0000000000000280 .L0 
     /tmp/ccppmPx6.s:415    .text:0000000000000284 .L0 
     /tmp/ccppmPx6.s:417    .text:0000000000000288 .L0 
     /tmp/ccppmPx6.s:419    .text:000000000000028c .L0 
GAS LISTING /tmp/ccppmPx6.s 			page 18


     /tmp/ccppmPx6.s:420    .text:000000000000028c .L0 
     /tmp/ccppmPx6.s:426    .text:0000000000000298 .L0 
     /tmp/ccppmPx6.s:429    .text:000000000000029c .L0 
     /tmp/ccppmPx6.s:430    .text:00000000000002a0 .L0 
     /tmp/ccppmPx6.s:431    .text:00000000000002a0 .L0 
     /tmp/ccppmPx6.s:433    .text:00000000000002a4 .L0 
     /tmp/ccppmPx6.s:434    .text:00000000000002a4 .L0 
     /tmp/ccppmPx6.s:436    .text:00000000000002a8 .L0 
     /tmp/ccppmPx6.s:438    .text:00000000000002ac .L0 
     /tmp/ccppmPx6.s:441    .text:00000000000002b0 .L0 
     /tmp/ccppmPx6.s:444    .text:00000000000002b4 .L0 
     /tmp/ccppmPx6.s:447    .text:00000000000002b8 .L0 
     /tmp/ccppmPx6.s:450    .text:00000000000002bc .L0 
     /tmp/ccppmPx6.s:454    .text:00000000000002c0 .L0 
     /tmp/ccppmPx6.s:456    .text:00000000000002c0 .L0 
     /tmp/ccppmPx6.s:460    .text:00000000000002c8 .L0 
     /tmp/ccppmPx6.s:466    .text:00000000000002d4 .L0 
     /tmp/ccppmPx6.s:474    .text:00000000000002ec .L0 
     /tmp/ccppmPx6.s:504    .text:00000000000002ec _ZN3TCB8dispatchEv
     /tmp/ccppmPx6.s:507    .text:00000000000002ec .L0 
     /tmp/ccppmPx6.s:510    .text:00000000000002ec .L0 
     /tmp/ccppmPx6.s:511    .text:00000000000002f0 .L0 
     /tmp/ccppmPx6.s:516    .text:0000000000000300 .L0 
     /tmp/ccppmPx6.s:517    .text:0000000000000300 .L0 
     /tmp/ccppmPx6.s:518    .text:0000000000000300 .L0 
     /tmp/ccppmPx6.s:519    .text:0000000000000300 .L0 
     /tmp/ccppmPx6.s:521    .text:0000000000000304 .L0 
     /tmp/ccppmPx6.s:523    .text:0000000000000304 .L0 
     /tmp/ccppmPx6.s:524    .text:0000000000000304 .L0 
     /tmp/ccppmPx6.s:527    .text:000000000000030c .L0 
     /tmp/ccppmPx6.s:528    .text:000000000000030c .L0 
     /tmp/ccppmPx6.s:530    .text:0000000000000310 .L0 
     /tmp/ccppmPx6.s:532    .text:0000000000000314 .L0 
     /tmp/ccppmPx6.s:534    .text:0000000000000318 .L0 
     /tmp/ccppmPx6.s:537    .text:000000000000031c .L0 
     /tmp/ccppmPx6.s:538    .text:000000000000031c .L0 
     /tmp/ccppmPx6.s:541    .text:0000000000000328 .L0 
     /tmp/ccppmPx6.s:543    .text:000000000000032c .L0 
     /tmp/ccppmPx6.s:544    .text:000000000000032c .L0 
     /tmp/ccppmPx6.s:549    .text:0000000000000330 .L0 
     /tmp/ccppmPx6.s:550    .text:0000000000000330 .L0 
     /tmp/ccppmPx6.s:556    .text:000000000000033c .L0 
     /tmp/ccppmPx6.s:562    .text:0000000000000348 .L0 
     /tmp/ccppmPx6.s:563    .text:0000000000000348 .L0 
     /tmp/ccppmPx6.s:567    .text:0000000000000354 .L0 
     /tmp/ccppmPx6.s:569    .text:000000000000035c .L0 
     /tmp/ccppmPx6.s:571    .text:0000000000000360 .L0 
     /tmp/ccppmPx6.s:572    .text:0000000000000360 .L0 
     /tmp/ccppmPx6.s:577    .text:000000000000036c .L0 
     /tmp/ccppmPx6.s:578    .text:0000000000000370 .L0 
     /tmp/ccppmPx6.s:579    .text:0000000000000370 .L0 
     /tmp/ccppmPx6.s:581    .text:0000000000000374 .L0 
     /tmp/ccppmPx6.s:582    .text:0000000000000374 .L0 
     /tmp/ccppmPx6.s:584    .text:0000000000000378 .L0 
     /tmp/ccppmPx6.s:587    .text:000000000000037c .L0 
     /tmp/ccppmPx6.s:589    .text:0000000000000380 .L0 
     /tmp/ccppmPx6.s:593    .text:0000000000000384 .L0 
GAS LISTING /tmp/ccppmPx6.s 			page 19


     /tmp/ccppmPx6.s:595    .text:0000000000000384 .L0 
     /tmp/ccppmPx6.s:596    .text:0000000000000384 .L0 
     /tmp/ccppmPx6.s:601    .text:0000000000000394 .L0 
     /tmp/ccppmPx6.s:622    .bss:0000000000000000 _ZN3TCB2idE
     /tmp/ccppmPx6.s:627    .bss:0000000000000008 _ZN3TCB7runningE
     /tmp/ccppmPx6.s:619    .bss:0000000000000000 .LANCHOR0
     /tmp/ccppmPx6.s:636    .text:0000000000000394 .L0 
     /tmp/ccppmPx6.s:51     .text:0000000000000048 .L0 
     /tmp/ccppmPx6.s:68     .text:0000000000000068 .L0 
     /tmp/ccppmPx6.s:122    .text:00000000000000b0 .L0 
     /tmp/ccppmPx6.s:192    .text:0000000000000114 .L0 
     /tmp/ccppmPx6.s:202    .text:000000000000012c .L0 
     /tmp/ccppmPx6.s:266    .text:000000000000018c .L0 
     /tmp/ccppmPx6.s:308    .text:00000000000001d0 .L0 
     /tmp/ccppmPx6.s:524    .text:0000000000000304 .L0 
     /tmp/ccppmPx6.s:538    .text:000000000000031c .L0 
     /tmp/ccppmPx6.s:567    .text:0000000000000354 .L0 
     /tmp/ccppmPx6.s:96     .text:00000000000000a0 .L4
     /tmp/ccppmPx6.s:103    .text:00000000000000a8 .L5
     /tmp/ccppmPx6.s:40     .text:0000000000000038 .L2
     /tmp/ccppmPx6.s:49     .text:0000000000000048 .L3
     /tmp/ccppmPx6.s:162    .text:00000000000000f0 .L9
     /tmp/ccppmPx6.s:166    .text:00000000000000f8 .L10
     /tmp/ccppmPx6.s:220    .text:0000000000000150 .L16
     /tmp/ccppmPx6.s:453    .text:00000000000002c0 .L27
     /tmp/ccppmPx6.s:458    .text:00000000000002c8 .L28
     /tmp/ccppmPx6.s:427    .text:000000000000029c .L30
     /tmp/ccppmPx6.s:535    .text:000000000000031c .L33
     /tmp/ccppmPx6.s:592    .text:0000000000000384 .L37
     /tmp/ccppmPx6.s:560    .text:0000000000000348 .L34
     /tmp/ccppmPx6.s:575    .text:000000000000036c .L32
     /tmp/ccppmPx6.s:400    .text:0000000000000260 .LEHB0
     /tmp/ccppmPx6.s:368    .text:0000000000000228 .LFB29
     /tmp/ccppmPx6.s:403    .text:0000000000000268 .LEHE0
     /tmp/ccppmPx6.s:408    .text:0000000000000278 .LEHB1
     /tmp/ccppmPx6.s:411    .text:0000000000000280 .LEHE1
     /tmp/ccppmPx6.s:462    .text:00000000000002d0 .L29
     /tmp/ccppmPx6.s:421    .text:0000000000000290 .LEHB2
     /tmp/ccppmPx6.s:424    .text:0000000000000298 .LEHE2
     /tmp/ccppmPx6.s:470    .text:00000000000002e4 .LEHB3
     /tmp/ccppmPx6.s:473    .text:00000000000002ec .LEHE3
     /tmp/ccppmPx6.s:557    .text:0000000000000340 .LEHB4
     /tmp/ccppmPx6.s:505    .text:00000000000002ec .LFB32
     /tmp/ccppmPx6.s:599    .text:0000000000000390 .LEHE4
     /tmp/ccppmPx6.s:2072   .debug_abbrev:0000000000000000 .Ldebug_abbrev0
     /tmp/ccppmPx6.s:3742   .debug_str:0000000000000784 .LASF143
     /tmp/ccppmPx6.s:3626   .debug_str:0000000000000442 .LASF144
     /tmp/ccppmPx6.s:3542   .debug_str:0000000000000166 .LASF145
     /tmp/ccppmPx6.s:5      .text:0000000000000000 .Ltext0
     /tmp/ccppmPx6.s:630    .text:0000000000000394 .Letext0
     /tmp/ccppmPx6.s:3488   .debug_line:0000000000000000 .Ldebug_line0
     /tmp/ccppmPx6.s:3650   .debug_str:0000000000000509 .LASF0
     /tmp/ccppmPx6.s:3670   .debug_str:0000000000000589 .LASF1
     /tmp/ccppmPx6.s:3628   .debug_str:000000000000044e .LASF2
     /tmp/ccppmPx6.s:3592   .debug_str:0000000000000339 .LASF4
     /tmp/ccppmPx6.s:3720   .debug_str:00000000000006d6 .LASF3
     /tmp/ccppmPx6.s:3516   .debug_str:00000000000000a1 .LASF5
GAS LISTING /tmp/ccppmPx6.s 			page 20


     /tmp/ccppmPx6.s:3674   .debug_str:00000000000005b2 .LASF6
     /tmp/ccppmPx6.s:3648   .debug_str:00000000000004f6 .LASF7
     /tmp/ccppmPx6.s:3764   .debug_str:00000000000008ee .LASF8
     /tmp/ccppmPx6.s:3576   .debug_str:0000000000000290 .LASF9
     /tmp/ccppmPx6.s:3688   .debug_str:0000000000000613 .LASF10
     /tmp/ccppmPx6.s:3746   .debug_str:000000000000085a .LASF11
     /tmp/ccppmPx6.s:3520   .debug_str:00000000000000c0 .LASF12
     /tmp/ccppmPx6.s:3496   .debug_str:0000000000000013 .LASF13
     /tmp/ccppmPx6.s:3532   .debug_str:0000000000000127 .LASF14
     /tmp/ccppmPx6.s:3712   .debug_str:0000000000000699 .LASF15
     /tmp/ccppmPx6.s:3544   .debug_str:0000000000000189 .LASF16
     /tmp/ccppmPx6.s:3644   .debug_str:00000000000004d3 .LASF28
     /tmp/ccppmPx6.s:3806   .debug_str:0000000000000a0e .LASF35
     /tmp/ccppmPx6.s:3736   .debug_str:0000000000000756 .LASF17
     /tmp/ccppmPx6.s:3802   .debug_str:00000000000009f8 .LASF18
     /tmp/ccppmPx6.s:3784   .debug_str:000000000000098c .LASF19
     /tmp/ccppmPx6.s:3678   .debug_str:00000000000005d1 .LASF24
     /tmp/ccppmPx6.s:3740   .debug_str:0000000000000768 .LASF26
     /tmp/ccppmPx6.s:3724   .debug_str:00000000000006f0 .LASF20
     /tmp/ccppmPx6.s:3732   .debug_str:000000000000071d .LASF22
     /tmp/ccppmPx6.s:3694   .debug_str:0000000000000635 .LASF21
     /tmp/ccppmPx6.s:3574   .debug_str:000000000000026f .LASF23
     /tmp/ccppmPx6.s:3760   .debug_str:00000000000008c9 .LASF44
     /tmp/ccppmPx6.s:3640   .debug_str:00000000000004ab .LASF146
     /tmp/ccppmPx6.s:3612   .debug_str:0000000000000399 .LASF147
     /tmp/ccppmPx6.s:3606   .debug_str:0000000000000373 .LASF25
     /tmp/ccppmPx6.s:3662   .debug_str:000000000000054b .LASF27
     /tmp/ccppmPx6.s:3786   .debug_str:0000000000000991 .LASF37
     /tmp/ccppmPx6.s:3554   .debug_str:00000000000001f0 .LASF29
     /tmp/ccppmPx6.s:3632   .debug_str:0000000000000468 .LASF30
     /tmp/ccppmPx6.s:3790   .debug_str:00000000000009a7 .LASF31
     /tmp/ccppmPx6.s:3794   .debug_str:00000000000009c8 .LASF32
     /tmp/ccppmPx6.s:3562   .debug_str:000000000000022b .LASF66
     /tmp/ccppmPx6.s:3614   .debug_str:00000000000003b5 .LASF68
     /tmp/ccppmPx6.s:3566   .debug_str:0000000000000248 .LASF33
     /tmp/ccppmPx6.s:3600   .debug_str:0000000000000360 .LASF34
     /tmp/ccppmPx6.s:3502   .debug_str:0000000000000046 .LASF36
     /tmp/ccppmPx6.s:3666   .debug_str:000000000000057b .LASF38
     /tmp/ccppmPx6.s:3500   .debug_str:0000000000000039 .LASF39
     /tmp/ccppmPx6.s:3552   .debug_str:00000000000001c9 .LASF40
     /tmp/ccppmPx6.s:3788   .debug_str:000000000000099c .LASF95
     /tmp/ccppmPx6.s:3578   .debug_str:000000000000029e .LASF97
     /tmp/ccppmPx6.s:3652   .debug_str:0000000000000516 .LASF41
     /tmp/ccppmPx6.s:3564   .debug_str:0000000000000235 .LASF42
     /tmp/ccppmPx6.s:3714   .debug_str:00000000000006af .LASF56
     /tmp/ccppmPx6.s:3526   .debug_str:00000000000000e4 .LASF58
     /tmp/ccppmPx6.s:3680   .debug_str:00000000000005d6 .LASF43
     /tmp/ccppmPx6.s:3718   .debug_str:00000000000006bf .LASF45
     /tmp/ccppmPx6.s:3630   .debug_str:000000000000045c .LASF46
     /tmp/ccppmPx6.s:3620   .debug_str:0000000000000404 .LASF47
     /tmp/ccppmPx6.s:3772   .debug_str:0000000000000937 .LASF48
     /tmp/ccppmPx6.s:3498   .debug_str:0000000000000023 .LASF49
     /tmp/ccppmPx6.s:3596   .debug_str:000000000000034c .LASF50
     /tmp/ccppmPx6.s:3672   .debug_str:000000000000059c .LASF51
     /tmp/ccppmPx6.s:3558   .debug_str:000000000000021a .LASF52
     /tmp/ccppmPx6.s:3698   .debug_str:0000000000000643 .LASF53
     /tmp/ccppmPx6.s:3778   .debug_str:000000000000095a .LASF54
GAS LISTING /tmp/ccppmPx6.s 			page 21


     /tmp/ccppmPx6.s:3512   .debug_str:000000000000007c .LASF55
     /tmp/ccppmPx6.s:3728   .debug_str:0000000000000703 .LASF57
     /tmp/ccppmPx6.s:3704   .debug_str:000000000000066c .LASF59
     /tmp/ccppmPx6.s:3796   .debug_str:00000000000009d4 .LASF124
     /tmp/ccppmPx6.s:3756   .debug_str:00000000000008b5 .LASF60
     /tmp/ccppmPx6.s:3570   .debug_str:0000000000000257 .LASF61
     /tmp/ccppmPx6.s:3654   .debug_str:000000000000051f .LASF62
     /tmp/ccppmPx6.s:3604   .debug_str:000000000000036b .LASF63
     /tmp/ccppmPx6.s:3598   .debug_str:0000000000000357 .LASF64
     /tmp/ccppmPx6.s:3490   .debug_str:0000000000000000 .LASF65
     /tmp/ccppmPx6.s:3616   .debug_str:00000000000003e1 .LASF148
     /tmp/ccppmPx6.s:3584   .debug_str:00000000000002d5 .LASF149
     /tmp/ccppmPx6.s:3774   .debug_str:0000000000000942 .LASF67
     /tmp/ccppmPx6.s:3590   .debug_str:0000000000000311 .LASF69
     /tmp/ccppmPx6.s:3776   .debug_str:0000000000000950 .LASF70
     /tmp/ccppmPx6.s:3702   .debug_str:0000000000000663 .LASF71
     /tmp/ccppmPx6.s:3656   .debug_str:0000000000000525 .LASF72
     /tmp/ccppmPx6.s:3560   .debug_str:000000000000021f .LASF73
     /tmp/ccppmPx6.s:3536   .debug_str:000000000000013e .LASF74
     /tmp/ccppmPx6.s:3762   .debug_str:00000000000008e5 .LASF75
     /tmp/ccppmPx6.s:3608   .debug_str:000000000000037c .LASF76
     /tmp/ccppmPx6.s:3726   .debug_str:00000000000006fa .LASF77
     /tmp/ccppmPx6.s:3522   .debug_str:00000000000000d0 .LASF78
     /tmp/ccppmPx6.s:3768   .debug_str:0000000000000916 .LASF79
     /tmp/ccppmPx6.s:3508   .debug_str:000000000000006c .LASF80
     /tmp/ccppmPx6.s:3798   .debug_str:00000000000009eb .LASF81
     /tmp/ccppmPx6.s:3548   .debug_str:00000000000001ab .LASF82
     /tmp/ccppmPx6.s:3524   .debug_str:00000000000000db .LASF83
     /tmp/ccppmPx6.s:3722   .debug_str:00000000000006e8 .LASF84
     /tmp/ccppmPx6.s:3660   .debug_str:0000000000000543 .LASF85
     /tmp/ccppmPx6.s:3668   .debug_str:0000000000000583 .LASF86
     /tmp/ccppmPx6.s:3622   .debug_str:000000000000041b .LASF87
     /tmp/ccppmPx6.s:3780   .debug_str:0000000000000967 .LASF88
     /tmp/ccppmPx6.s:3538   .debug_str:000000000000014e .LASF89
     /tmp/ccppmPx6.s:3642   .debug_str:00000000000004b5 .LASF90
     /tmp/ccppmPx6.s:3494   .debug_str:000000000000000e .LASF91
     /tmp/ccppmPx6.s:3556   .debug_str:0000000000000209 .LASF92
     /tmp/ccppmPx6.s:3664   .debug_str:000000000000056b .LASF150
     /tmp/ccppmPx6.s:3708   .debug_str:0000000000000682 .LASF93
     /tmp/ccppmPx6.s:3792   .debug_str:00000000000009b0 .LASF94
     /tmp/ccppmPx6.s:3510   .debug_str:0000000000000071 .LASF96
     /tmp/ccppmPx6.s:3624   .debug_str:000000000000042a .LASF98
     /tmp/ccppmPx6.s:3710   .debug_str:000000000000068d .LASF99
     /tmp/ccppmPx6.s:3514   .debug_str:0000000000000088 .LASF100
     /tmp/ccppmPx6.s:3692   .debug_str:000000000000062c .LASF101
     /tmp/ccppmPx6.s:3618   .debug_str:00000000000003ef .LASF102
     /tmp/ccppmPx6.s:3730   .debug_str:0000000000000713 .LASF103
     /tmp/ccppmPx6.s:3528   .debug_str:00000000000000f9 .LASF104
     /tmp/ccppmPx6.s:3716   .debug_str:00000000000006b5 .LASF105
     /tmp/ccppmPx6.s:3582   .debug_str:00000000000002bf .LASF106
     /tmp/ccppmPx6.s:3580   .debug_str:00000000000002b4 .LASF107
     /tmp/ccppmPx6.s:3734   .debug_str:000000000000073e .LASF108
     /tmp/ccppmPx6.s:3540   .debug_str:000000000000015f .LASF109
     /tmp/ccppmPx6.s:3646   .debug_str:00000000000004e3 .LASF110
     /tmp/ccppmPx6.s:3706   .debug_str:0000000000000679 .LASF111
     /tmp/ccppmPx6.s:3770   .debug_str:0000000000000922 .LASF112
     /tmp/ccppmPx6.s:3800   .debug_str:00000000000009f0 .LASF113
GAS LISTING /tmp/ccppmPx6.s 			page 22


     /tmp/ccppmPx6.s:3700   .debug_str:000000000000064f .LASF114
     /tmp/ccppmPx6.s:3782   .debug_str:0000000000000983 .LASF115
     /tmp/ccppmPx6.s:3752   .debug_str:0000000000000889 .LASF116
     /tmp/ccppmPx6.s:3748   .debug_str:0000000000000869 .LASF117
     /tmp/ccppmPx6.s:3518   .debug_str:00000000000000a8 .LASF118
     /tmp/ccppmPx6.s:3738   .debug_str:000000000000075b .LASF119
     /tmp/ccppmPx6.s:3684   .debug_str:00000000000005ef .LASF120
     /tmp/ccppmPx6.s:3594   .debug_str:0000000000000340 .LASF121
     /tmp/ccppmPx6.s:3638   .debug_str:0000000000000492 .LASF122
     /tmp/ccppmPx6.s:3682   .debug_str:00000000000005e2 .LASF151
     /tmp/ccppmPx6.s:3636   .debug_str:0000000000000478 .LASF152
     /tmp/ccppmPx6.s:3686   .debug_str:0000000000000609 .LASF123
     /tmp/ccppmPx6.s:3588   .debug_str:00000000000002fd .LASF153
     /tmp/ccppmPx6.s:3530   .debug_str:000000000000010f .LASF125
     /tmp/ccppmPx6.s:3744   .debug_str:0000000000000848 .LASF126
     /tmp/ccppmPx6.s:3610   .debug_str:0000000000000386 .LASF127
     /tmp/ccppmPx6.s:3750   .debug_str:0000000000000874 .LASF128
     /tmp/ccppmPx6.s:3504   .debug_str:000000000000004e .LASF129
     /tmp/ccppmPx6.s:3492   .debug_str:0000000000000008 .LASF130
     /tmp/ccppmPx6.s:3568   .debug_str:000000000000024d .LASF154
     /tmp/ccppmPx6.s:3804   .debug_str:00000000000009fd .LASF131
     /tmp/ccppmPx6.s:3506   .debug_str:0000000000000060 .LASF132
     /tmp/ccppmPx6.s:336    .text:0000000000000200 .LFB35
     /tmp/ccppmPx6.s:362    .text:0000000000000228 .LFE35
     /tmp/ccppmPx6.s:3172   .debug_loc:0000000000000000 .LLST10
     /tmp/ccppmPx6.s:351    .text:0000000000000218 .LVL27
     /tmp/ccppmPx6.s:294    .text:00000000000001c0 .LFB34
     /tmp/ccppmPx6.s:330    .text:0000000000000200 .LFE34
     /tmp/ccppmPx6.s:3186   .debug_loc:0000000000000039 .LLST8
     /tmp/ccppmPx6.s:3676   .debug_str:00000000000005c5 .LASF133
     /tmp/ccppmPx6.s:3200   .debug_loc:0000000000000072 .LLST9
     /tmp/ccppmPx6.s:319    .text:00000000000001f0 .LVL25
     /tmp/ccppmPx6.s:245    .text:000000000000016c .LFB33
     /tmp/ccppmPx6.s:288    .text:00000000000001c0 .LFE33
     /tmp/ccppmPx6.s:3758   .debug_str:00000000000008be .LASF134
     /tmp/ccppmPx6.s:3215   .debug_loc:00000000000000ac .LLST6
     /tmp/ccppmPx6.s:3534   .debug_str:0000000000000133 .LASF135
     /tmp/ccppmPx6.s:3233   .debug_loc:00000000000000f8 .LLST7
     /tmp/ccppmPx6.s:263    .text:000000000000018c .LVL17
     /tmp/ccppmPx6.s:270    .text:00000000000001a4 .LVL18
     /tmp/ccppmPx6.s:274    .text:00000000000001ac .LVL19
     /tmp/ccppmPx6.s:602    .text:0000000000000394 .LFE32
     /tmp/ccppmPx6.s:3247   .debug_loc:0000000000000131 .LLST15
     /tmp/ccppmPx6.s:546    .text:0000000000000330 .LBB15
     /tmp/ccppmPx6.s:554    .text:000000000000033c .LBE15
     /tmp/ccppmPx6.s:3258   .debug_loc:0000000000000167 .LLST16
     /tmp/ccppmPx6.s:552    .text:000000000000033c .LVL43
     /tmp/ccppmPx6.s:559    .text:0000000000000348 .LVL44
     /tmp/ccppmPx6.s:564    .text:0000000000000350 .LVL45
     /tmp/ccppmPx6.s:574    .text:000000000000036c .LVL46
     /tmp/ccppmPx6.s:598    .text:0000000000000390 .LVL49
     /tmp/ccppmPx6.s:177    .text:0000000000000100 .LFB31
     /tmp/ccppmPx6.s:239    .text:000000000000016c .LFE31
     /tmp/ccppmPx6.s:213    .text:0000000000000148 .LBB13
     /tmp/ccppmPx6.s:222    .text:0000000000000150 .LBE13
     /tmp/ccppmPx6.s:3265   .debug_loc:000000000000018a .LLST5
     /tmp/ccppmPx6.s:199    .text:000000000000012c .LVL11
GAS LISTING /tmp/ccppmPx6.s 			page 23


     /tmp/ccppmPx6.s:226    .text:0000000000000158 .LVL15
     /tmp/ccppmPx6.s:117    .text:00000000000000b0 .LFB30
     /tmp/ccppmPx6.s:171    .text:0000000000000100 .LFE30
     /tmp/ccppmPx6.s:126    .text:00000000000000bc .LBB11
     /tmp/ccppmPx6.s:134    .text:00000000000000c0 .LBE11
     /tmp/ccppmPx6.s:3272   .debug_loc:00000000000001ad .LLST4
     /tmp/ccppmPx6.s:149    .text:00000000000000dc .LVL10
     /tmp/ccppmPx6.s:475    .text:00000000000002ec .LFE29
     /tmp/ccppmPx6.s:3634   .debug_str:0000000000000471 .LASF136
     /tmp/ccppmPx6.s:3279   .debug_loc:00000000000001d0 .LLST11
     /tmp/ccppmPx6.s:3301   .debug_loc:000000000000022f .LLST12
     /tmp/ccppmPx6.s:3330   .debug_loc:00000000000002a4 .LLST13
     /tmp/ccppmPx6.s:3352   .debug_loc:0000000000000303 .LLST14
     /tmp/ccppmPx6.s:402    .text:0000000000000268 .LVL30
     /tmp/ccppmPx6.s:410    .text:0000000000000280 .LVL31
     /tmp/ccppmPx6.s:423    .text:0000000000000298 .LVL32
     /tmp/ccppmPx6.s:468    .text:00000000000002e0 .LVL39
     /tmp/ccppmPx6.s:472    .text:00000000000002ec .LVL40
     /tmp/ccppmPx6.s:3696   .debug_str:000000000000063e .LASF137
     /tmp/ccppmPx6.s:3754   .debug_str:000000000000089e .LASF155
     /tmp/ccppmPx6.s:10     .text:0000000000000000 .LFB27
     /tmp/ccppmPx6.s:109    .text:00000000000000b0 .LFE27
     /tmp/ccppmPx6.s:3374   .debug_loc:0000000000000362 .LLST0
     /tmp/ccppmPx6.s:3396   .debug_loc:00000000000003c1 .LLST1
     /tmp/ccppmPx6.s:3423   .debug_loc:0000000000000434 .LLST2
     /tmp/ccppmPx6.s:3450   .debug_loc:00000000000004a7 .LLST3
     /tmp/ccppmPx6.s:39     .text:0000000000000038 .LVL2
     /tmp/ccppmPx6.s:3690   .debug_str:0000000000000622 .LASF138
     /tmp/ccppmPx6.s:3546   .debug_str:000000000000019f .LASF156
     /tmp/ccppmPx6.s:3550   .debug_str:00000000000001b4 .LASF157
     /tmp/ccppmPx6.s:3658   .debug_str:0000000000000533 .LASF158
     /tmp/ccppmPx6.s:3586   .debug_str:00000000000002ee .LASF139
     /tmp/ccppmPx6.s:3766   .debug_str:00000000000008fe .LASF141
     /tmp/ccppmPx6.s:3602   .debug_str:0000000000000365 .LASF140
     /tmp/ccppmPx6.s:3572   .debug_str:000000000000025f .LASF142
     /tmp/ccppmPx6.s:339    .text:0000000000000200 .LVL26
     /tmp/ccppmPx6.s:297    .text:00000000000001c0 .LVL21
     /tmp/ccppmPx6.s:311    .text:00000000000001e0 .LVL22
     /tmp/ccppmPx6.s:313    .text:00000000000001e4 .LVL23
     /tmp/ccppmPx6.s:317    .text:00000000000001e8 .LVL24
     /tmp/ccppmPx6.s:248    .text:000000000000016c .LVL16
     /tmp/ccppmPx6.s:283    .text:00000000000001b8 .LVL20
     /tmp/ccppmPx6.s:525    .text:000000000000030c .LVL41
     /tmp/ccppmPx6.s:585    .text:0000000000000378 .LVL47
     /tmp/ccppmPx6.s:591    .text:0000000000000384 .LVL48
     /tmp/ccppmPx6.s:545    .text:0000000000000330 .LVL42
     /tmp/ccppmPx6.s:212    .text:0000000000000148 .LVL13
     /tmp/ccppmPx6.s:219    .text:0000000000000150 .LVL14
     /tmp/ccppmPx6.s:125    .text:00000000000000bc .LVL8
     /tmp/ccppmPx6.s:132    .text:00000000000000c0 .LVL9
     /tmp/ccppmPx6.s:373    .text:0000000000000228 .LVL28
     /tmp/ccppmPx6.s:399    .text:0000000000000260 .LVL29
     /tmp/ccppmPx6.s:442    .text:00000000000002b0 .LVL34
     /tmp/ccppmPx6.s:452    .text:00000000000002c0 .LVL37
     /tmp/ccppmPx6.s:439    .text:00000000000002ac .LVL33
     /tmp/ccppmPx6.s:464    .text:00000000000002d4 .LVL38
     /tmp/ccppmPx6.s:445    .text:00000000000002b4 .LVL35
GAS LISTING /tmp/ccppmPx6.s 			page 24


     /tmp/ccppmPx6.s:448    .text:00000000000002b8 .LVL36
     /tmp/ccppmPx6.s:14     .text:0000000000000000 .LVL0
     /tmp/ccppmPx6.s:37     .text:0000000000000030 .LVL1
     /tmp/ccppmPx6.s:85     .text:0000000000000090 .LVL3
     /tmp/ccppmPx6.s:95     .text:00000000000000a0 .LVL6
     /tmp/ccppmPx6.s:88     .text:0000000000000094 .LVL4
     /tmp/ccppmPx6.s:102    .text:00000000000000a8 .LVL7
     /tmp/ccppmPx6.s:91     .text:0000000000000098 .LVL5
     /tmp/ccppmPx6.s:637    .debug_info:0000000000000000 .Ldebug_info0
     /tmp/ccppmPx6.s:478    .gcc_except_table:0000000000000000 .LLSDA29
     /tmp/ccppmPx6.s:604    .gcc_except_table:0000000000000038 .LLSDA32

UNDEFINED SYMBOLS
_Znam
_Z15thread_dispatchv
_ZN5Riscv10popSppSpieEv
_ZN5Riscv4pushEv
_ZN3TCB13contextSwitchEPNS_7ContextES1_
_ZN5Riscv3popEv
_ZN15MemoryAllocator10DBlockSizeE
_ZN15MemoryAllocator9mem_allocEm
_ZN15MemoryAllocator8mem_freeEPv
_ZN9Scheduler3putEP3TCB
_Unwind_Resume
__gxx_personality_v0
_ZN9Scheduler3getEv
