GAS LISTING /tmp/ccYdQEd2.s 			page 1


   1              		.file	"tcb.cpp"
   2              		.option pic
   3              		.option norelax
   4              		.text
   5              	.Ltext0:
   6              		.align	2
   7              		.globl	_ZN3TCBC2EPFvPvES0_S0_
   9              	_ZN3TCBC2EPFvPvES0_S0_:
  10              	.LFB20:
  11              		.file 1 "src/tcb.cpp"
   1:src/tcb.cpp   **** #include "../h/tcb.hpp"
   2:src/tcb.cpp   **** #include "../h/riscv.hpp"
   3:src/tcb.cpp   **** #include "../h/memoryAllocator.hpp"
   4:src/tcb.cpp   **** #include "../h/scheduler.hpp"
   5:src/tcb.cpp   **** #include "../h/syscallC.hpp"
   6:src/tcb.cpp   **** 
   7:src/tcb.cpp   **** 
   8:src/tcb.cpp   **** TCB* TCB::running = nullptr;
   9:src/tcb.cpp   **** int TCB::id = 0;
  10:src/tcb.cpp   **** 
  11:src/tcb.cpp   **** TCB::TCB(body routine, void* arg, void * stack) : stack(routine!=nullptr ? new uint64[DEFAULT_STACK
  12              		.loc 1 11 1
  13              		.cfi_startproc
  14              	.LVL0:
  15 0000 130101FD 		addi	sp,sp,-48
  16              		.cfi_def_cfa_offset 48
  17 0004 23341102 		sd	ra,40(sp)
  18 0008 23308102 		sd	s0,32(sp)
  19 000c 233C9100 		sd	s1,24(sp)
  20 0010 23382101 		sd	s2,16(sp)
  21 0014 23343101 		sd	s3,8(sp)
  22              		.cfi_offset 1, -8
  23              		.cfi_offset 8, -16
  24              		.cfi_offset 9, -24
  25              		.cfi_offset 18, -32
  26              		.cfi_offset 19, -40
  27 0018 13040103 		addi	s0,sp,48
  28              		.cfi_def_cfa 8, 0
  29 001c 93040500 		mv	s1,a0
  30 0020 13890500 		mv	s2,a1
  31 0024 93090600 		mv	s3,a2
  32              	.LBB9:
  33              		.loc 1 11 74 is_stmt 0
  34 0028 638E0506 		beqz	a1,.L4
  35              		.loc 1 11 105 discriminator 1
  36 002c 37850000 		li	a0,32768
  37              	.LVL1:
  38 0030 97000000 		call	_Znam@plt
  38      E7800000 
  39              	.LVL2:
  40              	.L2:
  41              		.loc 1 11 116 discriminator 4
  42 0038 23B8A400 		sd	a0,16(s1)
  12:src/tcb.cpp   ****     this->context = {
  43              		.loc 1 12 5 is_stmt 1 discriminator 4
  13:src/tcb.cpp   ****             (uint64)&TCB::threadWrapper, //ra
  14:src/tcb.cpp   ****             routine == nullptr ? 0 : (uint64) &this->stack[ DEFAULT_STACK_SIZE ] //
GAS LISTING /tmp/ccYdQEd2.s 			page 2


  44              		.loc 1 14 32 is_stmt 0 discriminator 4
  45 003c 63080906 		beqz	s2,.L5
  46              		.loc 1 14 47 discriminator 1
  47 0040 B7870000 		li	a5,32768
  48 0044 3305F500 		add	a0,a0,a5
  49              	.L3:
  12:src/tcb.cpp   ****     this->context = {
  50              		.loc 1 12 19
  51 0048 97070000 		lla	a5,_ZN3TCB13threadWrapperEv
  51      93870700 
  52 0050 23B0F402 		sd	a5,32(s1)
  53 0054 23B4A402 		sd	a0,40(s1)
  15:src/tcb.cpp   ****     };
  16:src/tcb.cpp   ****     this->routine=routine;
  54              		.loc 1 16 5 is_stmt 1
  55              		.loc 1 16 18 is_stmt 0
  56 0058 23B42401 		sd	s2,8(s1)
  17:src/tcb.cpp   ****     this->arg=arg;
  57              		.loc 1 17 5 is_stmt 1
  58              		.loc 1 17 14 is_stmt 0
  59 005c 23BC3401 		sd	s3,24(s1)
  18:src/tcb.cpp   ****     this->finished=false; //menja se u wrapperu
  60              		.loc 1 18 5 is_stmt 1
  61              		.loc 1 18 19 is_stmt 0
  62 0060 238C0402 		sb	zero,56(s1)
  19:src/tcb.cpp   ****     this->blocked=false; //menja se u sem
  63              		.loc 1 19 5 is_stmt 1
  64              		.loc 1 19 18 is_stmt 0
  65 0064 A38C0402 		sb	zero,57(s1)
  20:src/tcb.cpp   ****     this->schedulerNext=nullptr;
  66              		.loc 1 20 5 is_stmt 1
  67              		.loc 1 20 24 is_stmt 0
  68 0068 23B80402 		sd	zero,48(s1)
  21:src/tcb.cpp   ****     this->threadID=++id;
  69              		.loc 1 21 5 is_stmt 1
  70              		.loc 1 21 20 is_stmt 0
  71 006c 17070000 		lla	a4,.LANCHOR0
  71      13070700 
  72 0074 83270700 		lw	a5,0(a4)
  73 0078 9B871700 		addiw	a5,a5,1
  74 007c 9B860700 		sext.w	a3,a5
  75              		.loc 1 21 19
  76 0080 2320F700 		sw	a5,0(a4)
  77 0084 23B0D400 		sd	a3,0(s1)
  78              	.LBE9:
  22:src/tcb.cpp   **** }
  79              		.loc 1 22 1
  80 0088 83308102 		ld	ra,40(sp)
  81              		.cfi_remember_state
  82              		.cfi_restore 1
  83 008c 03340102 		ld	s0,32(sp)
  84              		.cfi_restore 8
  85              		.cfi_def_cfa 2, 48
  86 0090 83348101 		ld	s1,24(sp)
  87              		.cfi_restore 9
  88              	.LVL3:
  89 0094 03390101 		ld	s2,16(sp)
GAS LISTING /tmp/ccYdQEd2.s 			page 3


  90              		.cfi_restore 18
  91              	.LVL4:
  92 0098 83398100 		ld	s3,8(sp)
  93              		.cfi_restore 19
  94              	.LVL5:
  95 009c 13010103 		addi	sp,sp,48
  96              		.cfi_def_cfa_offset 0
  97 00a0 67800000 		jr	ra
  98              	.LVL6:
  99              	.L4:
 100              		.cfi_restore_state
 101              	.LBB10:
  11:src/tcb.cpp   ****     this->context = {
 102              		.loc 1 11 74
 103 00a4 13050000 		li	a0,0
 104 00a8 6FF01FF9 		j	.L2
 105              	.LVL7:
 106              	.L5:
  14:src/tcb.cpp   ****     };
 107              		.loc 1 14 32
 108 00ac 13050000 		li	a0,0
 109 00b0 6FF09FF9 		j	.L3
 110              	.LBE10:
 111              		.cfi_endproc
 112              	.LFE20:
 114              		.globl	_ZN3TCBC1EPFvPvES0_S0_
 115              		.set	_ZN3TCBC1EPFvPvES0_S0_,_ZN3TCBC2EPFvPvES0_S0_
 116              		.align	2
 117              		.globl	_ZN3TCB10threadExitEv
 119              	_ZN3TCB10threadExitEv:
 120              	.LFB23:
  23:src/tcb.cpp   **** 
  24:src/tcb.cpp   **** int TCB::threadCreate(TCB ** handle, body routine, void* arg, void* stack) { //handle je ADRESA ruc
  25:src/tcb.cpp   **** 
  26:src/tcb.cpp   ****     *handle=new TCB(routine, arg, stack);
  27:src/tcb.cpp   ****     if(!*handle) return -1;
  28:src/tcb.cpp   ****     if(routine) Scheduler::put(*handle);
  29:src/tcb.cpp   ****     return 0;
  30:src/tcb.cpp   **** }
  31:src/tcb.cpp   **** 
  32:src/tcb.cpp   **** int TCB::threadExit() {
 121              		.loc 1 32 23 is_stmt 1
 122              		.cfi_startproc
  33:src/tcb.cpp   ****     if(!running || !running->getFinished()) return -1;
 123              		.loc 1 33 5
 124              		.loc 1 33 8 is_stmt 0
 125 00b4 97070000 		ld	a5,.LANCHOR0+8
 125      83B70700 
 126              		.loc 1 33 17
 127 00bc 638C0702 		beqz	a5,.L9
 128              	.LVL8:
 129              	.LBB11:
 130              	.LBB12:
 131              		.file 2 "src/../h/tcb.hpp"
   1:src/../h/tcb.hpp **** #ifndef PROJECT_BASE_V1_1_TCB_HPP
   2:src/../h/tcb.hpp **** #define PROJECT_BASE_V1_1_TCB_HPP
   3:src/../h/tcb.hpp **** 
GAS LISTING /tmp/ccYdQEd2.s 			page 4


   4:src/../h/tcb.hpp **** #include "../lib/hw.h"
   5:src/../h/tcb.hpp **** #include "memoryAllocator.hpp"
   6:src/../h/tcb.hpp **** 
   7:src/../h/tcb.hpp **** using body=void(*)(void*);
   8:src/../h/tcb.hpp **** 
   9:src/../h/tcb.hpp **** class TCB{
  10:src/../h/tcb.hpp **** 
  11:src/../h/tcb.hpp **** public:
  12:src/../h/tcb.hpp **** 
  13:src/../h/tcb.hpp ****     //friend class SEM;
  14:src/../h/tcb.hpp ****     friend class Riscv;
  15:src/../h/tcb.hpp ****     friend class Scheduler;
  16:src/../h/tcb.hpp **** 
  17:src/../h/tcb.hpp ****     static int id;
  18:src/../h/tcb.hpp ****     static TCB* running;
  19:src/../h/tcb.hpp **** 
  20:src/../h/tcb.hpp ****     static int threadCreate(TCB** handle, body routine, void* arg, void* stack);
  21:src/../h/tcb.hpp ****     static int threadExit();
  22:src/../h/tcb.hpp ****     static void dispatch();
  23:src/../h/tcb.hpp **** 
  24:src/../h/tcb.hpp ****     bool getFinished() { return finished; }
 132              		.loc 2 24 26 is_stmt 1 discriminator 2
 133              		.loc 2 24 33 is_stmt 0 discriminator 2
 134 00c0 83C78703 		lbu	a5,56(a5)
 135              	.LVL9:
 136              	.LBE12:
 137              	.LBE11:
 138              		.loc 1 33 17 discriminator 2
 139 00c4 638C0702 		beqz	a5,.L10
  32:src/tcb.cpp   ****     if(!running || !running->getFinished()) return -1;
 140              		.loc 1 32 23
 141 00c8 130101FF 		addi	sp,sp,-16
 142              		.cfi_def_cfa_offset 16
 143 00cc 23341100 		sd	ra,8(sp)
 144 00d0 23308100 		sd	s0,0(sp)
 145              		.cfi_offset 1, -8
 146              		.cfi_offset 8, -16
 147 00d4 13040101 		addi	s0,sp,16
 148              		.cfi_def_cfa 8, 0
  34:src/tcb.cpp   ****     thread_dispatch();
 149              		.loc 1 34 5 is_stmt 1
 150              		.loc 1 34 20 is_stmt 0
 151 00d8 97000000 		call	_Z15thread_dispatchv@plt
 151      E7800000 
 152              	.LVL10:
  35:src/tcb.cpp   ****     return 0;
 153              		.loc 1 35 5 is_stmt 1
 154              		.loc 1 35 12 is_stmt 0
 155 00e0 13050000 		li	a0,0
  36:src/tcb.cpp   **** }
 156              		.loc 1 36 1
 157 00e4 83308100 		ld	ra,8(sp)
 158              		.cfi_restore 1
 159 00e8 03340100 		ld	s0,0(sp)
 160              		.cfi_restore 8
 161              		.cfi_def_cfa 2, 16
 162 00ec 13010101 		addi	sp,sp,16
GAS LISTING /tmp/ccYdQEd2.s 			page 5


 163              		.cfi_def_cfa_offset 0
 164 00f0 67800000 		jr	ra
 165              	.L9:
  33:src/tcb.cpp   ****     thread_dispatch();
 166              		.loc 1 33 53
 167 00f4 1305F0FF 		li	a0,-1
 168 00f8 67800000 		ret
 169              	.L10:
 170 00fc 1305F0FF 		li	a0,-1
 171              		.loc 1 36 1
 172 0100 67800000 		ret
 173              		.cfi_endproc
 174              	.LFE23:
 176              		.align	2
 177              		.globl	_ZN3TCB13threadWrapperEv
 179              	_ZN3TCB13threadWrapperEv:
 180              	.LFB24:
  37:src/tcb.cpp   **** 
  38:src/tcb.cpp   **** void TCB::threadWrapper() {
 181              		.loc 1 38 27 is_stmt 1
 182              		.cfi_startproc
 183 0104 130101FE 		addi	sp,sp,-32
 184              		.cfi_def_cfa_offset 32
 185 0108 233C1100 		sd	ra,24(sp)
 186 010c 23388100 		sd	s0,16(sp)
 187 0110 23349100 		sd	s1,8(sp)
 188              		.cfi_offset 1, -8
 189              		.cfi_offset 8, -16
 190              		.cfi_offset 9, -24
 191 0114 13040102 		addi	s0,sp,32
 192              		.cfi_def_cfa 8, 0
  39:src/tcb.cpp   ****     if (running->routine) {
 193              		.loc 1 39 5
 194              		.loc 1 39 18 is_stmt 0
 195 0118 97070000 		ld	a5,.LANCHOR0+8
 195      83B70700 
 196 0120 83B78700 		ld	a5,8(a5)
 197              		.loc 1 39 5
 198 0124 63880702 		beqz	a5,.L16
  40:src/tcb.cpp   ****         Riscv::popSppSpie();
 199              		.loc 1 40 9 is_stmt 1
 200              		.loc 1 40 26 is_stmt 0
 201 0128 97000000 		call	_ZN5Riscv10popSppSpieEv@plt
 201      E7800000 
 202              	.LVL11:
  41:src/tcb.cpp   ****         running->routine(running->arg);
 203              		.loc 1 41 9 is_stmt 1
 204              		.loc 1 41 18 is_stmt 0
 205 0130 97040000 		lla	s1,.LANCHOR0
 205      93840400 
 206 0138 83B78400 		ld	a5,8(s1)
 207 013c 03B78700 		ld	a4,8(a5)
 208              		.loc 1 41 25
 209 0140 03B58701 		ld	a0,24(a5)
 210 0144 E7000700 		jalr	a4
 211              	.LVL12:
  42:src/tcb.cpp   ****         running->setFinished();
GAS LISTING /tmp/ccYdQEd2.s 			page 6


 212              		.loc 1 42 9 is_stmt 1
 213              		.loc 1 42 29 is_stmt 0
 214 0148 83B78400 		ld	a5,8(s1)
 215              	.LVL13:
 216              	.LBB13:
 217              	.LBB14:
  25:src/../h/tcb.hpp ****     void setFinished() { finished=true; }
 218              		.loc 2 25 26 is_stmt 1
 219              		.loc 2 25 34 is_stmt 0
 220 014c 13071000 		li	a4,1
 221 0150 238CE702 		sb	a4,56(a5)
 222              	.LVL14:
 223              	.L16:
 224              	.LBE14:
 225              	.LBE13:
  43:src/tcb.cpp   ****     }
  44:src/tcb.cpp   ****     TCB::threadExit();
 226              		.loc 1 44 5 is_stmt 1
 227              		.loc 1 44 20 is_stmt 0
 228 0154 97000000 		call	_ZN3TCB10threadExitEv
 228      E7800000 
 229              	.LVL15:
  45:src/tcb.cpp   **** }
 230              		.loc 1 45 1
 231 015c 83308101 		ld	ra,24(sp)
 232              		.cfi_restore 1
 233 0160 03340101 		ld	s0,16(sp)
 234              		.cfi_restore 8
 235              		.cfi_def_cfa 2, 32
 236 0164 83348100 		ld	s1,8(sp)
 237              		.cfi_restore 9
 238 0168 13010102 		addi	sp,sp,32
 239              		.cfi_def_cfa_offset 0
 240 016c 67800000 		jr	ra
 241              		.cfi_endproc
 242              	.LFE24:
 244              		.align	2
 245              		.globl	_ZN3TCBnwEm
 247              	_ZN3TCBnwEm:
 248              	.LFB26:
  46:src/tcb.cpp   **** 
  47:src/tcb.cpp   **** void TCB::dispatch(){
  48:src/tcb.cpp   ****     TCB *oldRunning=running;
  49:src/tcb.cpp   ****     if (!running->finished && !running->blocked) {
  50:src/tcb.cpp   ****         Scheduler::put(oldRunning);
  51:src/tcb.cpp   ****     }
  52:src/tcb.cpp   ****     if (running->finished) delete running;
  53:src/tcb.cpp   ****     running=Scheduler::get();
  54:src/tcb.cpp   ****     Riscv::push();
  55:src/tcb.cpp   ****     contextSwitch(&oldRunning->context, &running->context);
  56:src/tcb.cpp   ****     Riscv::pop();
  57:src/tcb.cpp   **** }
  58:src/tcb.cpp   **** 
  59:src/tcb.cpp   **** void *TCB::operator new(size_t size) {
 249              		.loc 1 59 38 is_stmt 1
 250              		.cfi_startproc
 251              	.LVL16:
GAS LISTING /tmp/ccYdQEd2.s 			page 7


 252 0170 130101FF 		addi	sp,sp,-16
 253              		.cfi_def_cfa_offset 16
 254 0174 23341100 		sd	ra,8(sp)
 255 0178 23308100 		sd	s0,0(sp)
 256              		.cfi_offset 1, -8
 257              		.cfi_offset 8, -16
 258 017c 13040101 		addi	s0,sp,16
 259              		.cfi_def_cfa 8, 0
  60:src/tcb.cpp   ****     size_t numOfBlocks=ROUNDUP((size+MemoryAllocator::DBlockSize))/MEM_BLOCK_SIZE;
 260              		.loc 1 60 5
 261              		.loc 1 60 24 is_stmt 0
 262 0180 97070000 		la	a5,_ZN15MemoryAllocator10DBlockSizeE
 262      83B70700 
 263 0188 83B70700 		ld	a5,0(a5)
 264 018c 3385A700 		add	a0,a5,a0
 265              	.LVL17:
 266 0190 1305F503 		addi	a0,a0,63
 267              	.LVL18:
  61:src/tcb.cpp   ****     return MemoryAllocator::mem_alloc(numOfBlocks);
 268              		.loc 1 61 5 is_stmt 1
 269              		.loc 1 61 38 is_stmt 0
 270 0194 13556500 		srli	a0,a0,6
 271              	.LVL19:
 272 0198 97000000 		call	_ZN15MemoryAllocator9mem_allocEm@plt
 272      E7800000 
 273              	.LVL20:
  62:src/tcb.cpp   **** }
 274              		.loc 1 62 1
 275 01a0 83308100 		ld	ra,8(sp)
 276              		.cfi_restore 1
 277 01a4 03340100 		ld	s0,0(sp)
 278              		.cfi_restore 8
 279              		.cfi_def_cfa 2, 16
 280 01a8 13010101 		addi	sp,sp,16
 281              		.cfi_def_cfa_offset 0
 282 01ac 67800000 		jr	ra
 283              		.cfi_endproc
 284              	.LFE26:
 286              		.align	2
 287              		.globl	_ZN3TCBdlEPv
 289              	_ZN3TCBdlEPv:
 290              	.LFB27:
  63:src/tcb.cpp   **** 
  64:src/tcb.cpp   **** void TCB::operator delete(void *ptr) {
 291              		.loc 1 64 38 is_stmt 1
 292              		.cfi_startproc
 293              	.LVL21:
 294 01b0 130101FF 		addi	sp,sp,-16
 295              		.cfi_def_cfa_offset 16
 296 01b4 23341100 		sd	ra,8(sp)
 297 01b8 23308100 		sd	s0,0(sp)
 298              		.cfi_offset 1, -8
 299              		.cfi_offset 8, -16
 300 01bc 13040101 		addi	s0,sp,16
 301              		.cfi_def_cfa 8, 0
  65:src/tcb.cpp   ****     MemoryAllocator::mem_free(ptr);
 302              		.loc 1 65 5
GAS LISTING /tmp/ccYdQEd2.s 			page 8


 303              		.loc 1 65 30 is_stmt 0
 304 01c0 97000000 		call	_ZN15MemoryAllocator8mem_freeEPv@plt
 304      E7800000 
 305              	.LVL22:
  66:src/tcb.cpp   **** }...
 306              		.loc 1 66 1
 307 01c8 83308100 		ld	ra,8(sp)
 308              		.cfi_restore 1
 309 01cc 03340100 		ld	s0,0(sp)
 310              		.cfi_restore 8
 311              		.cfi_def_cfa 2, 16
 312 01d0 13010101 		addi	sp,sp,16
 313              		.cfi_def_cfa_offset 0
 314 01d4 67800000 		jr	ra
 315              		.cfi_endproc
 316              	.LFE27:
 318              		.align	2
 319              		.globl	_ZN3TCB12threadCreateEPPS_PFvPvES2_S2_
 321              	_ZN3TCB12threadCreateEPPS_PFvPvES2_S2_:
 322              	.LFB22:
  24:src/tcb.cpp   **** int TCB::threadCreate(TCB ** handle, body routine, void* arg, void* stack) { //handle je ADRESA ruc
 323              		.loc 1 24 76 is_stmt 1
 324              		.cfi_startproc
 325              		.cfi_personality 0x9b,DW.ref.__gxx_personality_v0
 326              		.cfi_lsda 0x1b,.LLSDA22
 327              	.LVL23:
 328 01d8 130101FC 		addi	sp,sp,-64
 329              		.cfi_def_cfa_offset 64
 330 01dc 233C1102 		sd	ra,56(sp)
 331 01e0 23388102 		sd	s0,48(sp)
 332 01e4 23349102 		sd	s1,40(sp)
 333 01e8 23302103 		sd	s2,32(sp)
 334 01ec 233C3101 		sd	s3,24(sp)
 335 01f0 23384101 		sd	s4,16(sp)
 336 01f4 23345101 		sd	s5,8(sp)
 337              		.cfi_offset 1, -8
 338              		.cfi_offset 8, -16
 339              		.cfi_offset 9, -24
 340              		.cfi_offset 18, -32
 341              		.cfi_offset 19, -40
 342              		.cfi_offset 20, -48
 343              		.cfi_offset 21, -56
 344 01f8 13040104 		addi	s0,sp,64
 345              		.cfi_def_cfa 8, 0
 346 01fc 93090500 		mv	s3,a0
 347 0200 13890500 		mv	s2,a1
 348 0204 130A0600 		mv	s4,a2
 349 0208 938A0600 		mv	s5,a3
  26:src/tcb.cpp   ****     *handle=new TCB(routine, arg, stack);
 350              		.loc 1 26 5
  26:src/tcb.cpp   ****     *handle=new TCB(routine, arg, stack);
 351              		.loc 1 26 40 is_stmt 0
 352 020c 13050004 		li	a0,64
 353              	.LVL24:
 354              	.LEHB0:
 355 0210 97000000 		call	_ZN3TCBnwEm
 355      E7800000 
GAS LISTING /tmp/ccYdQEd2.s 			page 9


 356              	.LVL25:
 357              	.LEHE0:
 358 0218 93040500 		mv	s1,a0
 359 021c 93860A00 		mv	a3,s5
 360 0220 13060A00 		mv	a2,s4
 361 0224 93050900 		mv	a1,s2
 362              	.LEHB1:
 363 0228 97000000 		call	_ZN3TCBC1EPFvPvES0_S0_
 363      E7800000 
 364              	.LVL26:
 365              	.LEHE1:
  26:src/tcb.cpp   ****     *handle=new TCB(routine, arg, stack);
 366              		.loc 1 26 12 discriminator 2
 367 0230 23B09900 		sd	s1,0(s3)
  27:src/tcb.cpp   ****     if(!*handle) return -1;
 368              		.loc 1 27 5 is_stmt 1 discriminator 2
 369 0234 638E0402 		beqz	s1,.L25
  28:src/tcb.cpp   ****     if(routine) Scheduler::put(*handle);
 370              		.loc 1 28 5
 371 0238 63000904 		beqz	s2,.L26
  28:src/tcb.cpp   ****     if(routine) Scheduler::put(*handle);
 372              		.loc 1 28 17 discriminator 1
  28:src/tcb.cpp   ****     if(routine) Scheduler::put(*handle);
 373              		.loc 1 28 31 is_stmt 0 discriminator 1
 374 023c 13850400 		mv	a0,s1
 375              	.LEHB2:
 376 0240 97000000 		call	_ZN9Scheduler3putEP3TCB@plt
 376      E7800000 
 377              	.LVL27:
 378              	.LEHE2:
  29:src/tcb.cpp   ****     return 0;
 379              		.loc 1 29 12 discriminator 1
 380 0248 13050000 		li	a0,0
 381              	.L28:
  30:src/tcb.cpp   **** }
 382              		.loc 1 30 1
 383 024c 83308103 		ld	ra,56(sp)
 384              		.cfi_remember_state
 385              		.cfi_restore 1
 386 0250 03340103 		ld	s0,48(sp)
 387              		.cfi_restore 8
 388              		.cfi_def_cfa 2, 64
 389 0254 83348102 		ld	s1,40(sp)
 390              		.cfi_restore 9
 391 0258 03390102 		ld	s2,32(sp)
 392              		.cfi_restore 18
 393              	.LVL28:
 394 025c 83398101 		ld	s3,24(sp)
 395              		.cfi_restore 19
 396              	.LVL29:
 397 0260 033A0101 		ld	s4,16(sp)
 398              		.cfi_restore 20
 399              	.LVL30:
 400 0264 833A8100 		ld	s5,8(sp)
 401              		.cfi_restore 21
 402              	.LVL31:
 403 0268 13010104 		addi	sp,sp,64
GAS LISTING /tmp/ccYdQEd2.s 			page 10


 404              		.cfi_def_cfa_offset 0
 405 026c 67800000 		jr	ra
 406              	.LVL32:
 407              	.L25:
 408              		.cfi_restore_state
  27:src/tcb.cpp   ****     if(!*handle) return -1;
 409              		.loc 1 27 26
 410 0270 1305F0FF 		li	a0,-1
 411 0274 6FF09FFD 		j	.L28
 412              	.L26:
  29:src/tcb.cpp   ****     return 0;
 413              		.loc 1 29 12
 414 0278 13050000 		li	a0,0
 415 027c 6FF01FFD 		j	.L28
 416              	.L27:
 417 0280 13090500 		mv	s2,a0
 418              	.LVL33:
  26:src/tcb.cpp   ****     *handle=new TCB(routine, arg, stack);
 419              		.loc 1 26 40
 420 0284 13850400 		mv	a0,s1
 421 0288 97000000 		call	_ZN3TCBdlEPv
 421      E7800000 
 422              	.LVL34:
 423 0290 13050900 		mv	a0,s2
 424              	.LEHB3:
 425 0294 97000000 		call	_Unwind_Resume@plt
 425      E7800000 
 426              	.LVL35:
 427              	.LEHE3:
 428              		.cfi_endproc
 429              	.LFE22:
 430              		.globl	__gxx_personality_v0
 431              		.section	.gcc_except_table,"a",@progbits
 432              	.LLSDA22:
 433 0000 FF       		.byte	0xff
 434 0001 FF       		.byte	0xff
 435 0002 03       		.byte	0x3
 436 0003 34       		.byte	0x34
 437 0004 00000000 		.4byte	.LEHB0-.LFB22
 438 0008 00000000 		.4byte	.LEHE0-.LEHB0
 439 000c 00000000 		.4byte	0
 440 0010 00       		.byte	0
 441 0011 00000000 		.4byte	.LEHB1-.LFB22
 442 0015 00000000 		.4byte	.LEHE1-.LEHB1
 443 0019 00000000 		.4byte	.L27-.LFB22
 444 001d 00       		.byte	0
 445 001e 00000000 		.4byte	.LEHB2-.LFB22
 446 0022 00000000 		.4byte	.LEHE2-.LEHB2
 447 0026 00000000 		.4byte	0
 448 002a 00       		.byte	0
 449 002b 00000000 		.4byte	.LEHB3-.LFB22
 450 002f 00000000 		.4byte	.LEHE3-.LEHB3
 451 0033 00000000 		.4byte	0
 452 0037 00       		.byte	0
 453              		.text
 455              		.align	2
 456              		.globl	_ZN3TCB8dispatchEv
GAS LISTING /tmp/ccYdQEd2.s 			page 11


 458              	_ZN3TCB8dispatchEv:
 459              	.LFB25:
  47:src/tcb.cpp   **** void TCB::dispatch(){
 460              		.loc 1 47 21 is_stmt 1
 461              		.cfi_startproc
 462              		.cfi_personality 0x9b,DW.ref.__gxx_personality_v0
 463              		.cfi_lsda 0x1b,.LLSDA25
 464 029c 130101FE 		addi	sp,sp,-32
 465              		.cfi_def_cfa_offset 32
 466 02a0 233C1100 		sd	ra,24(sp)
 467 02a4 23388100 		sd	s0,16(sp)
 468 02a8 23349100 		sd	s1,8(sp)
 469 02ac 23302101 		sd	s2,0(sp)
 470              		.cfi_offset 1, -8
 471              		.cfi_offset 8, -16
 472              		.cfi_offset 9, -24
 473              		.cfi_offset 18, -32
 474 02b0 13040102 		addi	s0,sp,32
 475              		.cfi_def_cfa 8, 0
  48:src/tcb.cpp   ****     TCB *oldRunning=running;
 476              		.loc 1 48 5
  48:src/tcb.cpp   ****     TCB *oldRunning=running;
 477              		.loc 1 48 10 is_stmt 0
 478 02b4 97040000 		ld	s1,.LANCHOR0+8
 478      83B40400 
 479              	.LVL36:
  49:src/tcb.cpp   ****     if (!running->finished && !running->blocked) {
 480              		.loc 1 49 5 is_stmt 1
  49:src/tcb.cpp   ****     if (!running->finished && !running->blocked) {
 481              		.loc 1 49 19 is_stmt 0
 482 02bc 83C78403 		lbu	a5,56(s1)
  49:src/tcb.cpp   ****     if (!running->finished && !running->blocked) {
 483              		.loc 1 49 5
 484 02c0 63960700 		bnez	a5,.L31
  49:src/tcb.cpp   ****     if (!running->finished && !running->blocked) {
 485              		.loc 1 49 41 discriminator 1
 486 02c4 83C79403 		lbu	a5,57(s1)
  49:src/tcb.cpp   ****     if (!running->finished && !running->blocked) {
 487              		.loc 1 49 28 discriminator 1
 488 02c8 63800708 		beqz	a5,.L34
 489              	.L31:
  52:src/tcb.cpp   ****     if (running->finished) delete running;
 490              		.loc 1 52 5 is_stmt 1
  52:src/tcb.cpp   ****     if (running->finished) delete running;
 491              		.loc 1 52 18 is_stmt 0
 492 02cc 17090000 		ld	s2,.LANCHOR0+8
 492      03390900 
 493 02d4 83478903 		lbu	a5,56(s2)
  52:src/tcb.cpp   ****     if (running->finished) delete running;
 494              		.loc 1 52 5
 495 02d8 63800702 		beqz	a5,.L32
  52:src/tcb.cpp   ****     if (running->finished) delete running;
 496              		.loc 1 52 28 is_stmt 1 discriminator 1
  52:src/tcb.cpp   ****     if (running->finished) delete running;
 497              		.loc 1 52 42 is_stmt 0 discriminator 1
 498 02dc 630E0900 		beqz	s2,.L32
 499              	.LVL37:
GAS LISTING /tmp/ccYdQEd2.s 			page 12


 500              	.LBB15:
 501              	.LBB16:
  26:src/../h/tcb.hpp **** 
  27:src/../h/tcb.hpp ****     ~TCB() { MemoryAllocator::mem_free(this->stack); }
 502              		.loc 2 27 14 is_stmt 1
 503              		.loc 2 27 39 is_stmt 0
 504 02e0 03350901 		ld	a0,16(s2)
 505 02e4 97000000 		call	_ZN15MemoryAllocator8mem_freeEPv@plt
 505      E7800000 
 506              	.LVL38:
 507              	.LBE16:
 508              	.LBE15:
  52:src/tcb.cpp   ****     if (running->finished) delete running;
 509              		.loc 1 52 35
 510 02ec 13050900 		mv	a0,s2
 511              	.LEHB4:
 512 02f0 97000000 		call	_ZN3TCBdlEPv
 512      E7800000 
 513              	.LVL39:
 514              	.L32:
  53:src/tcb.cpp   ****     running=Scheduler::get();
 515              		.loc 1 53 5 is_stmt 1
  53:src/tcb.cpp   ****     running=Scheduler::get();
 516              		.loc 1 53 27 is_stmt 0
 517 02f8 97000000 		call	_ZN9Scheduler3getEv@plt
 517      E7800000 
 518              	.LVL40:
  53:src/tcb.cpp   ****     running=Scheduler::get();
 519              		.loc 1 53 12
 520 0300 17090000 		lla	s2,.LANCHOR0
 520      13090900 
 521 0308 2334A900 		sd	a0,8(s2)
  54:src/tcb.cpp   ****     Riscv::push();
 522              		.loc 1 54 5 is_stmt 1
  54:src/tcb.cpp   ****     Riscv::push();
 523              		.loc 1 54 16 is_stmt 0
 524 030c 97000000 		call	_ZN5Riscv4pushEv@plt
 524      E7800000 
 525              	.LVL41:
  55:src/tcb.cpp   ****     contextSwitch(&oldRunning->context, &running->context);
 526              		.loc 1 55 5 is_stmt 1
  55:src/tcb.cpp   ****     contextSwitch(&oldRunning->context, &running->context);
 527              		.loc 1 55 51 is_stmt 0
 528 0314 83358900 		ld	a1,8(s2)
  55:src/tcb.cpp   ****     contextSwitch(&oldRunning->context, &running->context);
 529              		.loc 1 55 18
 530 0318 93850502 		addi	a1,a1,32
 531 031c 13850402 		addi	a0,s1,32
 532 0320 97000000 		call	_ZN3TCB13contextSwitchEPNS_7ContextES1_@plt
 532      E7800000 
 533              	.LVL42:
  56:src/tcb.cpp   ****     Riscv::pop();
 534              		.loc 1 56 5 is_stmt 1
  56:src/tcb.cpp   ****     Riscv::pop();
 535              		.loc 1 56 15 is_stmt 0
 536 0328 97000000 		call	_ZN5Riscv3popEv@plt
 536      E7800000 
GAS LISTING /tmp/ccYdQEd2.s 			page 13


 537              	.LVL43:
  57:src/tcb.cpp   **** }
 538              		.loc 1 57 1
 539 0330 83308101 		ld	ra,24(sp)
 540              		.cfi_remember_state
 541              		.cfi_restore 1
 542 0334 03340101 		ld	s0,16(sp)
 543              		.cfi_restore 8
 544              		.cfi_def_cfa 2, 32
 545 0338 83348100 		ld	s1,8(sp)
 546              		.cfi_restore 9
 547              	.LVL44:
 548 033c 03390100 		ld	s2,0(sp)
 549              		.cfi_restore 18
 550 0340 13010102 		addi	sp,sp,32
 551              		.cfi_def_cfa_offset 0
 552 0344 67800000 		jr	ra
 553              	.LVL45:
 554              	.L34:
 555              		.cfi_restore_state
  50:src/tcb.cpp   ****         Scheduler::put(oldRunning);
 556              		.loc 1 50 9 is_stmt 1
  50:src/tcb.cpp   ****         Scheduler::put(oldRunning);
 557              		.loc 1 50 23 is_stmt 0
 558 0348 13850400 		mv	a0,s1
 559 034c 97000000 		call	_ZN9Scheduler3putEP3TCB@plt
 559      E7800000 
 560              	.LVL46:
 561              	.LEHE4:
 562 0354 6FF09FF7 		j	.L31
 563              		.cfi_endproc
 564              	.LFE25:
 565              		.section	.gcc_except_table
 566              	.LLSDA25:
 567 0038 FF       		.byte	0xff
 568 0039 FF       		.byte	0xff
 569 003a 03       		.byte	0x3
 570 003b 0D       		.byte	0xd
 571 003c 00000000 		.4byte	.LEHB4-.LFB25
 572 0040 00000000 		.4byte	.LEHE4-.LEHB4
 573 0044 00000000 		.4byte	0
 574 0048 00       		.byte	0
 575              		.text
 577              		.globl	_ZN3TCB2idE
 578              		.globl	_ZN3TCB7runningE
 579              		.bss
 580              		.align	3
 581              		.set	.LANCHOR0,. + 0
 584              	_ZN3TCB2idE:
 585 0000 00000000 		.zero	4
 586 0004 00000000 		.zero	4
 589              	_ZN3TCB7runningE:
 590 0008 00000000 		.zero	8
 590      00000000 
 591              		.text
 592              	.Letext0:
 593              		.file 3 "src/../h/../lib/hw.h"
GAS LISTING /tmp/ccYdQEd2.s 			page 14


 594              		.file 4 "src/../h/memoryAllocator.hpp"
 595              		.file 5 "src/../h/../h/syscallC.hpp"
 596              		.file 6 "src/../h/riscv.hpp"
 597              		.file 7 "src/../h/scheduler.hpp"
 3657              		.align	3
 3660              	DW.ref.__gxx_personality_v0:
 3661 0000 00000000 		.dword	__gxx_personality_v0
 3661      00000000 
 3662              		.ident	"GCC: (Ubuntu 9.4.0-1ubuntu1~20.04) 9.4.0"
 3663              		.section	.note.GNU-stack,"",@progbits
GAS LISTING /tmp/ccYdQEd2.s 			page 15

