GAS LISTING /tmp/cc0PSxHy.s 			page 1


   1              		.file	"ConsumerProducer_CPP_API_test.cpp"
   2              		.option pic
   3              		.option norelax
   4              		.text
   5              	.Ltext0:
   6              		.section	.text._ZN8Consumer3runEv,"axG",@progbits,_ZN8Consumer3runEv,comdat
   7              		.align	2
   8              		.weak	_ZN8Consumer3runEv
  10              	_ZN8Consumer3runEv:
  11              	.LFB12:
  12              		.file 1 "test/ConsumerProducer_CPP_API_test.cpp"
   1:test/ConsumerProducer_CPP_API_test.cpp **** #include "../h/syscallCpp.hpp"
   2:test/ConsumerProducer_CPP_API_test.cpp **** 
   3:test/ConsumerProducer_CPP_API_test.cpp **** #include "buffer_CPP_API.hpp"
   4:test/ConsumerProducer_CPP_API_test.cpp **** #include "printing.hpp"
   5:test/ConsumerProducer_CPP_API_test.cpp **** 
   6:test/ConsumerProducer_CPP_API_test.cpp **** 
   7:test/ConsumerProducer_CPP_API_test.cpp **** static Semaphore *waitForAll;
   8:test/ConsumerProducer_CPP_API_test.cpp **** 
   9:test/ConsumerProducer_CPP_API_test.cpp **** struct thread_data {
  10:test/ConsumerProducer_CPP_API_test.cpp ****     int id;
  11:test/ConsumerProducer_CPP_API_test.cpp ****     BufferCPP *buffer;
  12:test/ConsumerProducer_CPP_API_test.cpp ****     Semaphore *sem;
  13:test/ConsumerProducer_CPP_API_test.cpp **** };
  14:test/ConsumerProducer_CPP_API_test.cpp **** 
  15:test/ConsumerProducer_CPP_API_test.cpp **** static volatile int threadEnd = 0;
  16:test/ConsumerProducer_CPP_API_test.cpp **** 
  17:test/ConsumerProducer_CPP_API_test.cpp **** class ProducerKeyborad : public Thread {
  18:test/ConsumerProducer_CPP_API_test.cpp ****     thread_data *td;
  19:test/ConsumerProducer_CPP_API_test.cpp **** public:
  20:test/ConsumerProducer_CPP_API_test.cpp ****     ProducerKeyborad(thread_data *_td) : Thread(), td(_td) {}
  21:test/ConsumerProducer_CPP_API_test.cpp **** 
  22:test/ConsumerProducer_CPP_API_test.cpp ****     void run() override {
  23:test/ConsumerProducer_CPP_API_test.cpp ****         int key;
  24:test/ConsumerProducer_CPP_API_test.cpp ****         int i = 0;
  25:test/ConsumerProducer_CPP_API_test.cpp ****         while ((key = getc()) != 0x35) {
  26:test/ConsumerProducer_CPP_API_test.cpp ****             td->buffer->put(key);
  27:test/ConsumerProducer_CPP_API_test.cpp ****             i++;
  28:test/ConsumerProducer_CPP_API_test.cpp ****         }
  29:test/ConsumerProducer_CPP_API_test.cpp **** 
  30:test/ConsumerProducer_CPP_API_test.cpp ****         threadEnd = 1;
  31:test/ConsumerProducer_CPP_API_test.cpp ****         td->buffer->put('!');
  32:test/ConsumerProducer_CPP_API_test.cpp **** 
  33:test/ConsumerProducer_CPP_API_test.cpp ****         td->sem->signal();
  34:test/ConsumerProducer_CPP_API_test.cpp ****     }
  35:test/ConsumerProducer_CPP_API_test.cpp **** };
  36:test/ConsumerProducer_CPP_API_test.cpp **** 
  37:test/ConsumerProducer_CPP_API_test.cpp **** class Producer : public Thread {
  38:test/ConsumerProducer_CPP_API_test.cpp ****     thread_data *td;
  39:test/ConsumerProducer_CPP_API_test.cpp **** public:
  40:test/ConsumerProducer_CPP_API_test.cpp ****     Producer(thread_data *_td) : Thread(), td(_td) {}
  41:test/ConsumerProducer_CPP_API_test.cpp **** 
  42:test/ConsumerProducer_CPP_API_test.cpp ****     void run() override {
  43:test/ConsumerProducer_CPP_API_test.cpp ****         int i = 0;
  44:test/ConsumerProducer_CPP_API_test.cpp ****         while (!threadEnd) {
  45:test/ConsumerProducer_CPP_API_test.cpp ****             td->buffer->put(td->id + '0');
  46:test/ConsumerProducer_CPP_API_test.cpp ****             i++;
GAS LISTING /tmp/cc0PSxHy.s 			page 2


  47:test/ConsumerProducer_CPP_API_test.cpp ****             //Thread::sleep((i + td->id) % 5);
  48:test/ConsumerProducer_CPP_API_test.cpp ****         }
  49:test/ConsumerProducer_CPP_API_test.cpp **** 
  50:test/ConsumerProducer_CPP_API_test.cpp ****         td->sem->signal();
  51:test/ConsumerProducer_CPP_API_test.cpp ****     }
  52:test/ConsumerProducer_CPP_API_test.cpp **** };
  53:test/ConsumerProducer_CPP_API_test.cpp **** 
  54:test/ConsumerProducer_CPP_API_test.cpp **** class Consumer : public Thread {
  55:test/ConsumerProducer_CPP_API_test.cpp ****     thread_data *td;
  56:test/ConsumerProducer_CPP_API_test.cpp **** public:
  57:test/ConsumerProducer_CPP_API_test.cpp ****     Consumer(thread_data *_td) : Thread(), td(_td) {}
  58:test/ConsumerProducer_CPP_API_test.cpp **** 
  59:test/ConsumerProducer_CPP_API_test.cpp ****     void run() override {
  13              		.loc 1 59 10
  14              		.cfi_startproc
  15              	.LVL0:
  16 0000 130101FD 		addi	sp,sp,-48
  17              		.cfi_def_cfa_offset 48
  18 0004 23341102 		sd	ra,40(sp)
  19 0008 23308102 		sd	s0,32(sp)
  20 000c 233C9100 		sd	s1,24(sp)
  21 0010 23382101 		sd	s2,16(sp)
  22 0014 23343101 		sd	s3,8(sp)
  23              		.cfi_offset 1, -8
  24              		.cfi_offset 8, -16
  25              		.cfi_offset 9, -24
  26              		.cfi_offset 18, -32
  27              		.cfi_offset 19, -40
  28 0018 13040103 		addi	s0,sp,48
  29              		.cfi_def_cfa 8, 0
  30 001c 13090500 		mv	s2,a0
  60:test/ConsumerProducer_CPP_API_test.cpp ****         int i = 0;
  31              		.loc 1 60 9
  32              	.LVL1:
  33              		.loc 1 60 13 is_stmt 0
  34 0020 93090000 		li	s3,0
  35 0024 6F000001 		j	.L2
  36              	.LVL2:
  37              	.L7:
  38              	.LBB23:
  61:test/ConsumerProducer_CPP_API_test.cpp ****         while (!threadEnd) {
  62:test/ConsumerProducer_CPP_API_test.cpp ****             int key = td->buffer->get();
  63:test/ConsumerProducer_CPP_API_test.cpp ****             i++;
  64:test/ConsumerProducer_CPP_API_test.cpp **** 
  65:test/ConsumerProducer_CPP_API_test.cpp ****             Console::putc(key);
  66:test/ConsumerProducer_CPP_API_test.cpp **** 
  67:test/ConsumerProducer_CPP_API_test.cpp ****             if (i % 80 == 0) {
  68:test/ConsumerProducer_CPP_API_test.cpp ****                 Console::putc('\n');
  39              		.loc 1 68 17 is_stmt 1
  40              		.loc 1 68 30 is_stmt 0
  41 0028 1305A000 		li	a0,10
  42 002c 97000000 		call	_ZN7Console4putcEc@plt
  42      E7800000 
  43              	.LVL3:
  44              	.L2:
  45              	.LBE23:
  61:test/ConsumerProducer_CPP_API_test.cpp ****         while (!threadEnd) {
GAS LISTING /tmp/cc0PSxHy.s 			page 3


  46              		.loc 1 61 9 is_stmt 1
  61:test/ConsumerProducer_CPP_API_test.cpp ****         while (!threadEnd) {
  47              		.loc 1 61 16
  48 0034 97070000 		lw	a5,.LANCHOR0
  48      83A70700 
  49 003c 639A0704 		bnez	a5,.L3
  50              	.LBB24:
  62:test/ConsumerProducer_CPP_API_test.cpp ****             i++;
  51              		.loc 1 62 13
  62:test/ConsumerProducer_CPP_API_test.cpp ****             i++;
  52              		.loc 1 62 23 is_stmt 0
  53 0040 83370902 		ld	a5,32(s2)
  62:test/ConsumerProducer_CPP_API_test.cpp ****             i++;
  54              		.loc 1 62 38
  55 0044 03B58700 		ld	a0,8(a5)
  56 0048 97000000 		call	_ZN9BufferCPP3getEv@plt
  56      E7800000 
  57              	.LVL4:
  63:test/ConsumerProducer_CPP_API_test.cpp **** 
  58              		.loc 1 63 13 is_stmt 1
  63:test/ConsumerProducer_CPP_API_test.cpp **** 
  59              		.loc 1 63 14 is_stmt 0
  60 0050 9B841900 		addiw	s1,s3,1
  61 0054 9B890400 		sext.w	s3,s1
  62              	.LVL5:
  65:test/ConsumerProducer_CPP_API_test.cpp **** 
  63              		.loc 1 65 13 is_stmt 1
  65:test/ConsumerProducer_CPP_API_test.cpp **** 
  64              		.loc 1 65 26 is_stmt 0
  65 0058 1375F50F 		andi	a0,a0,0xff
  66              	.LVL6:
  67 005c 97000000 		call	_ZN7Console4putcEc@plt
  67      E7800000 
  68              	.LVL7:
  67:test/ConsumerProducer_CPP_API_test.cpp ****                 Console::putc('\n');
  69              		.loc 1 67 13 is_stmt 1
  67:test/ConsumerProducer_CPP_API_test.cpp ****                 Console::putc('\n');
  70              		.loc 1 67 19 is_stmt 0
  71 0064 93070005 		li	a5,80
  72 0068 BBE4F402 		remw	s1,s1,a5
  73              	.LVL8:
  67:test/ConsumerProducer_CPP_API_test.cpp ****                 Console::putc('\n');
  74              		.loc 1 67 13
  75 006c E39404FC 		bnez	s1,.L2
  76 0070 6FF09FFB 		j	.L7
  77              	.L8:
  78              	.LBE24:
  79              	.LBB25:
  69:test/ConsumerProducer_CPP_API_test.cpp ****             }
  70:test/ConsumerProducer_CPP_API_test.cpp ****         }
  71:test/ConsumerProducer_CPP_API_test.cpp **** 
  72:test/ConsumerProducer_CPP_API_test.cpp ****         while (td->buffer->getCnt() > 0) {
  73:test/ConsumerProducer_CPP_API_test.cpp ****             int key = td->buffer->get();
  80              		.loc 1 73 13 is_stmt 1
  81              		.loc 1 73 23 is_stmt 0
  82 0074 83370902 		ld	a5,32(s2)
  83              		.loc 1 73 38
GAS LISTING /tmp/cc0PSxHy.s 			page 4


  84 0078 03B58700 		ld	a0,8(a5)
  85 007c 97000000 		call	_ZN9BufferCPP3getEv@plt
  85      E7800000 
  86              	.LVL9:
  74:test/ConsumerProducer_CPP_API_test.cpp ****             Console::putc(key);
  87              		.loc 1 74 13 is_stmt 1
  88              		.loc 1 74 26 is_stmt 0
  89 0084 1375F50F 		andi	a0,a0,0xff
  90              	.LVL10:
  91 0088 97000000 		call	_ZN7Console4putcEc@plt
  91      E7800000 
  92              	.LVL11:
  93              	.L3:
  94              	.LBE25:
  72:test/ConsumerProducer_CPP_API_test.cpp ****             int key = td->buffer->get();
  95              		.loc 1 72 9 is_stmt 1
  72:test/ConsumerProducer_CPP_API_test.cpp ****             int key = td->buffer->get();
  96              		.loc 1 72 37
  72:test/ConsumerProducer_CPP_API_test.cpp ****             int key = td->buffer->get();
  97              		.loc 1 72 16 is_stmt 0
  98 0090 83370902 		ld	a5,32(s2)
  72:test/ConsumerProducer_CPP_API_test.cpp ****             int key = td->buffer->get();
  99              		.loc 1 72 34
 100 0094 03B58700 		ld	a0,8(a5)
 101 0098 97000000 		call	_ZN9BufferCPP6getCntEv@plt
 101      E7800000 
 102              	.LVL12:
  72:test/ConsumerProducer_CPP_API_test.cpp ****             int key = td->buffer->get();
 103              		.loc 1 72 37
 104 00a0 E34AA0FC 		bgtz	a0,.L8
  75:test/ConsumerProducer_CPP_API_test.cpp ****         }
  76:test/ConsumerProducer_CPP_API_test.cpp **** 
  77:test/ConsumerProducer_CPP_API_test.cpp ****         td->sem->signal();
 105              		.loc 1 77 9 is_stmt 1
 106 00a4 83370902 		ld	a5,32(s2)
 107              		.loc 1 77 24 is_stmt 0
 108 00a8 03B50701 		ld	a0,16(a5)
 109 00ac 97000000 		call	_ZN9Semaphore6signalEv@plt
 109      E7800000 
 110              	.LVL13:
  78:test/ConsumerProducer_CPP_API_test.cpp ****     }
 111              		.loc 1 78 5
 112 00b4 83308102 		ld	ra,40(sp)
 113              		.cfi_restore 1
 114 00b8 03340102 		ld	s0,32(sp)
 115              		.cfi_restore 8
 116              		.cfi_def_cfa 2, 48
 117 00bc 83348101 		ld	s1,24(sp)
 118              		.cfi_restore 9
 119 00c0 03390101 		ld	s2,16(sp)
 120              		.cfi_restore 18
 121              	.LVL14:
 122 00c4 83398100 		ld	s3,8(sp)
 123              		.cfi_restore 19
 124              	.LVL15:
 125 00c8 13010103 		addi	sp,sp,48
 126              		.cfi_def_cfa_offset 0
GAS LISTING /tmp/cc0PSxHy.s 			page 5


 127 00cc 67800000 		jr	ra
 128              		.cfi_endproc
 129              	.LFE12:
 131              		.section	.text._ZN8ConsumerD2Ev,"axG",@progbits,_ZN8ConsumerD5Ev,comdat
 132              		.align	2
 133              		.weak	_ZN8ConsumerD2Ev
 135              	_ZN8ConsumerD2Ev:
 136              	.LFB15:
  54:test/ConsumerProducer_CPP_API_test.cpp ****     thread_data *td;
 137              		.loc 1 54 7 is_stmt 1
 138              		.cfi_startproc
 139              	.LVL16:
 140 0000 130101FF 		addi	sp,sp,-16
 141              		.cfi_def_cfa_offset 16
 142 0004 23341100 		sd	ra,8(sp)
 143 0008 23308100 		sd	s0,0(sp)
 144              		.cfi_offset 1, -8
 145              		.cfi_offset 8, -16
 146 000c 13040101 		addi	s0,sp,16
 147              		.cfi_def_cfa 8, 0
 148              	.LBB26:
  54:test/ConsumerProducer_CPP_API_test.cpp ****     thread_data *td;
 149              		.loc 1 54 7 is_stmt 0
 150 0010 97070000 		lla	a5,_ZTV8Consumer+16
 150      93870700 
 151 0018 2330F500 		sd	a5,0(a0)
 152 001c 97000000 		call	_ZN6ThreadD2Ev@plt
 152      E7800000 
 153              	.LVL17:
 154              	.LBE26:
 155 0024 83308100 		ld	ra,8(sp)
 156              		.cfi_restore 1
 157 0028 03340100 		ld	s0,0(sp)
 158              		.cfi_restore 8
 159              		.cfi_def_cfa 2, 16
 160 002c 13010101 		addi	sp,sp,16
 161              		.cfi_def_cfa_offset 0
 162 0030 67800000 		jr	ra
 163              		.cfi_endproc
 164              	.LFE15:
 166              		.weak	_ZN8ConsumerD1Ev
 167              		.set	_ZN8ConsumerD1Ev,_ZN8ConsumerD2Ev
 168              		.section	.text._ZN8ConsumerD0Ev,"axG",@progbits,_ZN8ConsumerD5Ev,comdat
 169              		.align	2
 170              		.weak	_ZN8ConsumerD0Ev
 172              	_ZN8ConsumerD0Ev:
 173              	.LFB17:
  54:test/ConsumerProducer_CPP_API_test.cpp ****     thread_data *td;
 174              		.loc 1 54 7 is_stmt 1
 175              		.cfi_startproc
 176              	.LVL18:
 177 0000 130101FE 		addi	sp,sp,-32
 178              		.cfi_def_cfa_offset 32
 179 0004 233C1100 		sd	ra,24(sp)
 180 0008 23388100 		sd	s0,16(sp)
 181 000c 23349100 		sd	s1,8(sp)
 182              		.cfi_offset 1, -8
GAS LISTING /tmp/cc0PSxHy.s 			page 6


 183              		.cfi_offset 8, -16
 184              		.cfi_offset 9, -24
 185 0010 13040102 		addi	s0,sp,32
 186              		.cfi_def_cfa 8, 0
 187 0014 93040500 		mv	s1,a0
 188              	.LVL19:
 189              	.LBB27:
 190              	.LBB28:
  54:test/ConsumerProducer_CPP_API_test.cpp ****     thread_data *td;
 191              		.loc 1 54 7 is_stmt 0
 192 0018 97070000 		lla	a5,_ZTV8Consumer+16
 192      93870700 
 193 0020 2330F500 		sd	a5,0(a0)
 194 0024 97000000 		call	_ZN6ThreadD2Ev@plt
 194      E7800000 
 195              	.LVL20:
 196              	.LBE28:
 197              	.LBE27:
 198 002c 13850400 		mv	a0,s1
 199 0030 97000000 		call	_ZdlPv@plt
 199      E7800000 
 200              	.LVL21:
 201 0038 83308101 		ld	ra,24(sp)
 202              		.cfi_restore 1
 203 003c 03340101 		ld	s0,16(sp)
 204              		.cfi_restore 8
 205              		.cfi_def_cfa 2, 32
 206 0040 83348100 		ld	s1,8(sp)
 207              		.cfi_restore 9
 208              	.LVL22:
 209 0044 13010102 		addi	sp,sp,32
 210              		.cfi_def_cfa_offset 0
 211 0048 67800000 		jr	ra
 212              		.cfi_endproc
 213              	.LFE17:
 215              		.section	.text._ZN16ProducerKeyboradD2Ev,"axG",@progbits,_ZN16ProducerKeyboradD5Ev,comdat
 216              		.align	2
 217              		.weak	_ZN16ProducerKeyboradD2Ev
 219              	_ZN16ProducerKeyboradD2Ev:
 220              	.LFB23:
  17:test/ConsumerProducer_CPP_API_test.cpp ****     thread_data *td;
 221              		.loc 1 17 7 is_stmt 1
 222              		.cfi_startproc
 223              	.LVL23:
 224 0000 130101FF 		addi	sp,sp,-16
 225              		.cfi_def_cfa_offset 16
 226 0004 23341100 		sd	ra,8(sp)
 227 0008 23308100 		sd	s0,0(sp)
 228              		.cfi_offset 1, -8
 229              		.cfi_offset 8, -16
 230 000c 13040101 		addi	s0,sp,16
 231              		.cfi_def_cfa 8, 0
 232              	.LBB29:
  17:test/ConsumerProducer_CPP_API_test.cpp ****     thread_data *td;
 233              		.loc 1 17 7 is_stmt 0
 234 0010 97070000 		lla	a5,_ZTV16ProducerKeyborad+16
 234      93870700 
GAS LISTING /tmp/cc0PSxHy.s 			page 7


 235 0018 2330F500 		sd	a5,0(a0)
 236 001c 97000000 		call	_ZN6ThreadD2Ev@plt
 236      E7800000 
 237              	.LVL24:
 238              	.LBE29:
 239 0024 83308100 		ld	ra,8(sp)
 240              		.cfi_restore 1
 241 0028 03340100 		ld	s0,0(sp)
 242              		.cfi_restore 8
 243              		.cfi_def_cfa 2, 16
 244 002c 13010101 		addi	sp,sp,16
 245              		.cfi_def_cfa_offset 0
 246 0030 67800000 		jr	ra
 247              		.cfi_endproc
 248              	.LFE23:
 250              		.weak	_ZN16ProducerKeyboradD1Ev
 251              		.set	_ZN16ProducerKeyboradD1Ev,_ZN16ProducerKeyboradD2Ev
 252              		.section	.text._ZN16ProducerKeyboradD0Ev,"axG",@progbits,_ZN16ProducerKeyboradD5Ev,comdat
 253              		.align	2
 254              		.weak	_ZN16ProducerKeyboradD0Ev
 256              	_ZN16ProducerKeyboradD0Ev:
 257              	.LFB25:
  17:test/ConsumerProducer_CPP_API_test.cpp ****     thread_data *td;
 258              		.loc 1 17 7 is_stmt 1
 259              		.cfi_startproc
 260              	.LVL25:
 261 0000 130101FE 		addi	sp,sp,-32
 262              		.cfi_def_cfa_offset 32
 263 0004 233C1100 		sd	ra,24(sp)
 264 0008 23388100 		sd	s0,16(sp)
 265 000c 23349100 		sd	s1,8(sp)
 266              		.cfi_offset 1, -8
 267              		.cfi_offset 8, -16
 268              		.cfi_offset 9, -24
 269 0010 13040102 		addi	s0,sp,32
 270              		.cfi_def_cfa 8, 0
 271 0014 93040500 		mv	s1,a0
 272              	.LVL26:
 273              	.LBB30:
 274              	.LBB31:
  17:test/ConsumerProducer_CPP_API_test.cpp ****     thread_data *td;
 275              		.loc 1 17 7 is_stmt 0
 276 0018 97070000 		lla	a5,_ZTV16ProducerKeyborad+16
 276      93870700 
 277 0020 2330F500 		sd	a5,0(a0)
 278 0024 97000000 		call	_ZN6ThreadD2Ev@plt
 278      E7800000 
 279              	.LVL27:
 280              	.LBE31:
 281              	.LBE30:
 282 002c 13850400 		mv	a0,s1
 283 0030 97000000 		call	_ZdlPv@plt
 283      E7800000 
 284              	.LVL28:
 285 0038 83308101 		ld	ra,24(sp)
 286              		.cfi_restore 1
 287 003c 03340101 		ld	s0,16(sp)
GAS LISTING /tmp/cc0PSxHy.s 			page 8


 288              		.cfi_restore 8
 289              		.cfi_def_cfa 2, 32
 290 0040 83348100 		ld	s1,8(sp)
 291              		.cfi_restore 9
 292              	.LVL29:
 293 0044 13010102 		addi	sp,sp,32
 294              		.cfi_def_cfa_offset 0
 295 0048 67800000 		jr	ra
 296              		.cfi_endproc
 297              	.LFE25:
 299              		.section	.text._ZN8ProducerD2Ev,"axG",@progbits,_ZN8ProducerD5Ev,comdat
 300              		.align	2
 301              		.weak	_ZN8ProducerD2Ev
 303              	_ZN8ProducerD2Ev:
 304              	.LFB19:
  37:test/ConsumerProducer_CPP_API_test.cpp ****     thread_data *td;
 305              		.loc 1 37 7 is_stmt 1
 306              		.cfi_startproc
 307              	.LVL30:
 308 0000 130101FF 		addi	sp,sp,-16
 309              		.cfi_def_cfa_offset 16
 310 0004 23341100 		sd	ra,8(sp)
 311 0008 23308100 		sd	s0,0(sp)
 312              		.cfi_offset 1, -8
 313              		.cfi_offset 8, -16
 314 000c 13040101 		addi	s0,sp,16
 315              		.cfi_def_cfa 8, 0
 316              	.LBB32:
  37:test/ConsumerProducer_CPP_API_test.cpp ****     thread_data *td;
 317              		.loc 1 37 7 is_stmt 0
 318 0010 97070000 		lla	a5,_ZTV8Producer+16
 318      93870700 
 319 0018 2330F500 		sd	a5,0(a0)
 320 001c 97000000 		call	_ZN6ThreadD2Ev@plt
 320      E7800000 
 321              	.LVL31:
 322              	.LBE32:
 323 0024 83308100 		ld	ra,8(sp)
 324              		.cfi_restore 1
 325 0028 03340100 		ld	s0,0(sp)
 326              		.cfi_restore 8
 327              		.cfi_def_cfa 2, 16
 328 002c 13010101 		addi	sp,sp,16
 329              		.cfi_def_cfa_offset 0
 330 0030 67800000 		jr	ra
 331              		.cfi_endproc
 332              	.LFE19:
 334              		.weak	_ZN8ProducerD1Ev
 335              		.set	_ZN8ProducerD1Ev,_ZN8ProducerD2Ev
 336              		.section	.text._ZN8ProducerD0Ev,"axG",@progbits,_ZN8ProducerD5Ev,comdat
 337              		.align	2
 338              		.weak	_ZN8ProducerD0Ev
 340              	_ZN8ProducerD0Ev:
 341              	.LFB21:
  37:test/ConsumerProducer_CPP_API_test.cpp ****     thread_data *td;
 342              		.loc 1 37 7 is_stmt 1
 343              		.cfi_startproc
GAS LISTING /tmp/cc0PSxHy.s 			page 9


 344              	.LVL32:
 345 0000 130101FE 		addi	sp,sp,-32
 346              		.cfi_def_cfa_offset 32
 347 0004 233C1100 		sd	ra,24(sp)
 348 0008 23388100 		sd	s0,16(sp)
 349 000c 23349100 		sd	s1,8(sp)
 350              		.cfi_offset 1, -8
 351              		.cfi_offset 8, -16
 352              		.cfi_offset 9, -24
 353 0010 13040102 		addi	s0,sp,32
 354              		.cfi_def_cfa 8, 0
 355 0014 93040500 		mv	s1,a0
 356              	.LVL33:
 357              	.LBB33:
 358              	.LBB34:
  37:test/ConsumerProducer_CPP_API_test.cpp ****     thread_data *td;
 359              		.loc 1 37 7 is_stmt 0
 360 0018 97070000 		lla	a5,_ZTV8Producer+16
 360      93870700 
 361 0020 2330F500 		sd	a5,0(a0)
 362 0024 97000000 		call	_ZN6ThreadD2Ev@plt
 362      E7800000 
 363              	.LVL34:
 364              	.LBE34:
 365              	.LBE33:
 366 002c 13850400 		mv	a0,s1
 367 0030 97000000 		call	_ZdlPv@plt
 367      E7800000 
 368              	.LVL35:
 369 0038 83308101 		ld	ra,24(sp)
 370              		.cfi_restore 1
 371 003c 03340101 		ld	s0,16(sp)
 372              		.cfi_restore 8
 373              		.cfi_def_cfa 2, 32
 374 0040 83348100 		ld	s1,8(sp)
 375              		.cfi_restore 9
 376              	.LVL36:
 377 0044 13010102 		addi	sp,sp,32
 378              		.cfi_def_cfa_offset 0
 379 0048 67800000 		jr	ra
 380              		.cfi_endproc
 381              	.LFE21:
 383              		.section	.text._ZN16ProducerKeyborad3runEv,"axG",@progbits,_ZN16ProducerKeyborad3runEv,comdat
 384              		.align	2
 385              		.weak	_ZN16ProducerKeyborad3runEv
 387              	_ZN16ProducerKeyborad3runEv:
 388              	.LFB4:
  22:test/ConsumerProducer_CPP_API_test.cpp ****         int key;
 389              		.loc 1 22 10 is_stmt 1
 390              		.cfi_startproc
 391              	.LVL37:
 392 0000 130101FE 		addi	sp,sp,-32
 393              		.cfi_def_cfa_offset 32
 394 0004 233C1100 		sd	ra,24(sp)
 395 0008 23388100 		sd	s0,16(sp)
 396 000c 23349100 		sd	s1,8(sp)
 397              		.cfi_offset 1, -8
GAS LISTING /tmp/cc0PSxHy.s 			page 10


 398              		.cfi_offset 8, -16
 399              		.cfi_offset 9, -24
 400 0010 13040102 		addi	s0,sp,32
 401              		.cfi_def_cfa 8, 0
 402 0014 93040500 		mv	s1,a0
  23:test/ConsumerProducer_CPP_API_test.cpp ****         int i = 0;
 403              		.loc 1 23 9
  24:test/ConsumerProducer_CPP_API_test.cpp ****         while ((key = getc()) != 0x35) {
 404              		.loc 1 24 9
 405              	.LVL38:
 406              	.L23:
  25:test/ConsumerProducer_CPP_API_test.cpp ****             td->buffer->put(key);
 407              		.loc 1 25 9
  25:test/ConsumerProducer_CPP_API_test.cpp ****             td->buffer->put(key);
 408              		.loc 1 25 31
  25:test/ConsumerProducer_CPP_API_test.cpp ****             td->buffer->put(key);
 409              		.loc 1 25 27 is_stmt 0
 410 0018 97000000 		call	_Z4getcv@plt
 410      E7800000 
 411              	.LVL39:
  25:test/ConsumerProducer_CPP_API_test.cpp ****             td->buffer->put(key);
 412              		.loc 1 25 21
 413 0020 9B050500 		sext.w	a1,a0
 414              	.LVL40:
  25:test/ConsumerProducer_CPP_API_test.cpp ****             td->buffer->put(key);
 415              		.loc 1 25 31
 416 0024 93075003 		li	a5,53
 417 0028 638CF500 		beq	a1,a5,.L22
  26:test/ConsumerProducer_CPP_API_test.cpp ****             i++;
 418              		.loc 1 26 13 is_stmt 1
 419 002c 83B70402 		ld	a5,32(s1)
  26:test/ConsumerProducer_CPP_API_test.cpp ****             i++;
 420              		.loc 1 26 28 is_stmt 0
 421 0030 03B58700 		ld	a0,8(a5)
 422 0034 97000000 		call	_ZN9BufferCPP3putEi@plt
 422      E7800000 
 423              	.LVL41:
  27:test/ConsumerProducer_CPP_API_test.cpp ****         }
 424              		.loc 1 27 13 is_stmt 1
  25:test/ConsumerProducer_CPP_API_test.cpp ****             td->buffer->put(key);
 425              		.loc 1 25 9 is_stmt 0
 426 003c 6FF0DFFD 		j	.L23
 427              	.LVL42:
 428              	.L22:
  30:test/ConsumerProducer_CPP_API_test.cpp ****         td->buffer->put('!');
 429              		.loc 1 30 9 is_stmt 1
  30:test/ConsumerProducer_CPP_API_test.cpp ****         td->buffer->put('!');
 430              		.loc 1 30 19 is_stmt 0
 431 0040 93071000 		li	a5,1
 432 0044 17070000 		sw	a5,.LANCHOR0,a4
 432      2320F700 
  31:test/ConsumerProducer_CPP_API_test.cpp **** 
 433              		.loc 1 31 9 is_stmt 1
 434 004c 83B70402 		ld	a5,32(s1)
  31:test/ConsumerProducer_CPP_API_test.cpp **** 
 435              		.loc 1 31 24 is_stmt 0
 436 0050 93051002 		li	a1,33
GAS LISTING /tmp/cc0PSxHy.s 			page 11


 437              	.LVL43:
 438 0054 03B58700 		ld	a0,8(a5)
 439              	.LVL44:
 440 0058 97000000 		call	_ZN9BufferCPP3putEi@plt
 440      E7800000 
 441              	.LVL45:
  33:test/ConsumerProducer_CPP_API_test.cpp ****     }
 442              		.loc 1 33 9 is_stmt 1
 443 0060 83B70402 		ld	a5,32(s1)
  33:test/ConsumerProducer_CPP_API_test.cpp ****     }
 444              		.loc 1 33 24 is_stmt 0
 445 0064 03B50701 		ld	a0,16(a5)
 446 0068 97000000 		call	_ZN9Semaphore6signalEv@plt
 446      E7800000 
 447              	.LVL46:
  34:test/ConsumerProducer_CPP_API_test.cpp **** };
 448              		.loc 1 34 5
 449 0070 83308101 		ld	ra,24(sp)
 450              		.cfi_restore 1
 451 0074 03340101 		ld	s0,16(sp)
 452              		.cfi_restore 8
 453              		.cfi_def_cfa 2, 32
 454 0078 83348100 		ld	s1,8(sp)
 455              		.cfi_restore 9
 456              	.LVL47:
 457 007c 13010102 		addi	sp,sp,32
 458              		.cfi_def_cfa_offset 0
 459 0080 67800000 		jr	ra
 460              		.cfi_endproc
 461              	.LFE4:
 463              		.section	.text._ZN8Producer3runEv,"axG",@progbits,_ZN8Producer3runEv,comdat
 464              		.align	2
 465              		.weak	_ZN8Producer3runEv
 467              	_ZN8Producer3runEv:
 468              	.LFB8:
  42:test/ConsumerProducer_CPP_API_test.cpp ****         int i = 0;
 469              		.loc 1 42 10 is_stmt 1
 470              		.cfi_startproc
 471              	.LVL48:
 472 0000 130101FE 		addi	sp,sp,-32
 473              		.cfi_def_cfa_offset 32
 474 0004 233C1100 		sd	ra,24(sp)
 475 0008 23388100 		sd	s0,16(sp)
 476 000c 23349100 		sd	s1,8(sp)
 477              		.cfi_offset 1, -8
 478              		.cfi_offset 8, -16
 479              		.cfi_offset 9, -24
 480 0010 13040102 		addi	s0,sp,32
 481              		.cfi_def_cfa 8, 0
 482 0014 93040500 		mv	s1,a0
  43:test/ConsumerProducer_CPP_API_test.cpp ****         while (!threadEnd) {
 483              		.loc 1 43 9
 484              	.LVL49:
 485              	.L27:
  44:test/ConsumerProducer_CPP_API_test.cpp ****             td->buffer->put(td->id + '0');
 486              		.loc 1 44 9
  44:test/ConsumerProducer_CPP_API_test.cpp ****             td->buffer->put(td->id + '0');
GAS LISTING /tmp/cc0PSxHy.s 			page 12


 487              		.loc 1 44 16
 488 0018 97070000 		lw	a5,.LANCHOR0
 488      83A70700 
 489 0020 63900702 		bnez	a5,.L26
  45:test/ConsumerProducer_CPP_API_test.cpp ****             i++;
 490              		.loc 1 45 13
 491 0024 83B70402 		ld	a5,32(s1)
  45:test/ConsumerProducer_CPP_API_test.cpp ****             i++;
 492              		.loc 1 45 33 is_stmt 0
 493 0028 83A50700 		lw	a1,0(a5)
  45:test/ConsumerProducer_CPP_API_test.cpp ****             i++;
 494              		.loc 1 45 28
 495 002c 9B850503 		addiw	a1,a1,48
 496 0030 03B58700 		ld	a0,8(a5)
 497 0034 97000000 		call	_ZN9BufferCPP3putEi@plt
 497      E7800000 
 498              	.LVL50:
  46:test/ConsumerProducer_CPP_API_test.cpp ****             //Thread::sleep((i + td->id) % 5);
 499              		.loc 1 46 13 is_stmt 1
  44:test/ConsumerProducer_CPP_API_test.cpp ****             td->buffer->put(td->id + '0');
 500              		.loc 1 44 9 is_stmt 0
 501 003c 6FF0DFFD 		j	.L27
 502              	.L26:
  50:test/ConsumerProducer_CPP_API_test.cpp ****     }
 503              		.loc 1 50 9 is_stmt 1
 504 0040 83B70402 		ld	a5,32(s1)
  50:test/ConsumerProducer_CPP_API_test.cpp ****     }
 505              		.loc 1 50 24 is_stmt 0
 506 0044 03B50701 		ld	a0,16(a5)
 507 0048 97000000 		call	_ZN9Semaphore6signalEv@plt
 507      E7800000 
 508              	.LVL51:
  51:test/ConsumerProducer_CPP_API_test.cpp **** };
 509              		.loc 1 51 5
 510 0050 83308101 		ld	ra,24(sp)
 511              		.cfi_restore 1
 512 0054 03340101 		ld	s0,16(sp)
 513              		.cfi_restore 8
 514              		.cfi_def_cfa 2, 32
 515 0058 83348100 		ld	s1,8(sp)
 516              		.cfi_restore 9
 517              	.LVL52:
 518 005c 13010102 		addi	sp,sp,32
 519              		.cfi_def_cfa_offset 0
 520 0060 67800000 		jr	ra
 521              		.cfi_endproc
 522              	.LFE8:
 524              		.section	.rodata.str1.8,"aMS",@progbits,1
 525              		.align	3
 526              	.LC0:
 527 0000 556E6573 		.string	"Unesite broj proizvodjaca?\n"
 527      69746520 
 527      62726F6A 
 527      2070726F 
 527      697A766F 
 528 001c 00000000 		.align	3
 529              	.LC1:
GAS LISTING /tmp/cc0PSxHy.s 			page 13


 530 0020 556E6573 		.string	"Unesite velicinu bafera?\n"
 530      69746520 
 530      76656C69 
 530      63696E75 
 530      20626166 
 531 003a 00000000 		.align	3
 531      0000
 532              	.LC2:
 533 0040 42726F6A 		.string	"Broj proizvodjaca "
 533      2070726F 
 533      697A766F 
 533      646A6163 
 533      612000
 534 0053 00000000 		.align	3
 534      00
 535              	.LC3:
 536 0058 20692076 		.string	" i velicina bafera "
 536      656C6963 
 536      696E6120 
 536      62616665 
 536      72612000 
 537 006c 00000000 		.align	3
 538              	.LC4:
 539 0070 2E0A00   		.string	".\n"
 540 0073 00000000 		.align	3
 540      00
 541              	.LC5:
 542 0078 42726F6A 		.string	"Broj proizvodjaca ne sme biti manji od velicine bafera!\n"
 542      2070726F 
 542      697A766F 
 542      646A6163 
 542      61206E65 
 543 00b1 00000000 		.align	3
 543      000000
 544              	.LC6:
 545 00b8 42726F6A 		.string	"Broj proizvodjaca mora biti veci od nula!\n"
 545      2070726F 
 545      697A766F 
 545      646A6163 
 545      61206D6F 
 546              		.text
 547              		.align	2
 548              		.globl	_Z20testConsumerProducerv
 550              	_Z20testConsumerProducerv:
 551              	.LFB13:
  79:test/ConsumerProducer_CPP_API_test.cpp **** };
  80:test/ConsumerProducer_CPP_API_test.cpp **** 
  81:test/ConsumerProducer_CPP_API_test.cpp **** void testConsumerProducer() {
 552              		.loc 1 81 29 is_stmt 1
 553              		.cfi_startproc
 554              		.cfi_personality 0x9b,DW.ref.__gxx_personality_v0
 555              		.cfi_lsda 0x1b,.LLSDA13
 556 0000 130101F8 		addi	sp,sp,-128
 557              		.cfi_def_cfa_offset 128
 558 0004 233C1106 		sd	ra,120(sp)
 559 0008 23388106 		sd	s0,112(sp)
 560 000c 23349106 		sd	s1,104(sp)
GAS LISTING /tmp/cc0PSxHy.s 			page 14


 561 0010 23302107 		sd	s2,96(sp)
 562 0014 233C3105 		sd	s3,88(sp)
 563 0018 23384105 		sd	s4,80(sp)
 564 001c 23345105 		sd	s5,72(sp)
 565 0020 23306105 		sd	s6,64(sp)
 566 0024 233C7103 		sd	s7,56(sp)
 567 0028 23388103 		sd	s8,48(sp)
 568 002c 23349103 		sd	s9,40(sp)
 569              		.cfi_offset 1, -8
 570              		.cfi_offset 8, -16
 571              		.cfi_offset 9, -24
 572              		.cfi_offset 18, -32
 573              		.cfi_offset 19, -40
 574              		.cfi_offset 20, -48
 575              		.cfi_offset 21, -56
 576              		.cfi_offset 22, -64
 577              		.cfi_offset 23, -72
 578              		.cfi_offset 24, -80
 579              		.cfi_offset 25, -88
 580 0030 13040108 		addi	s0,sp,128
 581              		.cfi_def_cfa 8, 0
  82:test/ConsumerProducer_CPP_API_test.cpp ****     char input[30];
  83:test/ConsumerProducer_CPP_API_test.cpp ****     int n, threadNum;
  84:test/ConsumerProducer_CPP_API_test.cpp **** 
  85:test/ConsumerProducer_CPP_API_test.cpp ****     printString("Unesite broj proizvodjaca?\n");
  86:test/ConsumerProducer_CPP_API_test.cpp ****     getString(input, 30);
  87:test/ConsumerProducer_CPP_API_test.cpp ****     threadNum = stringToInt(input);
  88:test/ConsumerProducer_CPP_API_test.cpp **** 
  89:test/ConsumerProducer_CPP_API_test.cpp ****     printString("Unesite velicinu bafera?\n");
  90:test/ConsumerProducer_CPP_API_test.cpp ****     getString(input, 30);
  91:test/ConsumerProducer_CPP_API_test.cpp ****     n = stringToInt(input);
  92:test/ConsumerProducer_CPP_API_test.cpp **** 
  93:test/ConsumerProducer_CPP_API_test.cpp ****     printString("Broj proizvodjaca ");
  94:test/ConsumerProducer_CPP_API_test.cpp ****     printInt(threadNum);
  95:test/ConsumerProducer_CPP_API_test.cpp ****     printString(" i velicina bafera ");
  96:test/ConsumerProducer_CPP_API_test.cpp ****     printInt(n);
  97:test/ConsumerProducer_CPP_API_test.cpp ****     printString(".\n");
  98:test/ConsumerProducer_CPP_API_test.cpp **** 
  99:test/ConsumerProducer_CPP_API_test.cpp ****     if (threadNum > n) {
 100:test/ConsumerProducer_CPP_API_test.cpp ****         printString("Broj proizvodjaca ne sme biti manji od velicine bafera!\n");
 101:test/ConsumerProducer_CPP_API_test.cpp ****         return;
 102:test/ConsumerProducer_CPP_API_test.cpp ****     } else if (threadNum < 1) {
 103:test/ConsumerProducer_CPP_API_test.cpp ****         printString("Broj proizvodjaca mora biti veci od nula!\n");
 104:test/ConsumerProducer_CPP_API_test.cpp ****         return;
 105:test/ConsumerProducer_CPP_API_test.cpp ****     }
 106:test/ConsumerProducer_CPP_API_test.cpp **** 
 107:test/ConsumerProducer_CPP_API_test.cpp ****     BufferCPP *buffer = new BufferCPP(n);
 108:test/ConsumerProducer_CPP_API_test.cpp **** 
 109:test/ConsumerProducer_CPP_API_test.cpp ****     waitForAll = new Semaphore(0);
 110:test/ConsumerProducer_CPP_API_test.cpp ****     Thread *producers[threadNum];
 111:test/ConsumerProducer_CPP_API_test.cpp ****     thread_data threadData[threadNum + 1];
 112:test/ConsumerProducer_CPP_API_test.cpp **** 
 113:test/ConsumerProducer_CPP_API_test.cpp ****     threadData[threadNum].id = threadNum;
 114:test/ConsumerProducer_CPP_API_test.cpp ****     threadData[threadNum].buffer = buffer;
 115:test/ConsumerProducer_CPP_API_test.cpp ****     threadData[threadNum].sem = waitForAll;
 116:test/ConsumerProducer_CPP_API_test.cpp ****     Thread *consumer = new Consumer(&threadData[threadNum]);
 117:test/ConsumerProducer_CPP_API_test.cpp ****     consumer->start();
GAS LISTING /tmp/cc0PSxHy.s 			page 15


 118:test/ConsumerProducer_CPP_API_test.cpp **** 
 119:test/ConsumerProducer_CPP_API_test.cpp ****     threadData[0].id = 0;
 120:test/ConsumerProducer_CPP_API_test.cpp ****     threadData[0].buffer = buffer;
 121:test/ConsumerProducer_CPP_API_test.cpp ****     threadData[0].sem = waitForAll;
 122:test/ConsumerProducer_CPP_API_test.cpp ****     producers[0] = new ProducerKeyborad(&threadData[0]);
 123:test/ConsumerProducer_CPP_API_test.cpp ****     producers[0]->start();
 124:test/ConsumerProducer_CPP_API_test.cpp **** 
 125:test/ConsumerProducer_CPP_API_test.cpp ****     for (int i = 1; i < threadNum; i++) {
 126:test/ConsumerProducer_CPP_API_test.cpp ****         threadData[i].id = i;
 127:test/ConsumerProducer_CPP_API_test.cpp ****         threadData[i].buffer = buffer;
 128:test/ConsumerProducer_CPP_API_test.cpp ****         threadData[i].sem = waitForAll;
 129:test/ConsumerProducer_CPP_API_test.cpp **** 
 130:test/ConsumerProducer_CPP_API_test.cpp ****         producers[i] = new Producer(&threadData[i]);
 131:test/ConsumerProducer_CPP_API_test.cpp ****         producers[i]->start();
 132:test/ConsumerProducer_CPP_API_test.cpp **** 
 133:test/ConsumerProducer_CPP_API_test.cpp ****     }
 134:test/ConsumerProducer_CPP_API_test.cpp **** 
 135:test/ConsumerProducer_CPP_API_test.cpp ****     Thread::dispatch();
 136:test/ConsumerProducer_CPP_API_test.cpp **** 
 137:test/ConsumerProducer_CPP_API_test.cpp ****     for (int i = 0; i <= threadNum; i++) {
 138:test/ConsumerProducer_CPP_API_test.cpp ****         waitForAll->wait();
 139:test/ConsumerProducer_CPP_API_test.cpp ****     }
 140:test/ConsumerProducer_CPP_API_test.cpp **** 
 141:test/ConsumerProducer_CPP_API_test.cpp ****     delete waitForAll;
 142:test/ConsumerProducer_CPP_API_test.cpp ****     for (int i = 0; i < threadNum; i++) {
 143:test/ConsumerProducer_CPP_API_test.cpp ****         delete producers[i];
 144:test/ConsumerProducer_CPP_API_test.cpp ****     }
 145:test/ConsumerProducer_CPP_API_test.cpp ****     delete consumer;
 146:test/ConsumerProducer_CPP_API_test.cpp ****     delete buffer;
 582              		.loc 1 146 18 is_stmt 0
 583 0034 130C0100 		mv	s8,sp
  82:test/ConsumerProducer_CPP_API_test.cpp ****     char input[30];
 584              		.loc 1 82 5 is_stmt 1
  83:test/ConsumerProducer_CPP_API_test.cpp **** 
 585              		.loc 1 83 5
  85:test/ConsumerProducer_CPP_API_test.cpp ****     getString(input, 30);
 586              		.loc 1 85 5
  85:test/ConsumerProducer_CPP_API_test.cpp ****     getString(input, 30);
 587              		.loc 1 85 16 is_stmt 0
 588 0038 17050000 		lla	a0,.LC0
 588      13050500 
 589              	.LEHB0:
 590 0040 97000000 		call	_Z11printStringPKc@plt
 590      E7800000 
 591              	.LVL53:
  86:test/ConsumerProducer_CPP_API_test.cpp ****     threadNum = stringToInt(input);
 592              		.loc 1 86 5 is_stmt 1
  86:test/ConsumerProducer_CPP_API_test.cpp ****     threadNum = stringToInt(input);
 593              		.loc 1 86 14 is_stmt 0
 594 0048 9305E001 		li	a1,30
 595 004c 930404F8 		addi	s1,s0,-128
 596 0050 13850400 		mv	a0,s1
 597 0054 97000000 		call	_Z9getStringPci@plt
 597      E7800000 
 598              	.LVL54:
  87:test/ConsumerProducer_CPP_API_test.cpp **** 
 599              		.loc 1 87 5 is_stmt 1
GAS LISTING /tmp/cc0PSxHy.s 			page 16


  87:test/ConsumerProducer_CPP_API_test.cpp **** 
 600              		.loc 1 87 28 is_stmt 0
 601 005c 13850400 		mv	a0,s1
 602 0060 97000000 		call	_Z11stringToIntPKc@plt
 602      E7800000 
 603              	.LVL55:
 604 0068 93090500 		mv	s3,a0
 605              	.LVL56:
  89:test/ConsumerProducer_CPP_API_test.cpp ****     getString(input, 30);
 606              		.loc 1 89 5 is_stmt 1
  89:test/ConsumerProducer_CPP_API_test.cpp ****     getString(input, 30);
 607              		.loc 1 89 16 is_stmt 0
 608 006c 17050000 		lla	a0,.LC1
 608      13050500 
 609 0074 97000000 		call	_Z11printStringPKc@plt
 609      E7800000 
 610              	.LVL57:
  90:test/ConsumerProducer_CPP_API_test.cpp ****     n = stringToInt(input);
 611              		.loc 1 90 5 is_stmt 1
  90:test/ConsumerProducer_CPP_API_test.cpp ****     n = stringToInt(input);
 612              		.loc 1 90 14 is_stmt 0
 613 007c 9305E001 		li	a1,30
 614 0080 13850400 		mv	a0,s1
 615 0084 97000000 		call	_Z9getStringPci@plt
 615      E7800000 
 616              	.LVL58:
  91:test/ConsumerProducer_CPP_API_test.cpp **** 
 617              		.loc 1 91 5 is_stmt 1
  91:test/ConsumerProducer_CPP_API_test.cpp **** 
 618              		.loc 1 91 20 is_stmt 0
 619 008c 13850400 		mv	a0,s1
 620 0090 97000000 		call	_Z11stringToIntPKc@plt
 620      E7800000 
 621              	.LVL59:
 622 0098 93040500 		mv	s1,a0
 623              	.LVL60:
  93:test/ConsumerProducer_CPP_API_test.cpp ****     printInt(threadNum);
 624              		.loc 1 93 5 is_stmt 1
  93:test/ConsumerProducer_CPP_API_test.cpp ****     printInt(threadNum);
 625              		.loc 1 93 16 is_stmt 0
 626 009c 17050000 		lla	a0,.LC2
 626      13050500 
 627 00a4 97000000 		call	_Z11printStringPKc@plt
 627      E7800000 
 628              	.LVL61:
  94:test/ConsumerProducer_CPP_API_test.cpp ****     printString(" i velicina bafera ");
 629              		.loc 1 94 5 is_stmt 1
  94:test/ConsumerProducer_CPP_API_test.cpp ****     printString(" i velicina bafera ");
 630              		.loc 1 94 13 is_stmt 0
 631 00ac 13060000 		li	a2,0
 632 00b0 9305A000 		li	a1,10
 633 00b4 13850900 		mv	a0,s3
 634 00b8 97000000 		call	_Z8printIntiii@plt
 634      E7800000 
 635              	.LVL62:
  95:test/ConsumerProducer_CPP_API_test.cpp ****     printInt(n);
 636              		.loc 1 95 5 is_stmt 1
GAS LISTING /tmp/cc0PSxHy.s 			page 17


  95:test/ConsumerProducer_CPP_API_test.cpp ****     printInt(n);
 637              		.loc 1 95 16 is_stmt 0
 638 00c0 17050000 		lla	a0,.LC3
 638      13050500 
 639 00c8 97000000 		call	_Z11printStringPKc@plt
 639      E7800000 
 640              	.LVL63:
  96:test/ConsumerProducer_CPP_API_test.cpp ****     printString(".\n");
 641              		.loc 1 96 5 is_stmt 1
  96:test/ConsumerProducer_CPP_API_test.cpp ****     printString(".\n");
 642              		.loc 1 96 13 is_stmt 0
 643 00d0 13060000 		li	a2,0
 644 00d4 9305A000 		li	a1,10
 645 00d8 13850400 		mv	a0,s1
 646 00dc 97000000 		call	_Z8printIntiii@plt
 646      E7800000 
 647              	.LVL64:
  97:test/ConsumerProducer_CPP_API_test.cpp **** 
 648              		.loc 1 97 5 is_stmt 1
  97:test/ConsumerProducer_CPP_API_test.cpp **** 
 649              		.loc 1 97 16 is_stmt 0
 650 00e4 17050000 		lla	a0,.LC4
 650      13050500 
 651 00ec 97000000 		call	_Z11printStringPKc@plt
 651      E7800000 
 652              	.LVL65:
  99:test/ConsumerProducer_CPP_API_test.cpp ****         printString("Broj proizvodjaca ne sme biti manji od velicine bafera!\n");
 653              		.loc 1 99 5 is_stmt 1
 654 00f4 63C43403 		bgt	s3,s1,.L55
 102:test/ConsumerProducer_CPP_API_test.cpp ****         printString("Broj proizvodjaca mora biti veci od nula!\n");
 655              		.loc 1 102 12
 656 00f8 635C3003 		blez	s3,.L56
 107:test/ConsumerProducer_CPP_API_test.cpp **** 
 657              		.loc 1 107 5
 107:test/ConsumerProducer_CPP_API_test.cpp **** 
 658              		.loc 1 107 40 is_stmt 0
 659 00fc 13058003 		li	a0,56
 660 0100 97000000 		call	_Znwm@plt
 660      E7800000 
 661              	.LVL66:
 662              	.LEHE0:
 663 0108 930A0500 		mv	s5,a0
 664 010c 93850400 		mv	a1,s1
 665              	.LEHB1:
 666 0110 97000000 		call	_ZN9BufferCPPC1Ei@plt
 666      E7800000 
 667              	.LVL67:
 668              	.LEHE1:
 669 0118 6F000003 		j	.L57
 670              	.L55:
 100:test/ConsumerProducer_CPP_API_test.cpp ****         return;
 671              		.loc 1 100 9 is_stmt 1
 100:test/ConsumerProducer_CPP_API_test.cpp ****         return;
 672              		.loc 1 100 20 is_stmt 0
 673 011c 17050000 		lla	a0,.LC5
 673      13050500 
 674              	.LEHB2:
GAS LISTING /tmp/cc0PSxHy.s 			page 18


 675 0124 97000000 		call	_Z11printStringPKc@plt
 675      E7800000 
 676              	.LVL68:
 101:test/ConsumerProducer_CPP_API_test.cpp ****     } else if (threadNum < 1) {
 677              		.loc 1 101 9 is_stmt 1
 678 012c 6F004001 		j	.L31
 679              	.L56:
 103:test/ConsumerProducer_CPP_API_test.cpp ****         return;
 680              		.loc 1 103 9
 103:test/ConsumerProducer_CPP_API_test.cpp ****         return;
 681              		.loc 1 103 20 is_stmt 0
 682 0130 17050000 		lla	a0,.LC6
 682      13050500 
 683 0138 97000000 		call	_Z11printStringPKc@plt
 683      E7800000 
 684              	.LVL69:
 104:test/ConsumerProducer_CPP_API_test.cpp ****     }
 685              		.loc 1 104 9 is_stmt 1
 686              	.L31:
 687 0140 13010C00 		mv	sp,s8
 688 0144 6F004021 		j	.L29
 689              	.L57:
 690              	.LVL70:
 109:test/ConsumerProducer_CPP_API_test.cpp ****     Thread *producers[threadNum];
 691              		.loc 1 109 5 discriminator 3
 109:test/ConsumerProducer_CPP_API_test.cpp ****     Thread *producers[threadNum];
 692              		.loc 1 109 33 is_stmt 0 discriminator 3
 693 0148 13050001 		li	a0,16
 694 014c 97000000 		call	_Znwm@plt
 694      E7800000 
 695              	.LVL71:
 696              	.LEHE2:
 697 0154 13090500 		mv	s2,a0
 698 0158 93050000 		li	a1,0
 699              	.LEHB3:
 700 015c 97000000 		call	_ZN9SemaphoreC1Ej@plt
 700      E7800000 
 701              	.LVL72:
 702              	.LEHE3:
 109:test/ConsumerProducer_CPP_API_test.cpp ****     Thread *producers[threadNum];
 703              		.loc 1 109 16 discriminator 3
 704 0164 97070000 		sd	s2,.LANCHOR0+8,a5
 704      23B02701 
 110:test/ConsumerProducer_CPP_API_test.cpp ****     thread_data threadData[threadNum + 1];
 705              		.loc 1 110 5 is_stmt 1 discriminator 3
 706              	.LVL73:
 110:test/ConsumerProducer_CPP_API_test.cpp ****     thread_data threadData[threadNum + 1];
 707              		.loc 1 110 13 is_stmt 0 discriminator 3
 708 016c 93973900 		slli	a5,s3,3
 709 0170 9387F700 		addi	a5,a5,15
 710 0174 93F707FF 		andi	a5,a5,-16
 711 0178 3301F140 		sub	sp,sp,a5
 712 017c 130A0100 		mv	s4,sp
 713              	.LVL74:
 111:test/ConsumerProducer_CPP_API_test.cpp **** 
 714              		.loc 1 111 5 is_stmt 1 discriminator 3
 111:test/ConsumerProducer_CPP_API_test.cpp **** 
GAS LISTING /tmp/cc0PSxHy.s 			page 19


 715              		.loc 1 111 38 is_stmt 0 discriminator 3
 716 0180 1B871900 		addiw	a4,s3,1
 717              	.LVL75:
 111:test/ConsumerProducer_CPP_API_test.cpp **** 
 718              		.loc 1 111 17 discriminator 3
 719 0184 93171700 		slli	a5,a4,1
 720 0188 B387E700 		add	a5,a5,a4
 721 018c 93973700 		slli	a5,a5,3
 722 0190 9387F700 		addi	a5,a5,15
 723 0194 93F707FF 		andi	a5,a5,-16
 724 0198 3301F140 		sub	sp,sp,a5
 725              	.LVL76:
 726 019c 130B0100 		mv	s6,sp
 727              	.LVL77:
 113:test/ConsumerProducer_CPP_API_test.cpp ****     threadData[threadNum].buffer = buffer;
 728              		.loc 1 113 5 is_stmt 1 discriminator 3
 113:test/ConsumerProducer_CPP_API_test.cpp ****     threadData[threadNum].buffer = buffer;
 729              		.loc 1 113 30 is_stmt 0 discriminator 3
 730 01a0 93941900 		slli	s1,s3,1
 731              	.LVL78:
 732 01a4 B3843401 		add	s1,s1,s3
 733 01a8 93943400 		slli	s1,s1,3
 734 01ac B3049B00 		add	s1,s6,s1
 735 01b0 23A03401 		sw	s3,0(s1)
 114:test/ConsumerProducer_CPP_API_test.cpp ****     threadData[threadNum].sem = waitForAll;
 736              		.loc 1 114 5 is_stmt 1 discriminator 3
 114:test/ConsumerProducer_CPP_API_test.cpp ****     threadData[threadNum].sem = waitForAll;
 737              		.loc 1 114 34 is_stmt 0 discriminator 3
 738 01b4 23B45401 		sd	s5,8(s1)
 115:test/ConsumerProducer_CPP_API_test.cpp ****     Thread *consumer = new Consumer(&threadData[threadNum]);
 739              		.loc 1 115 5 is_stmt 1 discriminator 3
 115:test/ConsumerProducer_CPP_API_test.cpp ****     Thread *consumer = new Consumer(&threadData[threadNum]);
 740              		.loc 1 115 31 is_stmt 0 discriminator 3
 741 01b8 23B82401 		sd	s2,16(s1)
 116:test/ConsumerProducer_CPP_API_test.cpp ****     consumer->start();
 742              		.loc 1 116 5 is_stmt 1 discriminator 3
 116:test/ConsumerProducer_CPP_API_test.cpp ****     consumer->start();
 743              		.loc 1 116 59 is_stmt 0 discriminator 3
 744 01bc 13058002 		li	a0,40
 745              	.LEHB4:
 746 01c0 97000000 		call	_Znwm@plt
 746      E7800000 
 747              	.LVL79:
 748              	.LEHE4:
 749 01c8 930B0500 		mv	s7,a0
 750              	.LVL80:
 751              	.LEHB5:
 752              	.LBB35:
 753              	.LBB36:
  57:test/ConsumerProducer_CPP_API_test.cpp **** 
 754              		.loc 1 57 50 discriminator 3
 755 01cc 97000000 		call	_ZN6ThreadC2Ev@plt
 755      E7800000 
 756              	.LVL81:
 757              	.LEHE5:
  57:test/ConsumerProducer_CPP_API_test.cpp **** 
 758              		.loc 1 57 50
GAS LISTING /tmp/cc0PSxHy.s 			page 20


 759 01d4 97070000 		lla	a5,_ZTV8Consumer+16
 759      93870700 
 760 01dc 23B0FB00 		sd	a5,0(s7)
 761 01e0 23B09B02 		sd	s1,32(s7)
 762              	.LVL82:
 763              	.LBE36:
 764              	.LBE35:
 117:test/ConsumerProducer_CPP_API_test.cpp **** 
 765              		.loc 1 117 5 is_stmt 1
 117:test/ConsumerProducer_CPP_API_test.cpp **** 
 766              		.loc 1 117 20 is_stmt 0
 767 01e4 13850B00 		mv	a0,s7
 768              	.LEHB6:
 769 01e8 97000000 		call	_ZN6Thread5startEv@plt
 769      E7800000 
 770              	.LVL83:
 119:test/ConsumerProducer_CPP_API_test.cpp ****     threadData[0].buffer = buffer;
 771              		.loc 1 119 5 is_stmt 1
 119:test/ConsumerProducer_CPP_API_test.cpp ****     threadData[0].buffer = buffer;
 772              		.loc 1 119 22 is_stmt 0
 773 01f0 23200B00 		sw	zero,0(s6)
 120:test/ConsumerProducer_CPP_API_test.cpp ****     threadData[0].sem = waitForAll;
 774              		.loc 1 120 5 is_stmt 1
 120:test/ConsumerProducer_CPP_API_test.cpp ****     threadData[0].sem = waitForAll;
 775              		.loc 1 120 26 is_stmt 0
 776 01f4 23345B01 		sd	s5,8(s6)
 121:test/ConsumerProducer_CPP_API_test.cpp ****     producers[0] = new ProducerKeyborad(&threadData[0]);
 777              		.loc 1 121 5 is_stmt 1
 121:test/ConsumerProducer_CPP_API_test.cpp ****     producers[0] = new ProducerKeyborad(&threadData[0]);
 778              		.loc 1 121 23 is_stmt 0
 779 01f8 97070000 		ld	a5,.LANCHOR0+8
 779      83B70700 
 780 0200 2338FB00 		sd	a5,16(s6)
 122:test/ConsumerProducer_CPP_API_test.cpp ****     producers[0]->start();
 781              		.loc 1 122 5 is_stmt 1
 122:test/ConsumerProducer_CPP_API_test.cpp ****     producers[0]->start();
 782              		.loc 1 122 55 is_stmt 0
 783 0204 13058002 		li	a0,40
 784 0208 97000000 		call	_Znwm@plt
 784      E7800000 
 785              	.LVL84:
 786              	.LEHE6:
 787 0210 93040500 		mv	s1,a0
 788              	.LVL85:
 789              	.LEHB7:
 790              	.LBB37:
 791              	.LBB38:
  20:test/ConsumerProducer_CPP_API_test.cpp **** 
 792              		.loc 1 20 58
 793 0214 97000000 		call	_ZN6ThreadC2Ev@plt
 793      E7800000 
 794              	.LVL86:
 795              	.LEHE7:
 796 021c 97070000 		lla	a5,_ZTV16ProducerKeyborad+16
 796      93870700 
 797 0224 23B0F400 		sd	a5,0(s1)
 798 0228 23B06403 		sd	s6,32(s1)
GAS LISTING /tmp/cc0PSxHy.s 			page 21


 799              	.LVL87:
 800              	.LBE38:
 801              	.LBE37:
 122:test/ConsumerProducer_CPP_API_test.cpp ****     producers[0]->start();
 802              		.loc 1 122 18
 803 022c 23309A00 		sd	s1,0(s4)
 123:test/ConsumerProducer_CPP_API_test.cpp **** 
 804              		.loc 1 123 5 is_stmt 1
 123:test/ConsumerProducer_CPP_API_test.cpp **** 
 805              		.loc 1 123 24 is_stmt 0
 806 0230 13850400 		mv	a0,s1
 807              	.LEHB8:
 808 0234 97000000 		call	_ZN6Thread5startEv@plt
 808      E7800000 
 809              	.LVL88:
 810              	.LBB39:
 125:test/ConsumerProducer_CPP_API_test.cpp ****         threadData[i].id = i;
 811              		.loc 1 125 14
 812 023c 13091000 		li	s2,1
 813 0240 6F000003 		j	.L34
 814              	.LVL89:
 815              	.L58:
 816              	.LBB40:
 817              	.LBB41:
  40:test/ConsumerProducer_CPP_API_test.cpp **** 
 818              		.loc 1 40 50
 819 0244 97070000 		lla	a5,_ZTV8Producer+16
 819      93870700 
 820 024c 23B0FC00 		sd	a5,0(s9)
 821 0250 23B09C02 		sd	s1,32(s9)
 822              	.LVL90:
 823              	.LBE41:
 824              	.LBE40:
 130:test/ConsumerProducer_CPP_API_test.cpp ****         producers[i]->start();
 825              		.loc 1 130 22
 826 0254 93173900 		slli	a5,s2,3
 827 0258 B307FA00 		add	a5,s4,a5
 828 025c 23B09701 		sd	s9,0(a5)
 131:test/ConsumerProducer_CPP_API_test.cpp **** 
 829              		.loc 1 131 9 is_stmt 1
 131:test/ConsumerProducer_CPP_API_test.cpp **** 
 830              		.loc 1 131 28 is_stmt 0
 831 0260 13850C00 		mv	a0,s9
 832 0264 97000000 		call	_ZN6Thread5startEv@plt
 832      E7800000 
 833              	.LVL91:
 125:test/ConsumerProducer_CPP_API_test.cpp ****         threadData[i].id = i;
 834              		.loc 1 125 5 is_stmt 1
 835 026c 1B091900 		addiw	s2,s2,1
 836              	.LVL92:
 837              	.L34:
 125:test/ConsumerProducer_CPP_API_test.cpp ****         threadData[i].id = i;
 838              		.loc 1 125 23 discriminator 1
 839 0270 63523905 		bge	s2,s3,.L33
 126:test/ConsumerProducer_CPP_API_test.cpp ****         threadData[i].buffer = buffer;
 840              		.loc 1 126 9
 126:test/ConsumerProducer_CPP_API_test.cpp ****         threadData[i].buffer = buffer;
GAS LISTING /tmp/cc0PSxHy.s 			page 22


 841              		.loc 1 126 26 is_stmt 0
 842 0274 93141900 		slli	s1,s2,1
 843 0278 B3842401 		add	s1,s1,s2
 844 027c 93943400 		slli	s1,s1,3
 845 0280 B3049B00 		add	s1,s6,s1
 846 0284 23A02401 		sw	s2,0(s1)
 127:test/ConsumerProducer_CPP_API_test.cpp ****         threadData[i].sem = waitForAll;
 847              		.loc 1 127 9 is_stmt 1
 127:test/ConsumerProducer_CPP_API_test.cpp ****         threadData[i].sem = waitForAll;
 848              		.loc 1 127 30 is_stmt 0
 849 0288 23B45401 		sd	s5,8(s1)
 128:test/ConsumerProducer_CPP_API_test.cpp **** 
 850              		.loc 1 128 9 is_stmt 1
 128:test/ConsumerProducer_CPP_API_test.cpp **** 
 851              		.loc 1 128 27 is_stmt 0
 852 028c 97070000 		ld	a5,.LANCHOR0+8
 852      83B70700 
 853 0294 23B8F400 		sd	a5,16(s1)
 130:test/ConsumerProducer_CPP_API_test.cpp ****         producers[i]->start();
 854              		.loc 1 130 9 is_stmt 1
 130:test/ConsumerProducer_CPP_API_test.cpp ****         producers[i]->start();
 855              		.loc 1 130 51 is_stmt 0
 856 0298 13058002 		li	a0,40
 857 029c 97000000 		call	_Znwm@plt
 857      E7800000 
 858              	.LVL93:
 859              	.LEHE8:
 860 02a4 930C0500 		mv	s9,a0
 861              	.LVL94:
 862              	.LEHB9:
 863              	.LBB43:
 864              	.LBB42:
  40:test/ConsumerProducer_CPP_API_test.cpp **** 
 865              		.loc 1 40 50
 866 02a8 97000000 		call	_ZN6ThreadC2Ev@plt
 866      E7800000 
 867              	.LVL95:
 868              	.LEHE9:
 869 02b0 6FF05FF9 		j	.L58
 870              	.LVL96:
 871              	.L33:
 872              	.LBE42:
 873              	.LBE43:
 874              	.LBE39:
 135:test/ConsumerProducer_CPP_API_test.cpp **** 
 875              		.loc 1 135 5 is_stmt 1
 876              	.LEHB10:
 135:test/ConsumerProducer_CPP_API_test.cpp **** 
 877              		.loc 1 135 21 is_stmt 0
 878 02b4 97000000 		call	_ZN6Thread8dispatchEv@plt
 878      E7800000 
 879              	.LVL97:
 880              	.LBB44:
 137:test/ConsumerProducer_CPP_API_test.cpp ****         waitForAll->wait();
 881              		.loc 1 137 14
 882 02bc 93040000 		li	s1,0
 883              	.L36:
GAS LISTING /tmp/cc0PSxHy.s 			page 23


 884              	.LVL98:
 137:test/ConsumerProducer_CPP_API_test.cpp ****         waitForAll->wait();
 885              		.loc 1 137 23 is_stmt 1 discriminator 1
 886 02c0 63CE9900 		bgt	s1,s3,.L35
 138:test/ConsumerProducer_CPP_API_test.cpp ****     }
 887              		.loc 1 138 9
 138:test/ConsumerProducer_CPP_API_test.cpp ****     }
 888              		.loc 1 138 25 is_stmt 0
 889 02c4 17050000 		ld	a0,.LANCHOR0+8
 889      03350500 
 890 02cc 97000000 		call	_ZN9Semaphore4waitEv@plt
 890      E7800000 
 891              	.LVL99:
 137:test/ConsumerProducer_CPP_API_test.cpp ****         waitForAll->wait();
 892              		.loc 1 137 5 is_stmt 1
 893 02d4 9B841400 		addiw	s1,s1,1
 894              	.LVL100:
 895 02d8 6FF09FFE 		j	.L36
 896              	.LVL101:
 897              	.L35:
 898              	.LBE44:
 141:test/ConsumerProducer_CPP_API_test.cpp ****     for (int i = 0; i < threadNum; i++) {
 899              		.loc 1 141 5
 141:test/ConsumerProducer_CPP_API_test.cpp ****     for (int i = 0; i < threadNum; i++) {
 900              		.loc 1 141 12 is_stmt 0
 901 02dc 17050000 		ld	a0,.LANCHOR0+8
 901      03350500 
 141:test/ConsumerProducer_CPP_API_test.cpp ****     for (int i = 0; i < threadNum; i++) {
 902              		.loc 1 141 22
 903 02e4 63080500 		beqz	a0,.L37
 141:test/ConsumerProducer_CPP_API_test.cpp ****     for (int i = 0; i < threadNum; i++) {
 904              		.loc 1 141 12 discriminator 1
 905 02e8 83370500 		ld	a5,0(a0)
 906 02ec 83B78700 		ld	a5,8(a5)
 907 02f0 E7800700 		jalr	a5
 908              	.LVL102:
 909              	.L37:
 910              	.LBB45:
 137:test/ConsumerProducer_CPP_API_test.cpp ****         waitForAll->wait();
 911              		.loc 1 137 14 discriminator 1
 912 02f4 93040000 		li	s1,0
 913              	.LVL103:
 914 02f8 6F008000 		j	.L40
 915              	.LVL104:
 916              	.L39:
 917              	.LBE45:
 918              	.LBB46:
 142:test/ConsumerProducer_CPP_API_test.cpp ****         delete producers[i];
 919              		.loc 1 142 5 is_stmt 1 discriminator 2
 920 02fc 9B841400 		addiw	s1,s1,1
 921              	.LVL105:
 922              	.L40:
 142:test/ConsumerProducer_CPP_API_test.cpp ****         delete producers[i];
 923              		.loc 1 142 23 discriminator 1
 924 0300 63D23403 		bge	s1,s3,.L38
 143:test/ConsumerProducer_CPP_API_test.cpp ****     }
 925              		.loc 1 143 9
GAS LISTING /tmp/cc0PSxHy.s 			page 24


 143:test/ConsumerProducer_CPP_API_test.cpp ****     }
 926              		.loc 1 143 27 is_stmt 0
 927 0304 93973400 		slli	a5,s1,3
 928 0308 B307FA00 		add	a5,s4,a5
 929 030c 03B50700 		ld	a0,0(a5)
 143:test/ConsumerProducer_CPP_API_test.cpp ****     }
 930              		.loc 1 143 28
 931 0310 E30605FE 		beqz	a0,.L39
 143:test/ConsumerProducer_CPP_API_test.cpp ****     }
 932              		.loc 1 143 27 discriminator 1
 933 0314 83370500 		ld	a5,0(a0)
 934 0318 83B78700 		ld	a5,8(a5)
 935 031c E7800700 		jalr	a5
 936              	.LVL106:
 937 0320 6FF0DFFD 		j	.L39
 938              	.L38:
 939              	.LBE46:
 145:test/ConsumerProducer_CPP_API_test.cpp ****     delete buffer;
 940              		.loc 1 145 5 is_stmt 1
 145:test/ConsumerProducer_CPP_API_test.cpp ****     delete buffer;
 941              		.loc 1 145 20 is_stmt 0
 942 0324 638A0B00 		beqz	s7,.L41
 145:test/ConsumerProducer_CPP_API_test.cpp ****     delete buffer;
 943              		.loc 1 145 12 discriminator 1
 944 0328 83B70B00 		ld	a5,0(s7)
 945 032c 83B78700 		ld	a5,8(a5)
 946 0330 13850B00 		mv	a0,s7
 947 0334 E7800700 		jalr	a5
 948              	.LVL107:
 949              	.L41:
 950              		.loc 1 146 5 is_stmt 1
 951              		.loc 1 146 18 is_stmt 0
 952 0338 638E0A00 		beqz	s5,.L42
 953              		.loc 1 146 12 discriminator 1
 954 033c 13850A00 		mv	a0,s5
 955 0340 97000000 		call	_ZN9BufferCPPD1Ev@plt
 955      E7800000 
 956              	.LVL108:
 957 0348 13850A00 		mv	a0,s5
 958 034c 97000000 		call	_ZdlPv@plt
 958      E7800000 
 959              	.LVL109:
 960              	.L42:
 961 0354 13010C00 		mv	sp,s8
 962              	.LVL110:
 963              	.L29:
 147:test/ConsumerProducer_CPP_API_test.cpp **** }
 964              		.loc 1 147 1
 965 0358 130104F8 		addi	sp,s0,-128
 966              		.cfi_remember_state
 967              		.cfi_def_cfa 2, 128
 968 035c 83308107 		ld	ra,120(sp)
 969              		.cfi_restore 1
 970 0360 03340107 		ld	s0,112(sp)
 971              		.cfi_restore 8
 972 0364 83348106 		ld	s1,104(sp)
 973              		.cfi_restore 9
GAS LISTING /tmp/cc0PSxHy.s 			page 25


 974 0368 03390106 		ld	s2,96(sp)
 975              		.cfi_restore 18
 976 036c 83398105 		ld	s3,88(sp)
 977              		.cfi_restore 19
 978              	.LVL111:
 979 0370 033A0105 		ld	s4,80(sp)
 980              		.cfi_restore 20
 981 0374 833A8104 		ld	s5,72(sp)
 982              		.cfi_restore 21
 983 0378 033B0104 		ld	s6,64(sp)
 984              		.cfi_restore 22
 985 037c 833B8103 		ld	s7,56(sp)
 986              		.cfi_restore 23
 987 0380 033C0103 		ld	s8,48(sp)
 988              		.cfi_restore 24
 989 0384 833C8102 		ld	s9,40(sp)
 990              		.cfi_restore 25
 991 0388 13010108 		addi	sp,sp,128
 992              		.cfi_def_cfa_offset 0
 993 038c 67800000 		jr	ra
 994              	.LVL112:
 995              	.L49:
 996              		.cfi_restore_state
 997 0390 93040500 		mv	s1,a0
 998              	.LVL113:
 107:test/ConsumerProducer_CPP_API_test.cpp **** 
 999              		.loc 1 107 40
 1000 0394 13850A00 		mv	a0,s5
 1001 0398 97000000 		call	_ZdlPv@plt
 1001      E7800000 
 1002              	.LVL114:
 1003 03a0 13850400 		mv	a0,s1
 1004 03a4 97000000 		call	_Unwind_Resume@plt
 1004      E7800000 
 1005              	.LVL115:
 1006              	.L50:
 1007 03ac 93040500 		mv	s1,a0
 1008              	.LVL116:
 109:test/ConsumerProducer_CPP_API_test.cpp ****     Thread *producers[threadNum];
 1009              		.loc 1 109 33
 1010 03b0 13050900 		mv	a0,s2
 1011 03b4 97000000 		call	_ZdlPv@plt
 1011      E7800000 
 1012              	.LVL117:
 1013 03bc 13850400 		mv	a0,s1
 1014 03c0 97000000 		call	_Unwind_Resume@plt
 1014      E7800000 
 1015              	.LVL118:
 1016              	.L51:
 1017 03c8 93040500 		mv	s1,a0
 1018              	.LVL119:
 116:test/ConsumerProducer_CPP_API_test.cpp ****     consumer->start();
 1019              		.loc 1 116 59
 1020 03cc 13850B00 		mv	a0,s7
 1021 03d0 97000000 		call	_ZdlPv@plt
 1021      E7800000 
 1022              	.LVL120:
GAS LISTING /tmp/cc0PSxHy.s 			page 26


 1023 03d8 13850400 		mv	a0,s1
 1024 03dc 97000000 		call	_Unwind_Resume@plt
 1024      E7800000 
 1025              	.LVL121:
 1026              	.L52:
 1027 03e4 13090500 		mv	s2,a0
 122:test/ConsumerProducer_CPP_API_test.cpp ****     producers[0]->start();
 1028              		.loc 1 122 55
 1029 03e8 13850400 		mv	a0,s1
 1030 03ec 97000000 		call	_ZdlPv@plt
 1030      E7800000 
 1031              	.LVL122:
 1032 03f4 13050900 		mv	a0,s2
 1033 03f8 97000000 		call	_Unwind_Resume@plt
 1033      E7800000 
 1034              	.LVL123:
 1035              	.L53:
 1036 0400 93040500 		mv	s1,a0
 1037              	.LVL124:
 1038              	.LBB47:
 130:test/ConsumerProducer_CPP_API_test.cpp ****         producers[i]->start();
 1039              		.loc 1 130 51
 1040 0404 13850C00 		mv	a0,s9
 1041 0408 97000000 		call	_ZdlPv@plt
 1041      E7800000 
 1042              	.LVL125:
 1043 0410 13850400 		mv	a0,s1
 1044 0414 97000000 		call	_Unwind_Resume@plt
 1044      E7800000 
 1045              	.LVL126:
 1046              	.LEHE10:
 1047              	.LBE47:
 1048              		.cfi_endproc
 1049              	.LFE13:
 1050              		.globl	__gxx_personality_v0
 1051              		.section	.gcc_except_table,"a",@progbits
 1052              	.LLSDA13:
 1053 0000 FF       		.byte	0xff
 1054 0001 FF       		.byte	0xff
 1055 0002 03       		.byte	0x3
 1056 0003 8F01     		.byte	0x8f,0x1
 1057 0005 00000000 		.4byte	.LEHB0-.LFB13
 1058 0009 00000000 		.4byte	.LEHE0-.LEHB0
 1059 000d 00000000 		.4byte	0
 1060 0011 00       		.byte	0
 1061 0012 00000000 		.4byte	.LEHB1-.LFB13
 1062 0016 00000000 		.4byte	.LEHE1-.LEHB1
 1063 001a 00000000 		.4byte	.L49-.LFB13
 1064 001e 00       		.byte	0
 1065 001f 00000000 		.4byte	.LEHB2-.LFB13
 1066 0023 00000000 		.4byte	.LEHE2-.LEHB2
 1067 0027 00000000 		.4byte	0
 1068 002b 00       		.byte	0
 1069 002c 00000000 		.4byte	.LEHB3-.LFB13
 1070 0030 00000000 		.4byte	.LEHE3-.LEHB3
 1071 0034 00000000 		.4byte	.L50-.LFB13
 1072 0038 00       		.byte	0
GAS LISTING /tmp/cc0PSxHy.s 			page 27


 1073 0039 00000000 		.4byte	.LEHB4-.LFB13
 1074 003d 00000000 		.4byte	.LEHE4-.LEHB4
 1075 0041 00000000 		.4byte	0
 1076 0045 00       		.byte	0
 1077 0046 00000000 		.4byte	.LEHB5-.LFB13
 1078 004a 00000000 		.4byte	.LEHE5-.LEHB5
 1079 004e 00000000 		.4byte	.L51-.LFB13
 1080 0052 00       		.byte	0
 1081 0053 00000000 		.4byte	.LEHB6-.LFB13
 1082 0057 00000000 		.4byte	.LEHE6-.LEHB6
 1083 005b 00000000 		.4byte	0
 1084 005f 00       		.byte	0
 1085 0060 00000000 		.4byte	.LEHB7-.LFB13
 1086 0064 00000000 		.4byte	.LEHE7-.LEHB7
 1087 0068 00000000 		.4byte	.L52-.LFB13
 1088 006c 00       		.byte	0
 1089 006d 00000000 		.4byte	.LEHB8-.LFB13
 1090 0071 00000000 		.4byte	.LEHE8-.LEHB8
 1091 0075 00000000 		.4byte	0
 1092 0079 00       		.byte	0
 1093 007a 00000000 		.4byte	.LEHB9-.LFB13
 1094 007e 00000000 		.4byte	.LEHE9-.LEHB9
 1095 0082 00000000 		.4byte	.L53-.LFB13
 1096 0086 00       		.byte	0
 1097 0087 00000000 		.4byte	.LEHB10-.LFB13
 1098 008b 00000000 		.4byte	.LEHE10-.LEHB10
 1099 008f 00000000 		.4byte	0
 1100 0093 00       		.byte	0
 1101              		.text
 1103              		.weak	_ZTV16ProducerKeyborad
 1104              		.section	.data.rel.ro.local._ZTV16ProducerKeyborad,"awG",@progbits,_ZTV16ProducerKeyborad,comdat
 1105              		.align	3
 1108              	_ZTV16ProducerKeyborad:
 1109 0000 00000000 		.dword	0
 1109      00000000 
 1110 0008 00000000 		.dword	0
 1110      00000000 
 1111 0010 00000000 		.dword	_ZN16ProducerKeyboradD1Ev
 1111      00000000 
 1112 0018 00000000 		.dword	_ZN16ProducerKeyboradD0Ev
 1112      00000000 
 1113 0020 00000000 		.dword	_ZN16ProducerKeyborad3runEv
 1113      00000000 
 1114              		.weak	_ZTV8Producer
 1115              		.section	.data.rel.ro.local._ZTV8Producer,"awG",@progbits,_ZTV8Producer,comdat
 1116              		.align	3
 1119              	_ZTV8Producer:
 1120 0000 00000000 		.dword	0
 1120      00000000 
 1121 0008 00000000 		.dword	0
 1121      00000000 
 1122 0010 00000000 		.dword	_ZN8ProducerD1Ev
 1122      00000000 
 1123 0018 00000000 		.dword	_ZN8ProducerD0Ev
 1123      00000000 
 1124 0020 00000000 		.dword	_ZN8Producer3runEv
 1124      00000000 
GAS LISTING /tmp/cc0PSxHy.s 			page 28


 1125              		.weak	_ZTV8Consumer
 1126              		.section	.data.rel.ro.local._ZTV8Consumer,"awG",@progbits,_ZTV8Consumer,comdat
 1127              		.align	3
 1130              	_ZTV8Consumer:
 1131 0000 00000000 		.dword	0
 1131      00000000 
 1132 0008 00000000 		.dword	0
 1132      00000000 
 1133 0010 00000000 		.dword	_ZN8ConsumerD1Ev
 1133      00000000 
 1134 0018 00000000 		.dword	_ZN8ConsumerD0Ev
 1134      00000000 
 1135 0020 00000000 		.dword	_ZN8Consumer3runEv
 1135      00000000 
 1136              		.bss
 1137              		.align	3
 1138              		.set	.LANCHOR0,. + 0
 1141              	_ZL9threadEnd:
 1142 0000 00000000 		.zero	4
 1143 0004 00000000 		.zero	4
 1146              	_ZL10waitForAll:
 1147 0008 00000000 		.zero	8
 1147      00000000 
 1148              		.text
 1149              	.Letext0:
 1150              		.file 2 "test/../h/../lib/hw.h"
 1151              		.file 3 "test/../h/syscallC.hpp"
 1152              		.file 4 "test/../h/syscallCpp.hpp"
 1153              		.file 5 "test/buffer_CPP_API.hpp"
 1154              		.file 6 "test/printing.hpp"
 4833              		.align	3
 4836              	DW.ref.__gxx_personality_v0:
 4837 0000 00000000 		.dword	__gxx_personality_v0
 4837      00000000 
 4838              		.ident	"GCC: (Ubuntu 9.4.0-1ubuntu1~20.04) 9.4.0"
 4839              		.section	.note.GNU-stack,"",@progbits
GAS LISTING /tmp/cc0PSxHy.s 			page 29

