GAS LISTING /tmp/ccxDHjEM.s 			page 1


   1              		.file	"ThreadSleep_C_API_test.cpp"
   2              		.option pic
   3              		.option norelax
   4              		.text
   5              	.Ltext0:
   6              		.section	.rodata.str1.8,"aMS",@progbits,1
   7              		.align	3
   8              	.LC0:
   9 0000 48656C6C 		.string	"Hello "
   9      6F2000
  10 0007 00       		.align	3
  11              	.LC1:
  12 0008 20210A00 		.string	" !\n"
  13              		.text
  14              		.align	2
  16              	_ZL9sleepyRunPv:
  17              	.LFB0:
  18              		.file 1 "test/ThreadSleep_C_API_test.cpp"
   1:test/ThreadSleep_C_API_test.cpp **** #include "../h/syscallC.hpp"
   2:test/ThreadSleep_C_API_test.cpp **** 
   3:test/ThreadSleep_C_API_test.cpp **** #include "printing.hpp"
   4:test/ThreadSleep_C_API_test.cpp **** 
   5:test/ThreadSleep_C_API_test.cpp **** static volatile bool finished[2];
   6:test/ThreadSleep_C_API_test.cpp **** 
   7:test/ThreadSleep_C_API_test.cpp **** static void sleepyRun(void *arg) {
  19              		.loc 1 7 34
  20              		.cfi_startproc
  21              	.LVL0:
  22 0000 130101FE 		addi	sp,sp,-32
  23              		.cfi_def_cfa_offset 32
  24 0004 233C1100 		sd	ra,24(sp)
  25 0008 23388100 		sd	s0,16(sp)
  26 000c 23349100 		sd	s1,8(sp)
  27 0010 23302101 		sd	s2,0(sp)
  28              		.cfi_offset 1, -8
  29              		.cfi_offset 8, -16
  30              		.cfi_offset 9, -24
  31              		.cfi_offset 18, -32
  32 0014 13040102 		addi	s0,sp,32
  33              		.cfi_def_cfa 8, 0
   8:test/ThreadSleep_C_API_test.cpp ****     time_t sleep_time = *((time_t *) arg);
  34              		.loc 1 8 5
  35              		.loc 1 8 12 is_stmt 0
  36 0018 03390500 		ld	s2,0(a0)
  37              	.LVL1:
   9:test/ThreadSleep_C_API_test.cpp ****     int i = 6;
  38              		.loc 1 9 5 is_stmt 1
  39              		.loc 1 9 9 is_stmt 0
  40 001c 93046000 		li	s1,6
  41              	.LVL2:
  42              	.L3:
  10:test/ThreadSleep_C_API_test.cpp ****     while (--i > 0) {
  43              		.loc 1 10 5 is_stmt 1
  44              		.loc 1 10 16
  45 0020 9B84F4FF 		addiw	s1,s1,-1
  46              	.LVL3:
  47 0024 635E9002 		blez	s1,.L2
GAS LISTING /tmp/ccxDHjEM.s 			page 2


  11:test/ThreadSleep_C_API_test.cpp **** 
  12:test/ThreadSleep_C_API_test.cpp ****         printString("Hello ");
  48              		.loc 1 12 9
  49              		.loc 1 12 20 is_stmt 0
  50 0028 17050000 		lla	a0,.LC0
  50      13050500 
  51 0030 97000000 		call	_Z11printStringPKc@plt
  51      E7800000 
  52              	.LVL4:
  13:test/ThreadSleep_C_API_test.cpp ****         printInt(sleep_time);
  53              		.loc 1 13 9 is_stmt 1
  54              		.loc 1 13 17 is_stmt 0
  55 0038 13060000 		li	a2,0
  56 003c 9305A000 		li	a1,10
  57 0040 1B050900 		sext.w	a0,s2
  58 0044 97000000 		call	_Z8printIntiii@plt
  58      E7800000 
  59              	.LVL5:
  14:test/ThreadSleep_C_API_test.cpp ****         printString(" !\n");
  60              		.loc 1 14 9 is_stmt 1
  61              		.loc 1 14 20 is_stmt 0
  62 004c 17050000 		lla	a0,.LC1
  62      13050500 
  63 0054 97000000 		call	_Z11printStringPKc@plt
  63      E7800000 
  64              	.LVL6:
  10:test/ThreadSleep_C_API_test.cpp **** 
  65              		.loc 1 10 5
  66 005c 6FF05FFC 		j	.L3
  67              	.L2:
  15:test/ThreadSleep_C_API_test.cpp ****         //time_sleep(sleep_time);
  16:test/ThreadSleep_C_API_test.cpp ****     }
  17:test/ThreadSleep_C_API_test.cpp ****     finished[sleep_time/10-1] = true;
  68              		.loc 1 17 5 is_stmt 1
  69              		.loc 1 17 24 is_stmt 0
  70 0060 9307A000 		li	a5,10
  71 0064 3359F902 		divu	s2,s2,a5
  72              	.LVL7:
  73              		.loc 1 17 27
  74 0068 1309F9FF 		addi	s2,s2,-1
  75              		.loc 1 17 31
  76 006c 97070000 		lla	a5,.LANCHOR0
  76      93870700 
  77 0074 33892701 		add	s2,a5,s2
  78 0078 93071000 		li	a5,1
  79 007c 2300F900 		sb	a5,0(s2)
  18:test/ThreadSleep_C_API_test.cpp **** }
  80              		.loc 1 18 1
  81 0080 83308101 		ld	ra,24(sp)
  82              		.cfi_restore 1
  83 0084 03340101 		ld	s0,16(sp)
  84              		.cfi_restore 8
  85              		.cfi_def_cfa 2, 32
  86 0088 83348100 		ld	s1,8(sp)
  87              		.cfi_restore 9
  88 008c 03390100 		ld	s2,0(sp)
  89              		.cfi_restore 18
GAS LISTING /tmp/ccxDHjEM.s 			page 3


  90 0090 13010102 		addi	sp,sp,32
  91              		.cfi_def_cfa_offset 0
  92 0094 67800000 		jr	ra
  93              		.cfi_endproc
  94              	.LFE0:
  96              		.align	2
  97              		.globl	_Z12testSleepingv
  99              	_Z12testSleepingv:
 100              	.LFB1:
  19:test/ThreadSleep_C_API_test.cpp **** 
  20:test/ThreadSleep_C_API_test.cpp **** void testSleeping() {
 101              		.loc 1 20 21 is_stmt 1
 102              		.cfi_startproc
 103 0098 130101FC 		addi	sp,sp,-64
 104              		.cfi_def_cfa_offset 64
 105 009c 233C1102 		sd	ra,56(sp)
 106 00a0 23388102 		sd	s0,48(sp)
 107 00a4 23349102 		sd	s1,40(sp)
 108              		.cfi_offset 1, -8
 109              		.cfi_offset 8, -16
 110              		.cfi_offset 9, -24
 111 00a8 13040104 		addi	s0,sp,64
 112              		.cfi_def_cfa 8, 0
  21:test/ThreadSleep_C_API_test.cpp ****     const int sleepy_thread_count = 2;
 113              		.loc 1 21 5
 114              	.LVL8:
  22:test/ThreadSleep_C_API_test.cpp ****     time_t sleep_times[sleepy_thread_count] = {10, 20};
 115              		.loc 1 22 5
 116              		.loc 1 22 12 is_stmt 0
 117 00ac 9307A000 		li	a5,10
 118 00b0 2338F4FC 		sd	a5,-48(s0)
 119 00b4 93074001 		li	a5,20
 120 00b8 233CF4FC 		sd	a5,-40(s0)
  23:test/ThreadSleep_C_API_test.cpp ****     thread_t sleepyThread[sleepy_thread_count];
 121              		.loc 1 23 5 is_stmt 1
  24:test/ThreadSleep_C_API_test.cpp **** 
  25:test/ThreadSleep_C_API_test.cpp ****     for (int i = 0; i < sleepy_thread_count; i++) {
 122              		.loc 1 25 5
 123              	.LVL9:
 124              	.LBB2:
 125              		.loc 1 25 14 is_stmt 0
 126 00bc 93040000 		li	s1,0
 127 00c0 6F00C002 		j	.L7
 128              	.LVL10:
 129              	.L10:
  26:test/ThreadSleep_C_API_test.cpp ****         thread_create(&sleepyThread[i], sleepyRun, sleep_times + i);
 130              		.loc 1 26 9 is_stmt 1
 131              		.loc 1 26 64 is_stmt 0
 132 00c4 93973400 		slli	a5,s1,3
 133              		.loc 1 26 22
 134 00c8 130604FD 		addi	a2,s0,-48
 135 00cc 3306F600 		add	a2,a2,a5
 136 00d0 97050000 		lla	a1,_ZL9sleepyRunPv
 136      93850500 
 137 00d8 130504FC 		addi	a0,s0,-64
 138 00dc 3305F500 		add	a0,a0,a5
 139 00e0 97000000 		call	_Z13thread_createPP3TCBPFvPvES2_@plt
GAS LISTING /tmp/ccxDHjEM.s 			page 4


 139      E7800000 
 140              	.LVL11:
  25:test/ThreadSleep_C_API_test.cpp ****         thread_create(&sleepyThread[i], sleepyRun, sleep_times + i);
 141              		.loc 1 25 5 is_stmt 1
 142 00e8 9B841400 		addiw	s1,s1,1
 143              	.LVL12:
 144              	.L7:
  25:test/ThreadSleep_C_API_test.cpp ****         thread_create(&sleepyThread[i], sleepyRun, sleep_times + i);
 145              		.loc 1 25 23 discriminator 1
 146 00ec 93071000 		li	a5,1
 147 00f0 E3DA97FC 		ble	s1,a5,.L10
 148              	.L8:
 149              	.LBE2:
  27:test/ThreadSleep_C_API_test.cpp ****     }
  28:test/ThreadSleep_C_API_test.cpp **** 
  29:test/ThreadSleep_C_API_test.cpp ****     while (!(finished[0] && finished[1])) {}
 150              		.loc 1 29 5
 151              		.loc 1 29 12
 152              		.loc 1 29 24 is_stmt 0
 153 00f4 97070000 		lbu	a5,.LANCHOR0
 153      83C70700 
 154              		.loc 1 29 12
 155 00fc E38C07FE 		beqz	a5,.L8
 156              		.loc 1 29 39 discriminator 2
 157 0100 97070000 		lbu	a5,.LANCHOR0+1
 157      83C70700 
 158              		.loc 1 29 12 discriminator 2
 159 0108 E38607FE 		beqz	a5,.L8
  30:test/ThreadSleep_C_API_test.cpp **** }
 160              		.loc 1 30 1
 161 010c 83308103 		ld	ra,56(sp)
 162              		.cfi_restore 1
 163 0110 03340103 		ld	s0,48(sp)
 164              		.cfi_restore 8
 165              		.cfi_def_cfa 2, 64
 166 0114 83348102 		ld	s1,40(sp)
 167              		.cfi_restore 9
 168              	.LVL13:
 169 0118 13010104 		addi	sp,sp,64
 170              		.cfi_def_cfa_offset 0
 171 011c 67800000 		jr	ra
 172              		.cfi_endproc
 173              	.LFE1:
 175              		.bss
 176              		.align	3
 177              		.set	.LANCHOR0,. + 0
 180              	_ZL8finished:
 181 0000 0000     		.zero	2
 182              		.text
 183              	.Letext0:
 184              		.file 2 "test/../h/../lib/hw.h"
 185              		.file 3 "test/../h/syscallC.hpp"
 186              		.file 4 "test/printing.hpp"
GAS LISTING /tmp/ccxDHjEM.s 			page 5


DEFINED SYMBOLS
                            *ABS*:0000000000000000 ThreadSleep_C_API_test.cpp
     /tmp/ccxDHjEM.s:16     .text:0000000000000000 _ZL9sleepyRunPv
     /tmp/ccxDHjEM.s:20     .text:0000000000000000 .L0 
     /tmp/ccxDHjEM.s:22     .text:0000000000000000 .L0 
     /tmp/ccxDHjEM.s:23     .text:0000000000000004 .L0 
     /tmp/ccxDHjEM.s:28     .text:0000000000000014 .L0 
     /tmp/ccxDHjEM.s:29     .text:0000000000000014 .L0 
     /tmp/ccxDHjEM.s:30     .text:0000000000000014 .L0 
     /tmp/ccxDHjEM.s:31     .text:0000000000000014 .L0 
     /tmp/ccxDHjEM.s:33     .text:0000000000000018 .L0 
     /tmp/ccxDHjEM.s:35     .text:0000000000000018 .L0 
     /tmp/ccxDHjEM.s:36     .text:0000000000000018 .L0 
     /tmp/ccxDHjEM.s:39     .text:000000000000001c .L0 
     /tmp/ccxDHjEM.s:40     .text:000000000000001c .L0 
     /tmp/ccxDHjEM.s:44     .text:0000000000000020 .L0 
     /tmp/ccxDHjEM.s:45     .text:0000000000000020 .L0 
     /tmp/ccxDHjEM.s:49     .text:0000000000000028 .L0 
     /tmp/ccxDHjEM.s:50     .text:0000000000000028 .L0 
     /tmp/ccxDHjEM.s:54     .text:0000000000000038 .L0 
     /tmp/ccxDHjEM.s:55     .text:0000000000000038 .L0 
     /tmp/ccxDHjEM.s:61     .text:000000000000004c .L0 
     /tmp/ccxDHjEM.s:62     .text:000000000000004c .L0 
     /tmp/ccxDHjEM.s:66     .text:000000000000005c .L0 
     /tmp/ccxDHjEM.s:69     .text:0000000000000060 .L0 
     /tmp/ccxDHjEM.s:70     .text:0000000000000060 .L0 
     /tmp/ccxDHjEM.s:74     .text:0000000000000068 .L0 
     /tmp/ccxDHjEM.s:76     .text:000000000000006c .L0 
     /tmp/ccxDHjEM.s:81     .text:0000000000000080 .L0 
     /tmp/ccxDHjEM.s:82     .text:0000000000000084 .L0 
     /tmp/ccxDHjEM.s:84     .text:0000000000000088 .L0 
     /tmp/ccxDHjEM.s:85     .text:0000000000000088 .L0 
     /tmp/ccxDHjEM.s:87     .text:000000000000008c .L0 
     /tmp/ccxDHjEM.s:89     .text:0000000000000090 .L0 
     /tmp/ccxDHjEM.s:91     .text:0000000000000094 .L0 
     /tmp/ccxDHjEM.s:93     .text:0000000000000098 .L0 
     /tmp/ccxDHjEM.s:99     .text:0000000000000098 _Z12testSleepingv
     /tmp/ccxDHjEM.s:102    .text:0000000000000098 .L0 
     /tmp/ccxDHjEM.s:103    .text:0000000000000098 .L0 
     /tmp/ccxDHjEM.s:104    .text:000000000000009c .L0 
     /tmp/ccxDHjEM.s:108    .text:00000000000000a8 .L0 
     /tmp/ccxDHjEM.s:109    .text:00000000000000a8 .L0 
     /tmp/ccxDHjEM.s:110    .text:00000000000000a8 .L0 
     /tmp/ccxDHjEM.s:112    .text:00000000000000ac .L0 
     /tmp/ccxDHjEM.s:115    .text:00000000000000ac .L0 
     /tmp/ccxDHjEM.s:116    .text:00000000000000ac .L0 
     /tmp/ccxDHjEM.s:117    .text:00000000000000ac .L0 
     /tmp/ccxDHjEM.s:122    .text:00000000000000bc .L0 
     /tmp/ccxDHjEM.s:125    .text:00000000000000bc .L0 
     /tmp/ccxDHjEM.s:126    .text:00000000000000bc .L0 
     /tmp/ccxDHjEM.s:131    .text:00000000000000c4 .L0 
     /tmp/ccxDHjEM.s:132    .text:00000000000000c4 .L0 
     /tmp/ccxDHjEM.s:134    .text:00000000000000c8 .L0 
     /tmp/ccxDHjEM.s:142    .text:00000000000000e8 .L0 
     /tmp/ccxDHjEM.s:146    .text:00000000000000ec .L0 
     /tmp/ccxDHjEM.s:151    .text:00000000000000f4 .L0 
     /tmp/ccxDHjEM.s:152    .text:00000000000000f4 .L0 
GAS LISTING /tmp/ccxDHjEM.s 			page 6


     /tmp/ccxDHjEM.s:153    .text:00000000000000f4 .L0 
     /tmp/ccxDHjEM.s:155    .text:00000000000000fc .L0 
     /tmp/ccxDHjEM.s:157    .text:0000000000000100 .L0 
     /tmp/ccxDHjEM.s:159    .text:0000000000000108 .L0 
     /tmp/ccxDHjEM.s:161    .text:000000000000010c .L0 
     /tmp/ccxDHjEM.s:162    .text:0000000000000110 .L0 
     /tmp/ccxDHjEM.s:164    .text:0000000000000114 .L0 
     /tmp/ccxDHjEM.s:165    .text:0000000000000114 .L0 
     /tmp/ccxDHjEM.s:167    .text:0000000000000118 .L0 
     /tmp/ccxDHjEM.s:170    .text:000000000000011c .L0 
     /tmp/ccxDHjEM.s:172    .text:0000000000000120 .L0 
     /tmp/ccxDHjEM.s:177    .bss:0000000000000000 .LANCHOR0
     /tmp/ccxDHjEM.s:180    .bss:0000000000000000 _ZL8finished
     /tmp/ccxDHjEM.s:187    .text:0000000000000120 .L0 
     /tmp/ccxDHjEM.s:8      .rodata.str1.8:0000000000000000 .LC0
     /tmp/ccxDHjEM.s:50     .text:0000000000000028 .L0 
     /tmp/ccxDHjEM.s:11     .rodata.str1.8:0000000000000008 .LC1
     /tmp/ccxDHjEM.s:62     .text:000000000000004c .L0 
     /tmp/ccxDHjEM.s:76     .text:000000000000006c .L0 
     /tmp/ccxDHjEM.s:136    .text:00000000000000d0 .L0 
     /tmp/ccxDHjEM.s:153    .text:00000000000000f4 .L0 
     /tmp/ccxDHjEM.s:157    .text:0000000000000100 .L0 
     /tmp/ccxDHjEM.s:67     .text:0000000000000060 .L2
     /tmp/ccxDHjEM.s:42     .text:0000000000000020 .L3
     /tmp/ccxDHjEM.s:144    .text:00000000000000ec .L7
     /tmp/ccxDHjEM.s:129    .text:00000000000000c4 .L10
     /tmp/ccxDHjEM.s:148    .text:00000000000000f4 .L8
     /tmp/ccxDHjEM.s:633    .debug_abbrev:0000000000000000 .Ldebug_abbrev0
     /tmp/ccxDHjEM.s:1112   .debug_str:0000000000000150 .LASF43
     /tmp/ccxDHjEM.s:1078   .debug_str:000000000000005c .LASF44
     /tmp/ccxDHjEM.s:1134   .debug_str:000000000000029a .LASF45
     /tmp/ccxDHjEM.s:5      .text:0000000000000000 .Ltext0
     /tmp/ccxDHjEM.s:183    .text:0000000000000120 .Letext0
     /tmp/ccxDHjEM.s:1060   .debug_line:0000000000000000 .Ldebug_line0
     /tmp/ccxDHjEM.s:1116   .debug_str:0000000000000222 .LASF0
     /tmp/ccxDHjEM.s:1100   .debug_str:0000000000000104 .LASF1
     /tmp/ccxDHjEM.s:1092   .debug_str:00000000000000c7 .LASF2
     /tmp/ccxDHjEM.s:1070   .debug_str:0000000000000031 .LASF4
     /tmp/ccxDHjEM.s:1096   .debug_str:00000000000000e9 .LASF3
     /tmp/ccxDHjEM.s:1066   .debug_str:000000000000001c .LASF5
     /tmp/ccxDHjEM.s:1122   .debug_str:0000000000000249 .LASF6
     /tmp/ccxDHjEM.s:1064   .debug_str:0000000000000009 .LASF7
     /tmp/ccxDHjEM.s:1084   .debug_str:0000000000000086 .LASF8
     /tmp/ccxDHjEM.s:1124   .debug_str:0000000000000250 .LASF9
     /tmp/ccxDHjEM.s:1068   .debug_str:0000000000000023 .LASF10
     /tmp/ccxDHjEM.s:1158   .debug_str:000000000000035f .LASF11
     /tmp/ccxDHjEM.s:1086   .debug_str:0000000000000099 .LASF12
     /tmp/ccxDHjEM.s:1150   .debug_str:000000000000032c .LASF13
     /tmp/ccxDHjEM.s:1130   .debug_str:000000000000027f .LASF14
     /tmp/ccxDHjEM.s:1106   .debug_str:000000000000012e .LASF15
     /tmp/ccxDHjEM.s:1076   .debug_str:0000000000000046 .LASF16
     /tmp/ccxDHjEM.s:1126   .debug_str:0000000000000260 .LASF17
     /tmp/ccxDHjEM.s:1110   .debug_str:0000000000000146 .LASF18
     /tmp/ccxDHjEM.s:1148   .debug_str:0000000000000323 .LASF19
     /tmp/ccxDHjEM.s:1114   .debug_str:0000000000000214 .LASF20
     /tmp/ccxDHjEM.s:1146   .debug_str:0000000000000317 .LASF21
     /tmp/ccxDHjEM.s:1138   .debug_str:00000000000002cf .LASF22
GAS LISTING /tmp/ccxDHjEM.s 			page 7


     /tmp/ccxDHjEM.s:1062   .debug_str:0000000000000000 .LASF23
     /tmp/ccxDHjEM.s:1156   .debug_str:0000000000000355 .LASF24
     /tmp/ccxDHjEM.s:1098   .debug_str:00000000000000fb .LASF25
     /tmp/ccxDHjEM.s:1120   .debug_str:000000000000023e .LASF26
     /tmp/ccxDHjEM.s:1088   .debug_str:00000000000000a8 .LASF27
     /tmp/ccxDHjEM.s:1082   .debug_str:0000000000000081 .LASF28
     /tmp/ccxDHjEM.s:1080   .debug_str:000000000000007c .LASF29
     /tmp/ccxDHjEM.s:1128   .debug_str:0000000000000276 .LASF30
     /tmp/ccxDHjEM.s:1072   .debug_str:0000000000000038 .LASF31
     /tmp/ccxDHjEM.s:1104   .debug_str:0000000000000125 .LASF32
     /tmp/ccxDHjEM.s:1144   .debug_str:000000000000030a .LASF46
     /tmp/ccxDHjEM.s:1136   .debug_str:00000000000002bd .LASF47
     /tmp/ccxDHjEM.s:100    .text:0000000000000098 .LFB1
     /tmp/ccxDHjEM.s:173    .text:0000000000000120 .LFE1
     /tmp/ccxDHjEM.s:1094   .debug_str:00000000000000d5 .LASF33
     /tmp/ccxDHjEM.s:1108   .debug_str:000000000000013a .LASF34
     /tmp/ccxDHjEM.s:1152   .debug_str:000000000000033c .LASF35
     /tmp/ccxDHjEM.s:124    .text:00000000000000bc .LBB2
     /tmp/ccxDHjEM.s:149    .text:00000000000000f4 .LBE2
     /tmp/ccxDHjEM.s:1002   .debug_loc:0000000000000000 .LLST3
     /tmp/ccxDHjEM.s:140    .text:00000000000000e8 .LVL11
     /tmp/ccxDHjEM.s:1142   .debug_str:0000000000000300 .LASF48
     /tmp/ccxDHjEM.s:17     .text:0000000000000000 .LFB0
     /tmp/ccxDHjEM.s:94     .text:0000000000000098 .LFE0
     /tmp/ccxDHjEM.s:1014   .debug_loc:0000000000000037 .LLST0
     /tmp/ccxDHjEM.s:1132   .debug_str:000000000000028f .LASF36
     /tmp/ccxDHjEM.s:1028   .debug_loc:0000000000000070 .LLST1
     /tmp/ccxDHjEM.s:1035   .debug_loc:0000000000000093 .LLST2
     /tmp/ccxDHjEM.s:52     .text:0000000000000038 .LVL4
     /tmp/ccxDHjEM.s:59     .text:000000000000004c .LVL5
     /tmp/ccxDHjEM.s:64     .text:000000000000005c .LVL6
     /tmp/ccxDHjEM.s:1140   .debug_str:00000000000002df .LASF37
     /tmp/ccxDHjEM.s:1102   .debug_str:0000000000000117 .LASF39
     /tmp/ccxDHjEM.s:1090   .debug_str:00000000000000b4 .LASF38
     /tmp/ccxDHjEM.s:1154   .debug_str:0000000000000349 .LASF40
     /tmp/ccxDHjEM.s:1118   .debug_str:000000000000022f .LASF41
     /tmp/ccxDHjEM.s:1074   .debug_str:000000000000003d .LASF42
     /tmp/ccxDHjEM.s:123    .text:00000000000000bc .LVL9
     /tmp/ccxDHjEM.s:128    .text:00000000000000c4 .LVL10
     /tmp/ccxDHjEM.s:168    .text:0000000000000118 .LVL13
     /tmp/ccxDHjEM.s:21     .text:0000000000000000 .LVL0
     /tmp/ccxDHjEM.s:41     .text:0000000000000020 .LVL2
     /tmp/ccxDHjEM.s:37     .text:000000000000001c .LVL1
     /tmp/ccxDHjEM.s:72     .text:0000000000000068 .LVL7
     /tmp/ccxDHjEM.s:46     .text:0000000000000024 .LVL3
     /tmp/ccxDHjEM.s:188    .debug_info:0000000000000000 .Ldebug_info0

UNDEFINED SYMBOLS
_Z11printStringPKc
_Z8printIntiii
_Z13thread_createPP3TCBPFvPvES2_
